; Listing generated by Microsoft (R) Optimizing Compiler Version 19.37.32822.0 

include listing.inc

INCLUDELIB OLDNAMES

PUBLIC	?Open@UIProperties@@3_NA			; UIProperties::Open
PUBLIC	??_C@_0L@BEBCMECC@Actor?5Gyml@			; `string'
PUBLIC	??_C@_09JMDABEGI@Driftsand@			; `string'
PUBLIC	??_C@_0L@HBDLGHPN@Actor?5Hash@			; `string'
PUBLIC	??_C@_0N@BBPKBNHP@?$CD?$CDActor?5Gyml@		; `string'
PUBLIC	??_C@_08OPEIJNOM@Cylinder@			; `string'
PUBLIC	??_C@_0N@PJFAHGN@Parent?5actor@			; `string'
PUBLIC	??_C@_0N@PDIGHLEH@?$CD?$CDActor?5Type@		; `string'
PUBLIC	??_C@_0O@LNEOBDIE@Add?5to?5parent@		; `string'
PUBLIC	??_C@_0CI@GLLDHLII@Do?5you?5really?5want?5to?5delete?5th@ ; `string'
PUBLIC	??_C@_0O@DNJANLEO@Actor?5SRTHash@		; `string'
PUBLIC	??_C@_0N@HENDLOKA@?$CD?$CDActor?5Hash@		; `string'
PUBLIC	??_C@_06HFBIHBKM@Merged@			; `string'
PUBLIC	??_C@_0BA@KHNPHCLE@?$CD?$CDActor?5SRTHash@	; `string'
PUBLIC	??_C@_0BF@NKKCHEGA@TransformCameraActor@	; `string'
PUBLIC	??_C@_09MKLAHOHG@Transform@			; `string'
PUBLIC	??_C@_0BA@OOINIOIB@Actor?5to?5camera@		; `string'
PUBLIC	??_C@_0BA@BNGGMDEH@Camera?5to?5actor@		; `string'
PUBLIC	??_C@_0DO@LGHDJFJE@Merged?5actor?5path?5?$CIe?4g?4?5Banc?1Ma@ ; `string'
PUBLIC	??_C@_05DIANJFID@Merge@				; `string'
PUBLIC	??_C@_0O@KNPALHKO@Select?5parent@		; `string'
PUBLIC	??_C@_0BD@PJMJGPKK@Remove?5from?5parent@	; `string'
PUBLIC	??_C@_07JNCECMCG@?$CD?$CDScale@			; `string'
PUBLIC	??_C@_0L@GDLNNEEO@ScalePopUp@			; `string'
PUBLIC	??_C@_0O@HOLLPIH@PhysicsStable@			; `string'
PUBLIC	??_C@_0BE@DLMDPHPE@?$CD?$CDProperty?5Bakeable@	; `string'
PUBLIC	??_C@_0M@EEAFKJJJ@?$CD?$CDTranslate@		; `string'
PUBLIC	??_C@_0P@BKMCNCPF@TranslatePopUp@		; `string'
PUBLIC	??_C@_08FMCBPMJE@?$CD?$CDRotate@		; `string'
PUBLIC	??_C@_0M@OLPDAOIK@RotatePopUp@			; `string'
PUBLIC	??_C@_0BO@LPMPEKAL@?$CD?$CDProperty?5TurnActorNearEnemy@ ; `string'
PUBLIC	??_C@_0BN@GGNBBLJ@?$CD?$CDProperty?5ExtraCreateRadius@ ; `string'
PUBLIC	??_C@_0BD@LNMCKKJ@?$CD?$CDProperty?5InWater@	; `string'
PUBLIC	??_C@_07HFBHINCO@InWater@			; `string'
PUBLIC	??_C@_0M@PJJHHJNK@ForceActive@			; `string'
PUBLIC	??_C@_0BJ@DJHKPEDM@?$CD?$CDProperty?5PhysicsStable@ ; `string'
PUBLIC	??_C@_0BG@LACGKAAA@?$CD?$CDProperty?5MoveRadius@ ; `string'
PUBLIC	??_C@_0BH@MKJNOOAD@?$CD?$CDProperty?5ForceActive@ ; `string'
PUBLIC	??_C@_0BE@EGFGBIPH@Add?$CD?$CDPhivePlacement@	; `string'
PUBLIC	??_C@_0O@CDBIIOEK@Del?$CD?$CDDynamic?5@		; `string'
PUBLIC	??_C@_0P@ODIGDFLE@PhivePlacement@		; `string'
PUBLIC	??_C@_0BE@MGEACPNN@Add?5placement?5entry@	; `string'
PUBLIC	??_C@_0N@OJJGHNBE@DynamicPopUp@			; `string'
PUBLIC	??_C@_0N@MGMOMLAG@Add?$CD?$CDDynamic@		; `string'
PUBLIC	??_C@_0N@HDHKPFOK@UIProperties@			; `string'
PUBLIC	??_C@_0L@PPLFHGEP@?$CD?$CDDynamic?5@		; `string'
PUBLIC	??_C@_0N@HOLBGNEG@Links?$CD?$CDLinks@		; `string'
PUBLIC	??_C@_04PJJKCFIL@Tail@				; `string'
PUBLIC	??_C@_0N@DAJAHGJB@?$CD?$CDLinkSource@		; `string'
PUBLIC	??_C@_09FICDIIOA@Add?$CD?$CDLink@		; `string'
PUBLIC	??_C@_0BF@FHPOLEOD@Del?$CD?$CDPhivePlacement?5@	; `string'
PUBLIC	??_C@_0BC@BIDCFNDG@?$CD?$CDPhivePlacement?5@	; `string'
PUBLIC	??_C@_0M@NLDHEMDJ@Placeholder@			; `string'
PUBLIC	??_C@_04BFCCBDOP@Head@				; `string'
PUBLIC	??_C@_09IEJAJKO@Add?$CD?$CDRail@		; `string'
PUBLIC	??_C@_0N@GMIPLJDO@Rails?$CD?$CDRails@		; `string'
PUBLIC	??_C@_0L@HLDCAHED@?$CD?$CDRailGyml@		; `string'
PUBLIC	??_C@_0BC@NHDICCIM@?$CD?$CDRailDestination@	; `string'
PUBLIC	??_C@_0L@BEHHILCD@?$CD?$CDLinkGyml@		; `string'
PUBLIC	??_C@_0BC@MGKKIKKG@?$CD?$CDLinkDestination@	; `string'
PUBLIC	??_C@_0BA@BLLNBAFK@Delete?$CD?$CDLinkDel@	; `string'
PUBLIC	??_C@_0L@FNAICNGL@?$CD?$CDLinkName@		; `string'
PUBLIC	??_C@_0BK@EKHPMCBP@?$CD?$CDStaticCompoundBakeFluid@ ; `string'
PUBLIC	??_C@_0L@DCEMHENG@Bake?5Fluid@			; `string'
PUBLIC	??_C@_0BL@IKHHEPG@?$CD?$CDStaticCompoundFluidShape@ ; `string'
PUBLIC	??_C@_0M@JGLPOAIA@Fluid?5Shape@			; `string'
PUBLIC	??_C@_0BA@OOEGJBIM@Delete?$CD?$CDRailDel@	; `string'
PUBLIC	??_C@_0L@DCENKBAL@?$CD?$CDRailName@		; `string'
PUBLIC	??_C@_0BG@EDGPFLGB@StaticCompoundColumns@	; `string'
PUBLIC	??_C@_0CG@EHNBNALA@Static?5compound?$CD?$CDStaticCompound@ ; `string'
PUBLIC	??_C@_0BK@GJNIEBHP@?$CD?$CDStaticCompoundFlowSpeed@ ; `string'
PUBLIC	??_C@_0BE@INCMJCBN@Flow?5speed?5?$CIz?9axis?$CJ@ ; `string'
PUBLIC	??_C@_0P@CBJBOJNF@Far?$CD?$CDFarHeader@		; `string'
PUBLIC	??_C@_03DENIJNGB@Far@				; `string'
PUBLIC	??_C@_0BK@IHEFINCD@?$CD?$CDStaticCompoundFluidType@ ; `string'
PUBLIC	??_C@_0L@PLEEFICE@Fluid?5Type@			; `string'
PUBLIC	??_C@_0BK@CGCLGIID@?$CD?$CDStaticCompoundBoxHeight@ ; `string'
PUBLIC	??_C@_0BB@NGFHOOJH@Fluid?5box?5height@		; `string'
PUBLIC	??_C@_0BB@JBPKMBH@Delete?5far?5actor@		; `string'
PUBLIC	??_C@_0P@NEFBAFBN@Far?5actor?5gyml@		; `string'
PUBLIC	??_C@_0BD@JLCAGANM@FarLinkInformation@		; `string'
PUBLIC	??_C@_0BB@GABFEIDA@Select?5far?5actor@		; `string'
PUBLIC	??_C@_04DCFAFOBB@Add?5@				; `string'
PUBLIC	??_C@_0N@NEHAPOJC@_Far?4pack?4zs@		; `string'
PUBLIC	??_C@_0O@IALMMHLG@Add?5far?5actor@		; `string'
PUBLIC	??_C@_0BE@ENCPCLA@Not?5found?$CD?$CDFarActor@	; `string'
PUBLIC	??_C@_0BB@BLCNPPKC@Far?5actor?5linked@		; `string'
PUBLIC	?FirstFrame@UIProperties@@3_NA			; UIProperties::FirstFrame
;	COMDAT ??_C@_0BB@BLCNPPKC@Far?5actor?5linked@
CONST	SEGMENT
??_C@_0BB@BLCNPPKC@Far?5actor?5linked@ DB 'Far actor linked', 00H ; `string'
CONST	ENDS
;	COMDAT ??_C@_0BE@ENCPCLA@Not?5found?$CD?$CDFarActor@
CONST	SEGMENT
??_C@_0BE@ENCPCLA@Not?5found?$CD?$CDFarActor@ DB 'Not found##FarActor', 00H ; `string'
CONST	ENDS
;	COMDAT ??_C@_0O@IALMMHLG@Add?5far?5actor@
CONST	SEGMENT
??_C@_0O@IALMMHLG@Add?5far?5actor@ DB 'Add far actor', 00H ; `string'
CONST	ENDS
;	COMDAT ??_C@_0N@NEHAPOJC@_Far?4pack?4zs@
CONST	SEGMENT
??_C@_0N@NEHAPOJC@_Far?4pack?4zs@ DB '_Far.pack.zs', 00H ; `string'
CONST	ENDS
;	COMDAT ??_C@_04DCFAFOBB@Add?5@
CONST	SEGMENT
??_C@_04DCFAFOBB@Add?5@ DB 'Add ', 00H			; `string'
CONST	ENDS
;	COMDAT ??_C@_0BB@GABFEIDA@Select?5far?5actor@
CONST	SEGMENT
??_C@_0BB@GABFEIDA@Select?5far?5actor@ DB 'Select far actor', 00H ; `string'
CONST	ENDS
;	COMDAT ??_C@_0BD@JLCAGANM@FarLinkInformation@
CONST	SEGMENT
??_C@_0BD@JLCAGANM@FarLinkInformation@ DB 'FarLinkInformation', 00H ; `string'
CONST	ENDS
;	COMDAT ??_C@_0P@NEFBAFBN@Far?5actor?5gyml@
CONST	SEGMENT
??_C@_0P@NEFBAFBN@Far?5actor?5gyml@ DB 'Far actor gyml', 00H ; `string'
CONST	ENDS
;	COMDAT ??_C@_0BB@JBPKMBH@Delete?5far?5actor@
CONST	SEGMENT
??_C@_0BB@JBPKMBH@Delete?5far?5actor@ DB 'Delete far actor', 00H ; `string'
CONST	ENDS
;	COMDAT ??_C@_0BB@NGFHOOJH@Fluid?5box?5height@
CONST	SEGMENT
??_C@_0BB@NGFHOOJH@Fluid?5box?5height@ DB 'Fluid box height', 00H ; `string'
CONST	ENDS
;	COMDAT ??_C@_0BK@CGCLGIID@?$CD?$CDStaticCompoundBoxHeight@
CONST	SEGMENT
??_C@_0BK@CGCLGIID@?$CD?$CDStaticCompoundBoxHeight@ DB '##StaticCompoundB'
	DB	'oxHeight', 00H				; `string'
CONST	ENDS
;	COMDAT ??_C@_0L@PLEEFICE@Fluid?5Type@
CONST	SEGMENT
??_C@_0L@PLEEFICE@Fluid?5Type@ DB 'Fluid Type', 00H	; `string'
CONST	ENDS
;	COMDAT ??_C@_0BK@IHEFINCD@?$CD?$CDStaticCompoundFluidType@
CONST	SEGMENT
??_C@_0BK@IHEFINCD@?$CD?$CDStaticCompoundFluidType@ DB '##StaticCompoundF'
	DB	'luidType', 00H				; `string'
CONST	ENDS
;	COMDAT ??_C@_03DENIJNGB@Far@
CONST	SEGMENT
??_C@_03DENIJNGB@Far@ DB 'Far', 00H			; `string'
CONST	ENDS
;	COMDAT ??_C@_0P@CBJBOJNF@Far?$CD?$CDFarHeader@
CONST	SEGMENT
??_C@_0P@CBJBOJNF@Far?$CD?$CDFarHeader@ DB 'Far##FarHeader', 00H ; `string'
CONST	ENDS
;	COMDAT ??_C@_0BE@INCMJCBN@Flow?5speed?5?$CIz?9axis?$CJ@
CONST	SEGMENT
??_C@_0BE@INCMJCBN@Flow?5speed?5?$CIz?9axis?$CJ@ DB 'Flow speed (z-axis)', 00H ; `string'
CONST	ENDS
;	COMDAT ??_C@_0BK@GJNIEBHP@?$CD?$CDStaticCompoundFlowSpeed@
CONST	SEGMENT
??_C@_0BK@GJNIEBHP@?$CD?$CDStaticCompoundFlowSpeed@ DB '##StaticCompoundF'
	DB	'lowSpeed', 00H				; `string'
CONST	ENDS
;	COMDAT ??_C@_0CG@EHNBNALA@Static?5compound?$CD?$CDStaticCompound@
CONST	SEGMENT
??_C@_0CG@EHNBNALA@Static?5compound?$CD?$CDStaticCompound@ DB 'Static com'
	DB	'pound##StaticCompoundHeader', 00H		; `string'
CONST	ENDS
;	COMDAT ??_C@_0BG@EDGPFLGB@StaticCompoundColumns@
CONST	SEGMENT
??_C@_0BG@EDGPFLGB@StaticCompoundColumns@ DB 'StaticCompoundColumns', 00H ; `string'
CONST	ENDS
;	COMDAT ??_C@_0L@DCENKBAL@?$CD?$CDRailName@
CONST	SEGMENT
??_C@_0L@DCENKBAL@?$CD?$CDRailName@ DB '##RailName', 00H ; `string'
CONST	ENDS
;	COMDAT ??_C@_0BA@OOEGJBIM@Delete?$CD?$CDRailDel@
CONST	SEGMENT
??_C@_0BA@OOEGJBIM@Delete?$CD?$CDRailDel@ DB 'Delete##RailDel', 00H ; `string'
CONST	ENDS
;	COMDAT ??_C@_0M@JGLPOAIA@Fluid?5Shape@
CONST	SEGMENT
??_C@_0M@JGLPOAIA@Fluid?5Shape@ DB 'Fluid Shape', 00H	; `string'
CONST	ENDS
;	COMDAT ??_C@_0BL@IKHHEPG@?$CD?$CDStaticCompoundFluidShape@
CONST	SEGMENT
??_C@_0BL@IKHHEPG@?$CD?$CDStaticCompoundFluidShape@ DB '##StaticCompoundF'
	DB	'luidShape', 00H				; `string'
CONST	ENDS
;	COMDAT ??_C@_0L@DCEMHENG@Bake?5Fluid@
CONST	SEGMENT
??_C@_0L@DCEMHENG@Bake?5Fluid@ DB 'Bake Fluid', 00H	; `string'
CONST	ENDS
;	COMDAT ??_C@_0BK@EKHPMCBP@?$CD?$CDStaticCompoundBakeFluid@
CONST	SEGMENT
??_C@_0BK@EKHPMCBP@?$CD?$CDStaticCompoundBakeFluid@ DB '##StaticCompoundB'
	DB	'akeFluid', 00H				; `string'
CONST	ENDS
;	COMDAT ??_C@_0L@FNAICNGL@?$CD?$CDLinkName@
CONST	SEGMENT
??_C@_0L@FNAICNGL@?$CD?$CDLinkName@ DB '##LinkName', 00H ; `string'
CONST	ENDS
;	COMDAT ??_C@_0BA@BLLNBAFK@Delete?$CD?$CDLinkDel@
CONST	SEGMENT
??_C@_0BA@BLLNBAFK@Delete?$CD?$CDLinkDel@ DB 'Delete##LinkDel', 00H ; `string'
CONST	ENDS
;	COMDAT ??_C@_0BC@MGKKIKKG@?$CD?$CDLinkDestination@
CONST	SEGMENT
??_C@_0BC@MGKKIKKG@?$CD?$CDLinkDestination@ DB '##LinkDestination', 00H ; `string'
CONST	ENDS
;	COMDAT ??_C@_0L@BEHHILCD@?$CD?$CDLinkGyml@
CONST	SEGMENT
??_C@_0L@BEHHILCD@?$CD?$CDLinkGyml@ DB '##LinkGyml', 00H ; `string'
CONST	ENDS
;	COMDAT ??_C@_0BC@NHDICCIM@?$CD?$CDRailDestination@
CONST	SEGMENT
??_C@_0BC@NHDICCIM@?$CD?$CDRailDestination@ DB '##RailDestination', 00H ; `string'
CONST	ENDS
;	COMDAT ??_C@_0L@HLDCAHED@?$CD?$CDRailGyml@
CONST	SEGMENT
??_C@_0L@HLDCAHED@?$CD?$CDRailGyml@ DB '##RailGyml', 00H ; `string'
CONST	ENDS
;	COMDAT ??_C@_0N@GMIPLJDO@Rails?$CD?$CDRails@
CONST	SEGMENT
??_C@_0N@GMIPLJDO@Rails?$CD?$CDRails@ DB 'Rails##Rails', 00H ; `string'
CONST	ENDS
;	COMDAT ??_C@_09IEJAJKO@Add?$CD?$CDRail@
CONST	SEGMENT
??_C@_09IEJAJKO@Add?$CD?$CDRail@ DB 'Add##Rail', 00H	; `string'
CONST	ENDS
;	COMDAT ??_C@_04BFCCBDOP@Head@
CONST	SEGMENT
??_C@_04BFCCBDOP@Head@ DB 'Head', 00H			; `string'
CONST	ENDS
;	COMDAT ??_C@_0M@NLDHEMDJ@Placeholder@
CONST	SEGMENT
??_C@_0M@NLDHEMDJ@Placeholder@ DB 'Placeholder', 00H	; `string'
CONST	ENDS
;	COMDAT ??_C@_0BC@BIDCFNDG@?$CD?$CDPhivePlacement?5@
CONST	SEGMENT
??_C@_0BC@BIDCFNDG@?$CD?$CDPhivePlacement?5@ DB '##PhivePlacement ', 00H ; `string'
CONST	ENDS
;	COMDAT ??_C@_0BF@FHPOLEOD@Del?$CD?$CDPhivePlacement?5@
CONST	SEGMENT
??_C@_0BF@FHPOLEOD@Del?$CD?$CDPhivePlacement?5@ DB 'Del##PhivePlacement ', 00H ; `string'
CONST	ENDS
;	COMDAT ??_C@_09FICDIIOA@Add?$CD?$CDLink@
CONST	SEGMENT
??_C@_09FICDIIOA@Add?$CD?$CDLink@ DB 'Add##Link', 00H	; `string'
CONST	ENDS
;	COMDAT ??_C@_0N@DAJAHGJB@?$CD?$CDLinkSource@
CONST	SEGMENT
??_C@_0N@DAJAHGJB@?$CD?$CDLinkSource@ DB '##LinkSource', 00H ; `string'
CONST	ENDS
;	COMDAT ??_C@_04PJJKCFIL@Tail@
CONST	SEGMENT
??_C@_04PJJKCFIL@Tail@ DB 'Tail', 00H			; `string'
CONST	ENDS
;	COMDAT ??_C@_0N@HOLBGNEG@Links?$CD?$CDLinks@
CONST	SEGMENT
??_C@_0N@HOLBGNEG@Links?$CD?$CDLinks@ DB 'Links##Links', 00H ; `string'
CONST	ENDS
;	COMDAT ??_C@_0L@PPLFHGEP@?$CD?$CDDynamic?5@
CONST	SEGMENT
??_C@_0L@PPLFHGEP@?$CD?$CDDynamic?5@ DB '##Dynamic ', 00H ; `string'
CONST	ENDS
;	COMDAT ??_C@_0N@HDHKPFOK@UIProperties@
CONST	SEGMENT
??_C@_0N@HDHKPFOK@UIProperties@ DB 'UIProperties', 00H	; `string'
CONST	ENDS
;	COMDAT ??_C@_0N@MGMOMLAG@Add?$CD?$CDDynamic@
CONST	SEGMENT
??_C@_0N@MGMOMLAG@Add?$CD?$CDDynamic@ DB 'Add##Dynamic', 00H ; `string'
CONST	ENDS
;	COMDAT ??_C@_0N@OJJGHNBE@DynamicPopUp@
CONST	SEGMENT
??_C@_0N@OJJGHNBE@DynamicPopUp@ DB 'DynamicPopUp', 00H	; `string'
CONST	ENDS
;	COMDAT ??_C@_0BE@MGEACPNN@Add?5placement?5entry@
CONST	SEGMENT
??_C@_0BE@MGEACPNN@Add?5placement?5entry@ DB 'Add placement entry', 00H ; `string'
CONST	ENDS
;	COMDAT ??_C@_0P@ODIGDFLE@PhivePlacement@
CONST	SEGMENT
??_C@_0P@ODIGDFLE@PhivePlacement@ DB 'PhivePlacement', 00H ; `string'
CONST	ENDS
;	COMDAT ??_C@_0O@CDBIIOEK@Del?$CD?$CDDynamic?5@
CONST	SEGMENT
??_C@_0O@CDBIIOEK@Del?$CD?$CDDynamic?5@ DB 'Del##Dynamic ', 00H ; `string'
CONST	ENDS
;	COMDAT ??_C@_0BE@EGFGBIPH@Add?$CD?$CDPhivePlacement@
CONST	SEGMENT
??_C@_0BE@EGFGBIPH@Add?$CD?$CDPhivePlacement@ DB 'Add##PhivePlacement', 00H ; `string'
CONST	ENDS
;	COMDAT ??_C@_0BH@MKJNOOAD@?$CD?$CDProperty?5ForceActive@
CONST	SEGMENT
??_C@_0BH@MKJNOOAD@?$CD?$CDProperty?5ForceActive@ DB '##Property ForceAct'
	DB	'ive', 00H					; `string'
CONST	ENDS
;	COMDAT ??_C@_0BG@LACGKAAA@?$CD?$CDProperty?5MoveRadius@
CONST	SEGMENT
??_C@_0BG@LACGKAAA@?$CD?$CDProperty?5MoveRadius@ DB '##Property MoveRadiu'
	DB	's', 00H					; `string'
CONST	ENDS
;	COMDAT ??_C@_0BJ@DJHKPEDM@?$CD?$CDProperty?5PhysicsStable@
CONST	SEGMENT
??_C@_0BJ@DJHKPEDM@?$CD?$CDProperty?5PhysicsStable@ DB '##Property Physic'
	DB	'sStable', 00H				; `string'
CONST	ENDS
;	COMDAT ??_C@_0M@PJJHHJNK@ForceActive@
CONST	SEGMENT
??_C@_0M@PJJHHJNK@ForceActive@ DB 'ForceActive', 00H	; `string'
CONST	ENDS
;	COMDAT ??_C@_07HFBHINCO@InWater@
CONST	SEGMENT
??_C@_07HFBHINCO@InWater@ DB 'InWater', 00H		; `string'
CONST	ENDS
;	COMDAT ??_C@_0BD@LNMCKKJ@?$CD?$CDProperty?5InWater@
CONST	SEGMENT
??_C@_0BD@LNMCKKJ@?$CD?$CDProperty?5InWater@ DB '##Property InWater', 00H ; `string'
CONST	ENDS
;	COMDAT ??_C@_0BN@GGNBBLJ@?$CD?$CDProperty?5ExtraCreateRadius@
CONST	SEGMENT
??_C@_0BN@GGNBBLJ@?$CD?$CDProperty?5ExtraCreateRadius@ DB '##Property Ext'
	DB	'raCreateRadius', 00H			; `string'
CONST	ENDS
;	COMDAT ??_C@_0BO@LPMPEKAL@?$CD?$CDProperty?5TurnActorNearEnemy@
CONST	SEGMENT
??_C@_0BO@LPMPEKAL@?$CD?$CDProperty?5TurnActorNearEnemy@ DB '##Property T'
	DB	'urnActorNearEnemy', 00H			; `string'
CONST	ENDS
;	COMDAT ??_C@_0M@OLPDAOIK@RotatePopUp@
CONST	SEGMENT
??_C@_0M@OLPDAOIK@RotatePopUp@ DB 'RotatePopUp', 00H	; `string'
CONST	ENDS
;	COMDAT ??_C@_08FMCBPMJE@?$CD?$CDRotate@
CONST	SEGMENT
??_C@_08FMCBPMJE@?$CD?$CDRotate@ DB '##Rotate', 00H	; `string'
CONST	ENDS
;	COMDAT ??_C@_0P@BKMCNCPF@TranslatePopUp@
CONST	SEGMENT
??_C@_0P@BKMCNCPF@TranslatePopUp@ DB 'TranslatePopUp', 00H ; `string'
CONST	ENDS
;	COMDAT ??_C@_0M@EEAFKJJJ@?$CD?$CDTranslate@
CONST	SEGMENT
??_C@_0M@EEAFKJJJ@?$CD?$CDTranslate@ DB '##Translate', 00H ; `string'
CONST	ENDS
;	COMDAT ??_C@_0BE@DLMDPHPE@?$CD?$CDProperty?5Bakeable@
CONST	SEGMENT
??_C@_0BE@DLMDPHPE@?$CD?$CDProperty?5Bakeable@ DB '##Property Bakeable', 00H ; `string'
CONST	ENDS
;	COMDAT ??_C@_0O@HOLLPIH@PhysicsStable@
CONST	SEGMENT
??_C@_0O@HOLLPIH@PhysicsStable@ DB 'PhysicsStable', 00H	; `string'
CONST	ENDS
;	COMDAT ??_C@_0L@GDLNNEEO@ScalePopUp@
CONST	SEGMENT
??_C@_0L@GDLNNEEO@ScalePopUp@ DB 'ScalePopUp', 00H	; `string'
CONST	ENDS
;	COMDAT ??_C@_07JNCECMCG@?$CD?$CDScale@
CONST	SEGMENT
??_C@_07JNCECMCG@?$CD?$CDScale@ DB '##Scale', 00H	; `string'
CONST	ENDS
;	COMDAT ??_C@_0BD@PJMJGPKK@Remove?5from?5parent@
CONST	SEGMENT
??_C@_0BD@PJMJGPKK@Remove?5from?5parent@ DB 'Remove from parent', 00H ; `string'
CONST	ENDS
;	COMDAT ??_C@_0O@KNPALHKO@Select?5parent@
CONST	SEGMENT
??_C@_0O@KNPALHKO@Select?5parent@ DB 'Select parent', 00H ; `string'
CONST	ENDS
;	COMDAT ??_C@_05DIANJFID@Merge@
CONST	SEGMENT
??_C@_05DIANJFID@Merge@ DB 'Merge', 00H			; `string'
CONST	ENDS
;	COMDAT ??_C@_0DO@LGHDJFJE@Merged?5actor?5path?5?$CIe?4g?4?5Banc?1Ma@
CONST	SEGMENT
??_C@_0DO@LGHDJFJE@Merged?5actor?5path?5?$CIe?4g?4?5Banc?1Ma@ DB 'Merged '
	DB	'actor path (e.g. Banc/MainField/Merged/xyz.bcett.byml)', 00H ; `string'
CONST	ENDS
;	COMDAT ??_C@_0BA@BNGGMDEH@Camera?5to?5actor@
CONST	SEGMENT
??_C@_0BA@BNGGMDEH@Camera?5to?5actor@ DB 'Camera to actor', 00H ; `string'
CONST	ENDS
;	COMDAT ??_C@_0BA@OOINIOIB@Actor?5to?5camera@
CONST	SEGMENT
??_C@_0BA@OOINIOIB@Actor?5to?5camera@ DB 'Actor to camera', 00H ; `string'
CONST	ENDS
;	COMDAT ??_C@_09MKLAHOHG@Transform@
CONST	SEGMENT
??_C@_09MKLAHOHG@Transform@ DB 'Transform', 00H		; `string'
CONST	ENDS
;	COMDAT ??_C@_0BF@NKKCHEGA@TransformCameraActor@
CONST	SEGMENT
??_C@_0BF@NKKCHEGA@TransformCameraActor@ DB 'TransformCameraActor', 00H ; `string'
CONST	ENDS
;	COMDAT ??_C@_0BA@KHNPHCLE@?$CD?$CDActor?5SRTHash@
CONST	SEGMENT
??_C@_0BA@KHNPHCLE@?$CD?$CDActor?5SRTHash@ DB '##Actor SRTHash', 00H ; `string'
CONST	ENDS
;	COMDAT ??_C@_06HFBIHBKM@Merged@
CONST	SEGMENT
??_C@_06HFBIHBKM@Merged@ DB 'Merged', 00H		; `string'
CONST	ENDS
;	COMDAT ??_C@_0N@HENDLOKA@?$CD?$CDActor?5Hash@
CONST	SEGMENT
??_C@_0N@HENDLOKA@?$CD?$CDActor?5Hash@ DB '##Actor Hash', 00H ; `string'
CONST	ENDS
;	COMDAT ??_C@_0O@DNJANLEO@Actor?5SRTHash@
CONST	SEGMENT
??_C@_0O@DNJANLEO@Actor?5SRTHash@ DB 'Actor SRTHash', 00H ; `string'
CONST	ENDS
;	COMDAT ??_C@_0CI@GLLDHLII@Do?5you?5really?5want?5to?5delete?5th@
CONST	SEGMENT
??_C@_0CI@GLLDHLII@Do?5you?5really?5want?5to?5delete?5th@ DB 'Do you real'
	DB	'ly want to delete the actor?', 00H		; `string'
CONST	ENDS
;	COMDAT ??_C@_0O@LNEOBDIE@Add?5to?5parent@
CONST	SEGMENT
??_C@_0O@LNEOBDIE@Add?5to?5parent@ DB 'Add to parent', 00H ; `string'
CONST	ENDS
;	COMDAT ??_C@_0N@PDIGHLEH@?$CD?$CDActor?5Type@
CONST	SEGMENT
??_C@_0N@PDIGHLEH@?$CD?$CDActor?5Type@ DB '##Actor Type', 00H ; `string'
CONST	ENDS
;	COMDAT ??_C@_0N@PJFAHGN@Parent?5actor@
CONST	SEGMENT
??_C@_0N@PJFAHGN@Parent?5actor@ DB 'Parent actor', 00H	; `string'
CONST	ENDS
;	COMDAT ??_C@_08OPEIJNOM@Cylinder@
CONST	SEGMENT
??_C@_08OPEIJNOM@Cylinder@ DB 'Cylinder', 00H		; `string'
CONST	ENDS
;	COMDAT ??_C@_0N@BBPKBNHP@?$CD?$CDActor?5Gyml@
CONST	SEGMENT
??_C@_0N@BBPKBNHP@?$CD?$CDActor?5Gyml@ DB '##Actor Gyml', 00H ; `string'
CONST	ENDS
;	COMDAT ??_C@_0L@HBDLGHPN@Actor?5Hash@
CONST	SEGMENT
??_C@_0L@HBDLGHPN@Actor?5Hash@ DB 'Actor Hash', 00H	; `string'
CONST	ENDS
;	COMDAT ??_C@_09JMDABEGI@Driftsand@
CONST	SEGMENT
??_C@_09JMDABEGI@Driftsand@ DB 'Driftsand', 00H		; `string'
CONST	ENDS
;	COMDAT ??_C@_0L@BEBCMECC@Actor?5Gyml@
CONST	SEGMENT
??_C@_0L@BEBCMECC@Actor?5Gyml@ DB 'Actor Gyml', 00H	; `string'
?Open@UIProperties@@3_NA DB 01H				; UIProperties::Open
?FirstFrame@UIProperties@@3_NA DB 01H			; UIProperties::FirstFrame
PUBLIC	??$addressof@ULink@Actor@@@std@@YAPEAULink@Actor@@AEAU12@@Z ; std::addressof<Actor::Link>
PUBLIC	??$addressof@URail@Actor@@@std@@YAPEAURail@Actor@@AEAU12@@Z ; std::addressof<Actor::Rail>
PUBLIC	??$_Refancy@PEAULink@Actor@@$0A@@std@@YAPEAULink@Actor@@PEAU12@@Z ; std::_Refancy<Actor::Link *,0>
PUBLIC	??$_Construct_in_place@ULink@Actor@@U12@@std@@YAXAEAULink@Actor@@$$QEAU12@@Z ; std::_Construct_in_place<Actor::Link,Actor::Link>
PUBLIC	??$_Construct_in_place@URail@Actor@@U12@@std@@YAXAEAURail@Actor@@$$QEAU12@@Z ; std::_Construct_in_place<Actor::Rail,Actor::Rail>
PUBLIC	??$forward@V?$_Tree_unchecked_iterator@V?$_Tree_val@U?$_Tree_simple_types@U?$pair@$$CBV?$basic_string@DU?$char_traits@D@std@@V?$allocator@D@2@@std@@V12@@std@@@std@@@std@@@std@@@std@@YA$$QEAV?$_Tree_unchecked_iterator@V?$_Tree_val@U?$_Tree_simple_types@U?$pair@$$CBV?$basic_string@DU?$char_traits@D@std@@V?$allocator@D@2@@std@@V12@@std@@@std@@@std@@@0@AEAV10@@Z ; std::forward<std::_Tree_unchecked_iterator<std::_Tree_val<std::_Tree_simple_types<std::pair<std::basic_string<char,std::char_traits<char>,std::allocator<char> > const ,std::basic_string<char,std::char_traits<char>,std::allocator<char> > > > > > >
PUBLIC	??$forward@V?$_Tree_unchecked_iterator@V?$_Tree_val@U?$_Tree_simple_types@U?$pair@$$CBV?$basic_string@DU?$char_traits@D@std@@V?$allocator@D@2@@std@@UDynamicData@Actor@@@std@@@std@@@std@@@std@@@std@@YA$$QEAV?$_Tree_unchecked_iterator@V?$_Tree_val@U?$_Tree_simple_types@U?$pair@$$CBV?$basic_string@DU?$char_traits@D@std@@V?$allocator@D@2@@std@@UDynamicData@Actor@@@std@@@std@@@std@@@0@AEAV10@@Z ; std::forward<std::_Tree_unchecked_iterator<std::_Tree_val<std::_Tree_simple_types<std::pair<std::basic_string<char,std::char_traits<char>,std::allocator<char> > const ,Actor::DynamicData> > > > >
PUBLIC	??$forward@AEAPEAULink@Actor@@@std@@YAAEAPEAULink@Actor@@AEAPEAU12@@Z ; std::forward<Actor::Link * &>
PUBLIC	??$_Seek_wrapped@PEAULink@Actor@@AEAPEAU12@@std@@YAXAEAPEAULink@Actor@@0@Z ; std::_Seek_wrapped<Actor::Link *,Actor::Link * &>
PUBLIC	??$_Adl_verify_range@PEAULink@Actor@@PEAU12@@std@@YAXAEBQEAULink@Actor@@0@Z ; std::_Adl_verify_range<Actor::Link *,Actor::Link *>
PUBLIC	?_Seek_to@?$_Vector_const_iterator@V?$_Vector_val@U?$_Simple_types@ULink@Actor@@@std@@@std@@@std@@QEAAXPEBULink@Actor@@@Z ; std::_Vector_const_iterator<std::_Vector_val<std::_Simple_types<Actor::Link> > >::_Seek_to
PUBLIC	?_Seek_to@?$_Tree_const_iterator@V?$_Tree_val@U?$_Tree_simple_types@U?$pair@$$CBV?$basic_string@DU?$char_traits@D@std@@V?$allocator@D@2@@std@@UDynamicData@Actor@@@std@@@std@@@std@@@std@@QEAAXV?$_Tree_unchecked_const_iterator@V?$_Tree_val@U?$_Tree_simple_types@U?$pair@$$CBV?$basic_string@DU?$char_traits@D@std@@V?$allocator@D@2@@std@@UDynamicData@Actor@@@std@@@std@@@std@@U_Iterator_base0@2@@2@@Z ; std::_Tree_const_iterator<std::_Tree_val<std::_Tree_simple_types<std::pair<std::basic_string<char,std::char_traits<char>,std::allocator<char> > const ,Actor::DynamicData> > > >::_Seek_to
PUBLIC	?_Seek_to@?$_Tree_const_iterator@V?$_Tree_val@U?$_Tree_simple_types@U?$pair@$$CBV?$basic_string@DU?$char_traits@D@std@@V?$allocator@D@2@@std@@V12@@std@@@std@@@std@@@std@@QEAAXV?$_Tree_unchecked_const_iterator@V?$_Tree_val@U?$_Tree_simple_types@U?$pair@$$CBV?$basic_string@DU?$char_traits@D@std@@V?$allocator@D@2@@std@@V12@@std@@@std@@@std@@U_Iterator_base0@2@@2@@Z ; std::_Tree_const_iterator<std::_Tree_val<std::_Tree_simple_types<std::pair<std::basic_string<char,std::char_traits<char>,std::allocator<char> > const ,std::basic_string<char,std::char_traits<char>,std::allocator<char> > > > > >::_Seek_to
PUBLIC	??$_Emplace_reallocate@ULink@Actor@@@?$vector@ULink@Actor@@V?$allocator@ULink@Actor@@@std@@@std@@AEAAPEAULink@Actor@@QEAU23@$$QEAU23@@Z ; std::vector<Actor::Link,std::allocator<Actor::Link> >::_Emplace_reallocate<Actor::Link>
PUBLIC	??$_Emplace_back_with_unused_capacity@ULink@Actor@@@?$vector@ULink@Actor@@V?$allocator@ULink@Actor@@@std@@@std@@AEAAAEAULink@Actor@@$$QEAU23@@Z ; std::vector<Actor::Link,std::allocator<Actor::Link> >::_Emplace_back_with_unused_capacity<Actor::Link>
PUBLIC	??$_Emplace_reallocate@URail@Actor@@@?$vector@URail@Actor@@V?$allocator@URail@Actor@@@std@@@std@@AEAAPEAURail@Actor@@QEAU23@$$QEAU23@@Z ; std::vector<Actor::Rail,std::allocator<Actor::Rail> >::_Emplace_reallocate<Actor::Rail>
PUBLIC	??$_Emplace_back_with_unused_capacity@URail@Actor@@@?$vector@URail@Actor@@V?$allocator@URail@Actor@@@std@@@std@@AEAAAEAURail@Actor@@$$QEAU23@@Z ; std::vector<Actor::Rail,std::allocator<Actor::Rail> >::_Emplace_back_with_unused_capacity<Actor::Rail>
PUBLIC	??$_Seek_wrapped@V?$_Tree_iterator@V?$_Tree_val@U?$_Tree_simple_types@U?$pair@$$CBV?$basic_string@DU?$char_traits@D@std@@V?$allocator@D@2@@std@@V12@@std@@@std@@@std@@@std@@V?$_Tree_unchecked_iterator@V?$_Tree_val@U?$_Tree_simple_types@U?$pair@$$CBV?$basic_string@DU?$char_traits@D@std@@V?$allocator@D@2@@std@@V12@@std@@@std@@@std@@@2@@std@@YAXAEAV?$_Tree_iterator@V?$_Tree_val@U?$_Tree_simple_types@U?$pair@$$CBV?$basic_string@DU?$char_traits@D@std@@V?$allocator@D@2@@std@@V12@@std@@@std@@@std@@@0@$$QEAV?$_Tree_unchecked_iterator@V?$_Tree_val@U?$_Tree_simple_types@U?$pair@$$CBV?$basic_string@DU?$char_traits@D@std@@V?$allocator@D@2@@std@@V12@@std@@@std@@@std@@@0@@Z ; std::_Seek_wrapped<std::_Tree_iterator<std::_Tree_val<std::_Tree_simple_types<std::pair<std::basic_string<char,std::char_traits<char>,std::allocator<char> > const ,std::basic_string<char,std::char_traits<char>,std::allocator<char> > > > > >,std::_Tree_unchecked_iterator<std::_Tree_val<std::_Tree_simple_types<std::pair<std::basic_string<char,std::char_traits<char>,std::allocator<char> > const ,std::basic_string<char,std::char_traits<char>,std::allocator<char> > > > > > >
PUBLIC	??$move@AEAV?$_Tree_unchecked_iterator@V?$_Tree_val@U?$_Tree_simple_types@U?$pair@$$CBV?$basic_string@DU?$char_traits@D@std@@V?$allocator@D@2@@std@@V12@@std@@@std@@@std@@@std@@@std@@YA$$QEAV?$_Tree_unchecked_iterator@V?$_Tree_val@U?$_Tree_simple_types@U?$pair@$$CBV?$basic_string@DU?$char_traits@D@std@@V?$allocator@D@2@@std@@V12@@std@@@std@@@std@@@0@AEAV10@@Z ; std::move<std::_Tree_unchecked_iterator<std::_Tree_val<std::_Tree_simple_types<std::pair<std::basic_string<char,std::char_traits<char>,std::allocator<char> > const ,std::basic_string<char,std::char_traits<char>,std::allocator<char> > > > > > &>
PUBLIC	??$move@AEAV?$_Tree_iterator@V?$_Tree_val@U?$_Tree_simple_types@U?$pair@$$CBV?$basic_string@DU?$char_traits@D@std@@V?$allocator@D@2@@std@@V12@@std@@@std@@@std@@@std@@@std@@YA$$QEAV?$_Tree_iterator@V?$_Tree_val@U?$_Tree_simple_types@U?$pair@$$CBV?$basic_string@DU?$char_traits@D@std@@V?$allocator@D@2@@std@@V12@@std@@@std@@@std@@@0@AEAV10@@Z ; std::move<std::_Tree_iterator<std::_Tree_val<std::_Tree_simple_types<std::pair<std::basic_string<char,std::char_traits<char>,std::allocator<char> > const ,std::basic_string<char,std::char_traits<char>,std::allocator<char> > > > > > &>
PUBLIC	??$_Seek_wrapped@V?$_Tree_iterator@V?$_Tree_val@U?$_Tree_simple_types@U?$pair@$$CBV?$basic_string@DU?$char_traits@D@std@@V?$allocator@D@2@@std@@UDynamicData@Actor@@@std@@@std@@@std@@@std@@V?$_Tree_unchecked_iterator@V?$_Tree_val@U?$_Tree_simple_types@U?$pair@$$CBV?$basic_string@DU?$char_traits@D@std@@V?$allocator@D@2@@std@@UDynamicData@Actor@@@std@@@std@@@std@@@2@@std@@YAXAEAV?$_Tree_iterator@V?$_Tree_val@U?$_Tree_simple_types@U?$pair@$$CBV?$basic_string@DU?$char_traits@D@std@@V?$allocator@D@2@@std@@UDynamicData@Actor@@@std@@@std@@@std@@@0@$$QEAV?$_Tree_unchecked_iterator@V?$_Tree_val@U?$_Tree_simple_types@U?$pair@$$CBV?$basic_string@DU?$char_traits@D@std@@V?$allocator@D@2@@std@@UDynamicData@Actor@@@std@@@std@@@std@@@0@@Z ; std::_Seek_wrapped<std::_Tree_iterator<std::_Tree_val<std::_Tree_simple_types<std::pair<std::basic_string<char,std::char_traits<char>,std::allocator<char> > const ,Actor::DynamicData> > > >,std::_Tree_unchecked_iterator<std::_Tree_val<std::_Tree_simple_types<std::pair<std::basic_string<char,std::char_traits<char>,std::allocator<char> > const ,Actor::DynamicData> > > > >
PUBLIC	??$move@AEAV?$_Tree_unchecked_iterator@V?$_Tree_val@U?$_Tree_simple_types@U?$pair@$$CBV?$basic_string@DU?$char_traits@D@std@@V?$allocator@D@2@@std@@UDynamicData@Actor@@@std@@@std@@@std@@@std@@@std@@YA$$QEAV?$_Tree_unchecked_iterator@V?$_Tree_val@U?$_Tree_simple_types@U?$pair@$$CBV?$basic_string@DU?$char_traits@D@std@@V?$allocator@D@2@@std@@UDynamicData@Actor@@@std@@@std@@@std@@@0@AEAV10@@Z ; std::move<std::_Tree_unchecked_iterator<std::_Tree_val<std::_Tree_simple_types<std::pair<std::basic_string<char,std::char_traits<char>,std::allocator<char> > const ,Actor::DynamicData> > > > &>
PUBLIC	??$move@AEAV?$_Tree_iterator@V?$_Tree_val@U?$_Tree_simple_types@U?$pair@$$CBV?$basic_string@DU?$char_traits@D@std@@V?$allocator@D@2@@std@@UDynamicData@Actor@@@std@@@std@@@std@@@std@@@std@@YA$$QEAV?$_Tree_iterator@V?$_Tree_val@U?$_Tree_simple_types@U?$pair@$$CBV?$basic_string@DU?$char_traits@D@std@@V?$allocator@D@2@@std@@UDynamicData@Actor@@@std@@@std@@@std@@@0@AEAV10@@Z ; std::move<std::_Tree_iterator<std::_Tree_val<std::_Tree_simple_types<std::pair<std::basic_string<char,std::char_traits<char>,std::allocator<char> > const ,Actor::DynamicData> > > > &>
PUBLIC	??$_Seek_wrapped@V?$_Vector_iterator@V?$_Vector_val@U?$_Simple_types@ULink@Actor@@@std@@@std@@@std@@AEAPEAULink@Actor@@@std@@YAXAEAV?$_Vector_iterator@V?$_Vector_val@U?$_Simple_types@ULink@Actor@@@std@@@std@@@0@AEAPEAULink@Actor@@@Z ; std::_Seek_wrapped<std::_Vector_iterator<std::_Vector_val<std::_Simple_types<Actor::Link> > >,Actor::Link * &>
PUBLIC	??$_Get_unwrapped@AEAPEAULink@Actor@@@std@@YA?A_TAEAPEAULink@Actor@@@Z ; std::_Get_unwrapped<Actor::Link * &>
PUBLIC	??$_Adl_verify_range@V?$_Vector_iterator@V?$_Vector_val@U?$_Simple_types@ULink@Actor@@@std@@@std@@@std@@V12@@std@@YAXAEBV?$_Vector_iterator@V?$_Vector_val@U?$_Simple_types@ULink@Actor@@@std@@@std@@@0@0@Z ; std::_Adl_verify_range<std::_Vector_iterator<std::_Vector_val<std::_Simple_types<Actor::Link> > >,std::_Vector_iterator<std::_Vector_val<std::_Simple_types<Actor::Link> > > >
PUBLIC	?_Extract@?$_Tree_val@U?$_Tree_simple_types@U?$pair@$$CBV?$basic_string@DU?$char_traits@D@std@@V?$allocator@D@2@@std@@V12@@std@@@std@@@std@@QEAAPEAU?$_Tree_node@U?$pair@$$CBV?$basic_string@DU?$char_traits@D@std@@V?$allocator@D@2@@std@@V12@@std@@PEAX@2@V?$_Tree_unchecked_const_iterator@V?$_Tree_val@U?$_Tree_simple_types@U?$pair@$$CBV?$basic_string@DU?$char_traits@D@std@@V?$allocator@D@2@@std@@V12@@std@@@std@@@std@@U_Iterator_base0@2@@2@@Z ; std::_Tree_val<std::_Tree_simple_types<std::pair<std::basic_string<char,std::char_traits<char>,std::allocator<char> > const ,std::basic_string<char,std::char_traits<char>,std::allocator<char> > > > >::_Extract
PUBLIC	??F?$_Tree_unchecked_const_iterator@V?$_Tree_val@U?$_Tree_simple_types@U?$pair@$$CBV?$basic_string@DU?$char_traits@D@std@@V?$allocator@D@2@@std@@UDynamicData@Actor@@@std@@@std@@@std@@U_Iterator_base0@2@@std@@QEAAAEAV01@XZ ; std::_Tree_unchecked_const_iterator<std::_Tree_val<std::_Tree_simple_types<std::pair<std::basic_string<char,std::char_traits<char>,std::allocator<char> > const ,Actor::DynamicData> > >,std::_Iterator_base0>::operator--
PUBLIC	??F?$_Tree_unchecked_const_iterator@V?$_Tree_val@U?$_Tree_simple_types@U?$pair@$$CBV?$basic_string@DU?$char_traits@D@std@@V?$allocator@D@2@@std@@V12@@std@@@std@@@std@@U_Iterator_base0@2@@std@@QEAAAEAV01@XZ ; std::_Tree_unchecked_const_iterator<std::_Tree_val<std::_Tree_simple_types<std::pair<std::basic_string<char,std::char_traits<char>,std::allocator<char> > const ,std::basic_string<char,std::char_traits<char>,std::allocator<char> > > > >,std::_Iterator_base0>::operator--
PUBLIC	?__autoclassinit2@?$_Tree_unchecked_const_iterator@V?$_Tree_val@U?$_Tree_simple_types@U?$pair@$$CBV?$basic_string@DU?$char_traits@D@std@@V?$allocator@D@2@@std@@V12@@std@@@std@@@std@@U_Iterator_base0@2@@std@@QEAAX_K@Z ; std::_Tree_unchecked_const_iterator<std::_Tree_val<std::_Tree_simple_types<std::pair<std::basic_string<char,std::char_traits<char>,std::allocator<char> > const ,std::basic_string<char,std::char_traits<char>,std::allocator<char> > > > >,std::_Iterator_base0>::__autoclassinit2
PUBLIC	?_Erase_unchecked@?$_Tree@V?$_Tmap_traits@V?$basic_string@DU?$char_traits@D@std@@V?$allocator@D@2@@std@@V12@U?$less@V?$basic_string@DU?$char_traits@D@std@@V?$allocator@D@2@@std@@@2@V?$allocator@U?$pair@$$CBV?$basic_string@DU?$char_traits@D@std@@V?$allocator@D@2@@std@@V12@@std@@@2@$0A@@std@@@std@@AEAAPEAU?$_Tree_node@U?$pair@$$CBV?$basic_string@DU?$char_traits@D@std@@V?$allocator@D@2@@std@@V12@@std@@PEAX@2@V?$_Tree_unchecked_const_iterator@V?$_Tree_val@U?$_Tree_simple_types@U?$pair@$$CBV?$basic_string@DU?$char_traits@D@std@@V?$allocator@D@2@@std@@V12@@std@@@std@@@std@@U_Iterator_base0@2@@2@@Z ; std::_Tree<std::_Tmap_traits<std::basic_string<char,std::char_traits<char>,std::allocator<char> >,std::basic_string<char,std::char_traits<char>,std::allocator<char> >,std::less<std::basic_string<char,std::char_traits<char>,std::allocator<char> > >,std::allocator<std::pair<std::basic_string<char,std::char_traits<char>,std::allocator<char> > const ,std::basic_string<char,std::char_traits<char>,std::allocator<char> > > >,0> >::_Erase_unchecked
PUBLIC	?_Unwrapped@?$_Tree_iterator@V?$_Tree_val@U?$_Tree_simple_types@U?$pair@$$CBV?$basic_string@DU?$char_traits@D@std@@V?$allocator@D@2@@std@@UDynamicData@Actor@@@std@@@std@@@std@@@std@@QEBA?AV?$_Tree_unchecked_iterator@V?$_Tree_val@U?$_Tree_simple_types@U?$pair@$$CBV?$basic_string@DU?$char_traits@D@std@@V?$allocator@D@2@@std@@UDynamicData@Actor@@@std@@@std@@@std@@@2@XZ ; std::_Tree_iterator<std::_Tree_val<std::_Tree_simple_types<std::pair<std::basic_string<char,std::char_traits<char>,std::allocator<char> > const ,Actor::DynamicData> > > >::_Unwrapped
PUBLIC	?_Unwrapped@?$_Tree_iterator@V?$_Tree_val@U?$_Tree_simple_types@U?$pair@$$CBV?$basic_string@DU?$char_traits@D@std@@V?$allocator@D@2@@std@@V12@@std@@@std@@@std@@@std@@QEBA?AV?$_Tree_unchecked_iterator@V?$_Tree_val@U?$_Tree_simple_types@U?$pair@$$CBV?$basic_string@DU?$char_traits@D@std@@V?$allocator@D@2@@std@@V12@@std@@@std@@@std@@@2@XZ ; std::_Tree_iterator<std::_Tree_val<std::_Tree_simple_types<std::pair<std::basic_string<char,std::char_traits<char>,std::allocator<char> > const ,std::basic_string<char,std::char_traits<char>,std::allocator<char> > > > > >::_Unwrapped
PUBLIC	??F?$_Tree_unchecked_iterator@V?$_Tree_val@U?$_Tree_simple_types@U?$pair@$$CBV?$basic_string@DU?$char_traits@D@std@@V?$allocator@D@2@@std@@UDynamicData@Actor@@@std@@@std@@@std@@@std@@QEAAAEAV01@XZ ; std::_Tree_unchecked_iterator<std::_Tree_val<std::_Tree_simple_types<std::pair<std::basic_string<char,std::char_traits<char>,std::allocator<char> > const ,Actor::DynamicData> > > >::operator--
PUBLIC	??F?$_Tree_unchecked_iterator@V?$_Tree_val@U?$_Tree_simple_types@U?$pair@$$CBV?$basic_string@DU?$char_traits@D@std@@V?$allocator@D@2@@std@@V12@@std@@@std@@@std@@@std@@QEAAAEAV01@XZ ; std::_Tree_unchecked_iterator<std::_Tree_val<std::_Tree_simple_types<std::pair<std::basic_string<char,std::char_traits<char>,std::allocator<char> > const ,std::basic_string<char,std::char_traits<char>,std::allocator<char> > > > > >::operator--
PUBLIC	??$_Emplace_one_at_back@ULink@Actor@@@?$vector@ULink@Actor@@V?$allocator@ULink@Actor@@@std@@@std@@AEAAAEAULink@Actor@@$$QEAU23@@Z ; std::vector<Actor::Link,std::allocator<Actor::Link> >::_Emplace_one_at_back<Actor::Link>
PUBLIC	??$_Move_unchecked@PEAULink@Actor@@PEAU12@@std@@YAPEAULink@Actor@@PEAU12@00@Z ; std::_Move_unchecked<Actor::Link *,Actor::Link *>
PUBLIC	??$addressof@V?$_Vector_val@U?$_Simple_types@ULink@Actor@@@std@@@std@@@std@@YAPEAV?$_Vector_val@U?$_Simple_types@ULink@Actor@@@std@@@0@AEAV10@@Z ; std::addressof<std::_Vector_val<std::_Simple_types<Actor::Link> > >
PUBLIC	??$_Emplace_one_at_back@URail@Actor@@@?$vector@URail@Actor@@V?$allocator@URail@Actor@@@std@@@std@@AEAAAEAURail@Actor@@$$QEAU23@@Z ; std::vector<Actor::Rail,std::allocator<Actor::Rail> >::_Emplace_one_at_back<Actor::Rail>
PUBLIC	??4Rail@Actor@@QEAAAEAU01@$$QEAU01@@Z		; Actor::Rail::operator=
PUBLIC	??$_Move_unchecked@PEAURail@Actor@@PEAU12@@std@@YAPEAURail@Actor@@PEAU12@00@Z ; std::_Move_unchecked<Actor::Rail *,Actor::Rail *>
PUBLIC	??$addressof@V?$_Vector_val@U?$_Simple_types@URail@Actor@@@std@@@std@@@std@@YAPEAV?$_Vector_val@U?$_Simple_types@URail@Actor@@@std@@@0@AEAV10@@Z ; std::addressof<std::_Vector_val<std::_Simple_types<Actor::Rail> > >
PUBLIC	??$?0AEAY02$$CBDV?$basic_string@DU?$char_traits@D@std@@V?$allocator@D@2@@std@@$0A@@?$pair@$$CBV?$basic_string@DU?$char_traits@D@std@@V?$allocator@D@2@@std@@V12@@std@@QEAA@AEAY02$$CBD$$QEAV?$basic_string@DU?$char_traits@D@std@@V?$allocator@D@2@@1@@Z ; std::pair<std::basic_string<char,std::char_traits<char>,std::allocator<char> > const ,std::basic_string<char,std::char_traits<char>,std::allocator<char> > >::pair<std::basic_string<char,std::char_traits<char>,std::allocator<char> > const ,std::basic_string<char,std::char_traits<char>,std::allocator<char> > ><char const (&)[3],std::basic_string<char,std::char_traits<char>,std::allocator<char> >,0>
PUBLIC	??$erase@V?$_Tree_iterator@V?$_Tree_val@U?$_Tree_simple_types@U?$pair@$$CBV?$basic_string@DU?$char_traits@D@std@@V?$allocator@D@2@@std@@V12@@std@@@std@@@std@@@std@@$0A@@?$_Tree@V?$_Tmap_traits@V?$basic_string@DU?$char_traits@D@std@@V?$allocator@D@2@@std@@V12@U?$less@V?$basic_string@DU?$char_traits@D@std@@V?$allocator@D@2@@std@@@2@V?$allocator@U?$pair@$$CBV?$basic_string@DU?$char_traits@D@std@@V?$allocator@D@2@@std@@V12@@std@@@2@$0A@@std@@@std@@QEAA?AV?$_Tree_iterator@V?$_Tree_val@U?$_Tree_simple_types@U?$pair@$$CBV?$basic_string@DU?$char_traits@D@std@@V?$allocator@D@2@@std@@V12@@std@@@std@@@std@@@1@V21@@Z ; std::_Tree<std::_Tmap_traits<std::basic_string<char,std::char_traits<char>,std::allocator<char> >,std::basic_string<char,std::char_traits<char>,std::allocator<char> >,std::less<std::basic_string<char,std::char_traits<char>,std::allocator<char> > >,std::allocator<std::pair<std::basic_string<char,std::char_traits<char>,std::allocator<char> > const ,std::basic_string<char,std::char_traits<char>,std::allocator<char> > > >,0> >::erase<std::_Tree_iterator<std::_Tree_val<std::_Tree_simple_types<std::pair<std::basic_string<char,std::char_traits<char>,std::allocator<char> > const ,std::basic_string<char,std::char_traits<char>,std::allocator<char> > > > > >,0>
PUBLIC	??$advance@V?$_Tree_iterator@V?$_Tree_val@U?$_Tree_simple_types@U?$pair@$$CBV?$basic_string@DU?$char_traits@D@std@@V?$allocator@D@2@@std@@V12@@std@@@std@@@std@@@std@@H@std@@YAXAEAV?$_Tree_iterator@V?$_Tree_val@U?$_Tree_simple_types@U?$pair@$$CBV?$basic_string@DU?$char_traits@D@std@@V?$allocator@D@2@@std@@V12@@std@@@std@@@std@@@0@H@Z ; std::advance<std::_Tree_iterator<std::_Tree_val<std::_Tree_simple_types<std::pair<std::basic_string<char,std::char_traits<char>,std::allocator<char> > const ,std::basic_string<char,std::char_traits<char>,std::allocator<char> > > > > >,int>
PUBLIC	??$_Get_unwrapped_n@V?$_Tree_iterator@V?$_Tree_val@U?$_Tree_simple_types@U?$pair@$$CBV?$basic_string@DU?$char_traits@D@std@@V?$allocator@D@2@@std@@V12@@std@@@std@@@std@@@std@@H@std@@YA?A_T$$QEAV?$_Tree_iterator@V?$_Tree_val@U?$_Tree_simple_types@U?$pair@$$CBV?$basic_string@DU?$char_traits@D@std@@V?$allocator@D@2@@std@@V12@@std@@@std@@@std@@@0@H@Z ; std::_Get_unwrapped_n<std::_Tree_iterator<std::_Tree_val<std::_Tree_simple_types<std::pair<std::basic_string<char,std::char_traits<char>,std::allocator<char> > const ,std::basic_string<char,std::char_traits<char>,std::allocator<char> > > > > >,int>
PUBLIC	??$?0AEAV?$basic_string@DU?$char_traits@D@std@@V?$allocator@D@2@@std@@AEAV01@$0A@@?$pair@$$CBV?$basic_string@DU?$char_traits@D@std@@V?$allocator@D@2@@std@@V12@@std@@QEAA@AEAV?$basic_string@DU?$char_traits@D@std@@V?$allocator@D@2@@1@0@Z ; std::pair<std::basic_string<char,std::char_traits<char>,std::allocator<char> > const ,std::basic_string<char,std::char_traits<char>,std::allocator<char> > >::pair<std::basic_string<char,std::char_traits<char>,std::allocator<char> > const ,std::basic_string<char,std::char_traits<char>,std::allocator<char> > ><std::basic_string<char,std::char_traits<char>,std::allocator<char> > &,std::basic_string<char,std::char_traits<char>,std::allocator<char> > &,0>
PUBLIC	??$erase@V?$_Tree_iterator@V?$_Tree_val@U?$_Tree_simple_types@U?$pair@$$CBV?$basic_string@DU?$char_traits@D@std@@V?$allocator@D@2@@std@@UDynamicData@Actor@@@std@@@std@@@std@@@std@@$0A@@?$_Tree@V?$_Tmap_traits@V?$basic_string@DU?$char_traits@D@std@@V?$allocator@D@2@@std@@UDynamicData@Actor@@U?$less@V?$basic_string@DU?$char_traits@D@std@@V?$allocator@D@2@@std@@@2@V?$allocator@U?$pair@$$CBV?$basic_string@DU?$char_traits@D@std@@V?$allocator@D@2@@std@@UDynamicData@Actor@@@std@@@2@$0A@@std@@@std@@QEAA?AV?$_Tree_iterator@V?$_Tree_val@U?$_Tree_simple_types@U?$pair@$$CBV?$basic_string@DU?$char_traits@D@std@@V?$allocator@D@2@@std@@UDynamicData@Actor@@@std@@@std@@@std@@@1@V21@@Z ; std::_Tree<std::_Tmap_traits<std::basic_string<char,std::char_traits<char>,std::allocator<char> >,Actor::DynamicData,std::less<std::basic_string<char,std::char_traits<char>,std::allocator<char> > >,std::allocator<std::pair<std::basic_string<char,std::char_traits<char>,std::allocator<char> > const ,Actor::DynamicData> >,0> >::erase<std::_Tree_iterator<std::_Tree_val<std::_Tree_simple_types<std::pair<std::basic_string<char,std::char_traits<char>,std::allocator<char> > const ,Actor::DynamicData> > > >,0>
PUBLIC	??$advance@V?$_Tree_iterator@V?$_Tree_val@U?$_Tree_simple_types@U?$pair@$$CBV?$basic_string@DU?$char_traits@D@std@@V?$allocator@D@2@@std@@UDynamicData@Actor@@@std@@@std@@@std@@@std@@H@std@@YAXAEAV?$_Tree_iterator@V?$_Tree_val@U?$_Tree_simple_types@U?$pair@$$CBV?$basic_string@DU?$char_traits@D@std@@V?$allocator@D@2@@std@@UDynamicData@Actor@@@std@@@std@@@std@@@0@H@Z ; std::advance<std::_Tree_iterator<std::_Tree_val<std::_Tree_simple_types<std::pair<std::basic_string<char,std::char_traits<char>,std::allocator<char> > const ,Actor::DynamicData> > > >,int>
PUBLIC	??$_Get_unwrapped_n@V?$_Tree_iterator@V?$_Tree_val@U?$_Tree_simple_types@U?$pair@$$CBV?$basic_string@DU?$char_traits@D@std@@V?$allocator@D@2@@std@@UDynamicData@Actor@@@std@@@std@@@std@@@std@@H@std@@YA?A_T$$QEAV?$_Tree_iterator@V?$_Tree_val@U?$_Tree_simple_types@U?$pair@$$CBV?$basic_string@DU?$char_traits@D@std@@V?$allocator@D@2@@std@@UDynamicData@Actor@@@std@@@std@@@std@@@0@H@Z ; std::_Get_unwrapped_n<std::_Tree_iterator<std::_Tree_val<std::_Tree_simple_types<std::pair<std::basic_string<char,std::char_traits<char>,std::allocator<char> > const ,Actor::DynamicData> > > >,int>
PUBLIC	??$<move>@AEAV?$basic_string@DU?$char_traits@D@std@@V?$allocator@D@2@@std@@@@YA$$QEAV?$basic_string@DU?$char_traits@D@std@@V?$allocator@D@2@@std@@AEAV01@@Z ; <move><std::basic_string<char,std::char_traits<char>,std::allocator<char> > &>
PUBLIC	??4Link@Actor@@QEAAAEAU01@$$QEAU01@@Z		; Actor::Link::operator=
PUBLIC	?_Unwrapped@?$_Vector_iterator@V?$_Vector_val@U?$_Simple_types@ULink@Actor@@@std@@@std@@@std@@QEBAPEAULink@Actor@@XZ ; std::_Vector_iterator<std::_Vector_val<std::_Simple_types<Actor::Link> > >::_Unwrapped
PUBLIC	??$_Get_unwrapped@AEBV?$_Vector_iterator@V?$_Vector_val@U?$_Simple_types@ULink@Actor@@@std@@@std@@@std@@@std@@YA?A_TAEBV?$_Vector_iterator@V?$_Vector_val@U?$_Simple_types@ULink@Actor@@@std@@@std@@@0@@Z ; std::_Get_unwrapped<std::_Vector_iterator<std::_Vector_val<std::_Simple_types<Actor::Link> > > const &>
PUBLIC	??$_Get_unwrapped@AEAV?$_Vector_iterator@V?$_Vector_val@U?$_Simple_types@ULink@Actor@@@std@@@std@@@std@@@std@@YA?A_TAEAV?$_Vector_iterator@V?$_Vector_val@U?$_Simple_types@ULink@Actor@@@std@@@std@@@0@@Z ; std::_Get_unwrapped<std::_Vector_iterator<std::_Vector_val<std::_Simple_types<Actor::Link> > > &>
PUBLIC	?_Verify_offset@?$_Vector_const_iterator@V?$_Vector_val@U?$_Simple_types@ULink@Actor@@@std@@@std@@@std@@QEBAX_J@Z ; std::_Vector_const_iterator<std::_Vector_val<std::_Simple_types<Actor::Link> > >::_Verify_offset
PUBLIC	?_Verify_offset@?$_Vector_const_iterator@V?$_Vector_val@U?$_Simple_types@URail@Actor@@@std@@@std@@@std@@QEBAX_J@Z ; std::_Vector_const_iterator<std::_Vector_val<std::_Simple_types<Actor::Rail> > >::_Verify_offset
PUBLIC	??Y?$_Vector_const_iterator@V?$_Vector_val@U?$_Simple_types@ULink@Actor@@@std@@@std@@@std@@QEAAAEAV01@_J@Z ; std::_Vector_const_iterator<std::_Vector_val<std::_Simple_types<Actor::Link> > >::operator+=
PUBLIC	??D?$_Tree_const_iterator@V?$_Tree_val@U?$_Tree_simple_types@U?$pair@$$CBV?$basic_string@DU?$char_traits@D@std@@V?$allocator@D@2@@std@@UDynamicData@Actor@@@std@@@std@@@std@@@std@@QEBAAEBU?$pair@$$CBV?$basic_string@DU?$char_traits@D@std@@V?$allocator@D@2@@std@@UDynamicData@Actor@@@1@XZ ; std::_Tree_const_iterator<std::_Tree_val<std::_Tree_simple_types<std::pair<std::basic_string<char,std::char_traits<char>,std::allocator<char> > const ,Actor::DynamicData> > > >::operator*
PUBLIC	??D?$_Tree_const_iterator@V?$_Tree_val@U?$_Tree_simple_types@U?$pair@$$CBV?$basic_string@DU?$char_traits@D@std@@V?$allocator@D@2@@std@@V12@@std@@@std@@@std@@@std@@QEBAAEBU?$pair@$$CBV?$basic_string@DU?$char_traits@D@std@@V?$allocator@D@2@@std@@V12@@1@XZ ; std::_Tree_const_iterator<std::_Tree_val<std::_Tree_simple_types<std::pair<std::basic_string<char,std::char_traits<char>,std::allocator<char> > const ,std::basic_string<char,std::char_traits<char>,std::allocator<char> > > > > >::operator*
PUBLIC	??Y?$_Vector_const_iterator@V?$_Vector_val@U?$_Simple_types@URail@Actor@@@std@@@std@@@std@@QEAAAEAV01@_J@Z ; std::_Vector_const_iterator<std::_Vector_val<std::_Simple_types<Actor::Rail> > >::operator+=
PUBLIC	??0?$_Vector_const_iterator@V?$_Vector_val@U?$_Simple_types@ULink@Actor@@@std@@@std@@@std@@QEAA@PEAULink@Actor@@PEBU_Container_base0@1@@Z ; std::_Vector_const_iterator<std::_Vector_val<std::_Simple_types<Actor::Link> > >::_Vector_const_iterator<std::_Vector_val<std::_Simple_types<Actor::Link> > >
PUBLIC	??Y?$_Vector_iterator@V?$_Vector_val@U?$_Simple_types@ULink@Actor@@@std@@@std@@@std@@QEAAAEAV01@_J@Z ; std::_Vector_iterator<std::_Vector_val<std::_Simple_types<Actor::Link> > >::operator+=
PUBLIC	??D?$_Tree_iterator@V?$_Tree_val@U?$_Tree_simple_types@U?$pair@$$CBV?$basic_string@DU?$char_traits@D@std@@V?$allocator@D@2@@std@@UDynamicData@Actor@@@std@@@std@@@std@@@std@@QEBAAEAU?$pair@$$CBV?$basic_string@DU?$char_traits@D@std@@V?$allocator@D@2@@std@@UDynamicData@Actor@@@1@XZ ; std::_Tree_iterator<std::_Tree_val<std::_Tree_simple_types<std::pair<std::basic_string<char,std::char_traits<char>,std::allocator<char> > const ,Actor::DynamicData> > > >::operator*
PUBLIC	??D?$_Tree_iterator@V?$_Tree_val@U?$_Tree_simple_types@U?$pair@$$CBV?$basic_string@DU?$char_traits@D@std@@V?$allocator@D@2@@std@@V12@@std@@@std@@@std@@@std@@QEBAAEAU?$pair@$$CBV?$basic_string@DU?$char_traits@D@std@@V?$allocator@D@2@@std@@V12@@1@XZ ; std::_Tree_iterator<std::_Tree_val<std::_Tree_simple_types<std::pair<std::basic_string<char,std::char_traits<char>,std::allocator<char> > const ,std::basic_string<char,std::char_traits<char>,std::allocator<char> > > > > >::operator*
PUBLIC	??0?$_Vector_const_iterator@V?$_Vector_val@U?$_Simple_types@URail@Actor@@@std@@@std@@@std@@QEAA@PEAURail@Actor@@PEBU_Container_base0@1@@Z ; std::_Vector_const_iterator<std::_Vector_val<std::_Simple_types<Actor::Rail> > >::_Vector_const_iterator<std::_Vector_val<std::_Simple_types<Actor::Rail> > >
PUBLIC	??Y?$_Vector_iterator@V?$_Vector_val@U?$_Simple_types@URail@Actor@@@std@@@std@@@std@@QEAAAEAV01@_J@Z ; std::_Vector_iterator<std::_Vector_val<std::_Simple_types<Actor::Rail> > >::operator+=
PUBLIC	?pointer_to@?$pointer_traits@PEAU?$pair@$$CBV?$basic_string@DU?$char_traits@D@std@@V?$allocator@D@2@@std@@V12@@std@@@std@@SAPEAU?$pair@$$CBV?$basic_string@DU?$char_traits@D@std@@V?$allocator@D@2@@std@@V12@@2@AEAU32@@Z ; std::pointer_traits<std::pair<std::basic_string<char,std::char_traits<char>,std::allocator<char> > const ,std::basic_string<char,std::char_traits<char>,std::allocator<char> > > *>::pointer_to
PUBLIC	?pointer_to@?$pointer_traits@PEAU?$pair@$$CBV?$basic_string@DU?$char_traits@D@std@@V?$allocator@D@2@@std@@UDynamicData@Actor@@@std@@@std@@SAPEAU?$pair@$$CBV?$basic_string@DU?$char_traits@D@std@@V?$allocator@D@2@@std@@UDynamicData@Actor@@@2@AEAU32@@Z ; std::pointer_traits<std::pair<std::basic_string<char,std::char_traits<char>,std::allocator<char> > const ,Actor::DynamicData> *>::pointer_to
PUBLIC	?__autoclassinit2@?$_Vector_iterator@V?$_Vector_val@U?$_Simple_types@ULink@Actor@@@std@@@std@@@std@@QEAAX_K@Z ; std::_Vector_iterator<std::_Vector_val<std::_Simple_types<Actor::Link> > >::__autoclassinit2
PUBLIC	?__autoclassinit2@?$_Vector_iterator@V?$_Vector_val@U?$_Simple_types@URail@Actor@@@std@@@std@@@std@@QEAAX_K@Z ; std::_Vector_iterator<std::_Vector_val<std::_Simple_types<Actor::Rail> > >::__autoclassinit2
PUBLIC	?begin@?$_Tree@V?$_Tmap_traits@V?$basic_string@DU?$char_traits@D@std@@V?$allocator@D@2@@std@@V12@U?$less@V?$basic_string@DU?$char_traits@D@std@@V?$allocator@D@2@@std@@@2@V?$allocator@U?$pair@$$CBV?$basic_string@DU?$char_traits@D@std@@V?$allocator@D@2@@std@@V12@@std@@@2@$0A@@std@@@std@@QEAA?AV?$_Tree_iterator@V?$_Tree_val@U?$_Tree_simple_types@U?$pair@$$CBV?$basic_string@DU?$char_traits@D@std@@V?$allocator@D@2@@std@@V12@@std@@@std@@@std@@@2@XZ ; std::_Tree<std::_Tmap_traits<std::basic_string<char,std::char_traits<char>,std::allocator<char> >,std::basic_string<char,std::char_traits<char>,std::allocator<char> >,std::less<std::basic_string<char,std::char_traits<char>,std::allocator<char> > >,std::allocator<std::pair<std::basic_string<char,std::char_traits<char>,std::allocator<char> > const ,std::basic_string<char,std::char_traits<char>,std::allocator<char> > > >,0> >::begin
PUBLIC	?size@?$_Tree@V?$_Tmap_traits@V?$basic_string@DU?$char_traits@D@std@@V?$allocator@D@2@@std@@V12@U?$less@V?$basic_string@DU?$char_traits@D@std@@V?$allocator@D@2@@std@@@2@V?$allocator@U?$pair@$$CBV?$basic_string@DU?$char_traits@D@std@@V?$allocator@D@2@@std@@V12@@std@@@2@$0A@@std@@@std@@QEBA_KXZ ; std::_Tree<std::_Tmap_traits<std::basic_string<char,std::char_traits<char>,std::allocator<char> >,std::basic_string<char,std::char_traits<char>,std::allocator<char> >,std::less<std::basic_string<char,std::char_traits<char>,std::allocator<char> > >,std::allocator<std::pair<std::basic_string<char,std::char_traits<char>,std::allocator<char> > const ,std::basic_string<char,std::char_traits<char>,std::allocator<char> > > >,0> >::size
PUBLIC	?push_back@?$vector@ULink@Actor@@V?$allocator@ULink@Actor@@@std@@@std@@QEAAX$$QEAULink@Actor@@@Z ; std::vector<Actor::Link,std::allocator<Actor::Link> >::push_back
PUBLIC	?erase@?$vector@ULink@Actor@@V?$allocator@ULink@Actor@@@std@@@std@@QEAA?AV?$_Vector_iterator@V?$_Vector_val@U?$_Simple_types@ULink@Actor@@@std@@@std@@@2@V?$_Vector_const_iterator@V?$_Vector_val@U?$_Simple_types@ULink@Actor@@@std@@@std@@@2@@Z ; std::vector<Actor::Link,std::allocator<Actor::Link> >::erase
PUBLIC	?erase@?$vector@ULink@Actor@@V?$allocator@ULink@Actor@@@std@@@std@@QEAA?AV?$_Vector_iterator@V?$_Vector_val@U?$_Simple_types@ULink@Actor@@@std@@@std@@@2@V?$_Vector_const_iterator@V?$_Vector_val@U?$_Simple_types@ULink@Actor@@@std@@@std@@@2@0@Z ; std::vector<Actor::Link,std::allocator<Actor::Link> >::erase
PUBLIC	?begin@?$vector@ULink@Actor@@V?$allocator@ULink@Actor@@@std@@@std@@QEAA?AV?$_Vector_iterator@V?$_Vector_val@U?$_Simple_types@ULink@Actor@@@std@@@std@@@2@XZ ; std::vector<Actor::Link,std::allocator<Actor::Link> >::begin
PUBLIC	??0?$_Vector_iterator@V?$_Vector_val@U?$_Simple_types@ULink@Actor@@@std@@@std@@@std@@QEAA@PEAULink@Actor@@PEBU_Container_base0@1@@Z ; std::_Vector_iterator<std::_Vector_val<std::_Simple_types<Actor::Link> > >::_Vector_iterator<std::_Vector_val<std::_Simple_types<Actor::Link> > >
PUBLIC	?end@?$vector@ULink@Actor@@V?$allocator@ULink@Actor@@@std@@@std@@QEAA?AV?$_Vector_iterator@V?$_Vector_val@U?$_Simple_types@ULink@Actor@@@std@@@std@@@2@XZ ; std::vector<Actor::Link,std::allocator<Actor::Link> >::end
PUBLIC	?size@?$vector@ULink@Actor@@V?$allocator@ULink@Actor@@@std@@@std@@QEBA_KXZ ; std::vector<Actor::Link,std::allocator<Actor::Link> >::size
PUBLIC	??A?$vector@ULink@Actor@@V?$allocator@ULink@Actor@@@std@@@std@@QEAAAEAULink@Actor@@_K@Z ; std::vector<Actor::Link,std::allocator<Actor::Link> >::operator[]
PUBLIC	?push_back@?$vector@URail@Actor@@V?$allocator@URail@Actor@@@std@@@std@@QEAAX$$QEAURail@Actor@@@Z ; std::vector<Actor::Rail,std::allocator<Actor::Rail> >::push_back
PUBLIC	?erase@?$vector@URail@Actor@@V?$allocator@URail@Actor@@@std@@@std@@QEAA?AV?$_Vector_iterator@V?$_Vector_val@U?$_Simple_types@URail@Actor@@@std@@@std@@@2@V?$_Vector_const_iterator@V?$_Vector_val@U?$_Simple_types@URail@Actor@@@std@@@std@@@2@@Z ; std::vector<Actor::Rail,std::allocator<Actor::Rail> >::erase
PUBLIC	??0?$_Vector_iterator@V?$_Vector_val@U?$_Simple_types@URail@Actor@@@std@@@std@@@std@@QEAA@PEAURail@Actor@@PEBU_Container_base0@1@@Z ; std::_Vector_iterator<std::_Vector_val<std::_Simple_types<Actor::Rail> > >::_Vector_iterator<std::_Vector_val<std::_Simple_types<Actor::Rail> > >
PUBLIC	?begin@?$vector@URail@Actor@@V?$allocator@URail@Actor@@@std@@@std@@QEAA?AV?$_Vector_iterator@V?$_Vector_val@U?$_Simple_types@URail@Actor@@@std@@@std@@@2@XZ ; std::vector<Actor::Rail,std::allocator<Actor::Rail> >::begin
PUBLIC	?size@?$vector@URail@Actor@@V?$allocator@URail@Actor@@@std@@@std@@QEBA_KXZ ; std::vector<Actor::Rail,std::allocator<Actor::Rail> >::size
PUBLIC	??A?$vector@URail@Actor@@V?$allocator@URail@Actor@@@std@@@std@@QEAAAEAURail@Actor@@_K@Z ; std::vector<Actor::Rail,std::allocator<Actor::Rail> >::operator[]
PUBLIC	?begin@?$_Tree@V?$_Tmap_traits@V?$basic_string@DU?$char_traits@D@std@@V?$allocator@D@2@@std@@UDynamicData@Actor@@U?$less@V?$basic_string@DU?$char_traits@D@std@@V?$allocator@D@2@@std@@@2@V?$allocator@U?$pair@$$CBV?$basic_string@DU?$char_traits@D@std@@V?$allocator@D@2@@std@@UDynamicData@Actor@@@std@@@2@$0A@@std@@@std@@QEAA?AV?$_Tree_iterator@V?$_Tree_val@U?$_Tree_simple_types@U?$pair@$$CBV?$basic_string@DU?$char_traits@D@std@@V?$allocator@D@2@@std@@UDynamicData@Actor@@@std@@@std@@@std@@@2@XZ ; std::_Tree<std::_Tmap_traits<std::basic_string<char,std::char_traits<char>,std::allocator<char> >,Actor::DynamicData,std::less<std::basic_string<char,std::char_traits<char>,std::allocator<char> > >,std::allocator<std::pair<std::basic_string<char,std::char_traits<char>,std::allocator<char> > const ,Actor::DynamicData> >,0> >::begin
PUBLIC	?size@?$_Tree@V?$_Tmap_traits@V?$basic_string@DU?$char_traits@D@std@@V?$allocator@D@2@@std@@UDynamicData@Actor@@U?$less@V?$basic_string@DU?$char_traits@D@std@@V?$allocator@D@2@@std@@@2@V?$allocator@U?$pair@$$CBV?$basic_string@DU?$char_traits@D@std@@V?$allocator@D@2@@std@@UDynamicData@Actor@@@std@@@2@$0A@@std@@@std@@QEBA_KXZ ; std::_Tree<std::_Tmap_traits<std::basic_string<char,std::char_traits<char>,std::allocator<char> >,Actor::DynamicData,std::less<std::basic_string<char,std::char_traits<char>,std::allocator<char> > >,std::allocator<std::pair<std::basic_string<char,std::char_traits<char>,std::allocator<char> > const ,Actor::DynamicData> >,0> >::size
PUBLIC	?back@?$vector@UActor@@V?$allocator@UActor@@@std@@@std@@QEAAAEAUActor@@XZ ; std::vector<Actor,std::allocator<Actor> >::back
PUBLIC	??H?$_Vector_iterator@V?$_Vector_val@U?$_Simple_types@ULink@Actor@@@std@@@std@@@std@@QEBA?AV01@_J@Z ; std::_Vector_iterator<std::_Vector_val<std::_Simple_types<Actor::Link> > >::operator+
PUBLIC	??C?$_Tree_iterator@V?$_Tree_val@U?$_Tree_simple_types@U?$pair@$$CBV?$basic_string@DU?$char_traits@D@std@@V?$allocator@D@2@@std@@UDynamicData@Actor@@@std@@@std@@@std@@@std@@QEBAPEAU?$pair@$$CBV?$basic_string@DU?$char_traits@D@std@@V?$allocator@D@2@@std@@UDynamicData@Actor@@@1@XZ ; std::_Tree_iterator<std::_Tree_val<std::_Tree_simple_types<std::pair<std::basic_string<char,std::char_traits<char>,std::allocator<char> > const ,Actor::DynamicData> > > >::operator->
PUBLIC	??C?$_Tree_iterator@V?$_Tree_val@U?$_Tree_simple_types@U?$pair@$$CBV?$basic_string@DU?$char_traits@D@std@@V?$allocator@D@2@@std@@V12@@std@@@std@@@std@@@std@@QEBAPEAU?$pair@$$CBV?$basic_string@DU?$char_traits@D@std@@V?$allocator@D@2@@std@@V12@@1@XZ ; std::_Tree_iterator<std::_Tree_val<std::_Tree_simple_types<std::pair<std::basic_string<char,std::char_traits<char>,std::allocator<char> > const ,std::basic_string<char,std::char_traits<char>,std::allocator<char> > > > > >::operator->
PUBLIC	??H?$_Vector_iterator@V?$_Vector_val@U?$_Simple_types@URail@Actor@@@std@@@std@@@std@@QEBA?AV01@_J@Z ; std::_Vector_iterator<std::_Vector_val<std::_Simple_types<Actor::Rail> > >::operator+
PUBLIC	?__autoclassinit2@?$_Tree_iterator@V?$_Tree_val@U?$_Tree_simple_types@U?$pair@$$CBV?$basic_string@DU?$char_traits@D@std@@V?$allocator@D@2@@std@@V12@@std@@@std@@@std@@@std@@QEAAX_K@Z ; std::_Tree_iterator<std::_Tree_val<std::_Tree_simple_types<std::pair<std::basic_string<char,std::char_traits<char>,std::allocator<char> > const ,std::basic_string<char,std::char_traits<char>,std::allocator<char> > > > > >::__autoclassinit2
PUBLIC	?__autoclassinit2@?$_Tree_iterator@V?$_Tree_val@U?$_Tree_simple_types@U?$pair@$$CBV?$basic_string@DU?$char_traits@D@std@@V?$allocator@D@2@@std@@UDynamicData@Actor@@@std@@@std@@@std@@@std@@QEAAX_K@Z ; std::_Tree_iterator<std::_Tree_val<std::_Tree_simple_types<std::pair<std::basic_string<char,std::char_traits<char>,std::allocator<char> > const ,Actor::DynamicData> > > >::__autoclassinit2
PUBLIC	?DrawPropertiesWindow@UIProperties@@YAXXZ	; UIProperties::DrawPropertiesWindow
PUBLIC	?mFluidShapes@UIProperties@@3V?$vector@PEBDV?$allocator@PEBD@std@@@std@@A ; UIProperties::mFluidShapes
PUBLIC	?mFluidTypes@UIProperties@@3V?$vector@PEBDV?$allocator@PEBD@std@@@std@@A ; UIProperties::mFluidTypes
?mFluidShapes@UIProperties@@3V?$vector@PEBDV?$allocator@PEBD@std@@@std@@A DB 018H DUP (?) ; UIProperties::mFluidShapes
?mFluidTypes@UIProperties@@3V?$vector@PEBDV?$allocator@PEBD@std@@@std@@A DB 018H DUP (?) ; UIProperties::mFluidTypes
_BSS	ENDS
;	COMDAT pdata
pdata	SEGMENT
$pdata$??$_Emplace_reallocate@ULink@Actor@@@?$vector@ULink@Actor@@V?$allocator@ULink@Actor@@@std@@@std@@AEAAPEAULink@Actor@@QEAU23@$$QEAU23@@Z DD imagerel $LN104
	DD	imagerel $LN104+118
	DD	imagerel $unwind$??$_Emplace_reallocate@ULink@Actor@@@?$vector@ULink@Actor@@V?$allocator@ULink@Actor@@@std@@@std@@AEAAPEAULink@Actor@@QEAU23@$$QEAU23@@Z
pdata	ENDS
;	COMDAT pdata
pdata	SEGMENT
$pdata$1$??$_Emplace_reallocate@ULink@Actor@@@?$vector@ULink@Actor@@V?$allocator@ULink@Actor@@@std@@@std@@AEAAPEAULink@Actor@@QEAU23@$$QEAU23@@Z DD imagerel $LN104+118
	DD	imagerel $LN104+405
	DD	imagerel $chain$1$??$_Emplace_reallocate@ULink@Actor@@@?$vector@ULink@Actor@@V?$allocator@ULink@Actor@@@std@@@std@@AEAAPEAULink@Actor@@QEAU23@$$QEAU23@@Z
pdata	ENDS
;	COMDAT pdata
pdata	SEGMENT
$pdata$2$??$_Emplace_reallocate@ULink@Actor@@@?$vector@ULink@Actor@@V?$allocator@ULink@Actor@@@std@@@std@@AEAAPEAULink@Actor@@QEAU23@$$QEAU23@@Z DD imagerel $LN104+405
	DD	imagerel $LN104+411
	DD	imagerel $chain$2$??$_Emplace_reallocate@ULink@Actor@@@?$vector@ULink@Actor@@V?$allocator@ULink@Actor@@@std@@@std@@AEAAPEAULink@Actor@@QEAU23@$$QEAU23@@Z
pdata	ENDS
;	COMDAT pdata
pdata	SEGMENT
$pdata$??$_Emplace_reallocate@URail@Actor@@@?$vector@URail@Actor@@V?$allocator@URail@Actor@@@std@@@std@@AEAAPEAURail@Actor@@QEAU23@$$QEAU23@@Z DD imagerel $LN104
	DD	imagerel $LN104+118
	DD	imagerel $unwind$??$_Emplace_reallocate@URail@Actor@@@?$vector@URail@Actor@@V?$allocator@URail@Actor@@@std@@@std@@AEAAPEAURail@Actor@@QEAU23@$$QEAU23@@Z
pdata	ENDS
;	COMDAT pdata
pdata	SEGMENT
$pdata$1$??$_Emplace_reallocate@URail@Actor@@@?$vector@URail@Actor@@V?$allocator@URail@Actor@@@std@@@std@@AEAAPEAURail@Actor@@QEAU23@$$QEAU23@@Z DD imagerel $LN104+118
	DD	imagerel $LN104+393
	DD	imagerel $chain$1$??$_Emplace_reallocate@URail@Actor@@@?$vector@URail@Actor@@V?$allocator@URail@Actor@@@std@@@std@@AEAAPEAURail@Actor@@QEAU23@$$QEAU23@@Z
pdata	ENDS
;	COMDAT pdata
pdata	SEGMENT
$pdata$2$??$_Emplace_reallocate@URail@Actor@@@?$vector@URail@Actor@@V?$allocator@URail@Actor@@@std@@@std@@AEAAPEAURail@Actor@@QEAU23@$$QEAU23@@Z DD imagerel $LN104+393
	DD	imagerel $LN104+399
	DD	imagerel $chain$2$??$_Emplace_reallocate@URail@Actor@@@?$vector@URail@Actor@@V?$allocator@URail@Actor@@@std@@@std@@AEAAPEAURail@Actor@@QEAU23@$$QEAU23@@Z
pdata	ENDS
;	COMDAT pdata
pdata	SEGMENT
$pdata$??$find_if@PEAUActor@@V<lambda_4>@?EG@??DrawPropertiesWindow@UIProperties@@YAXXZ@@std@@YAPEAUActor@@PEAU1@QEAU1@V<lambda_4>@?EG@??DrawPropertiesWindow@UIProperties@@YAXXZ@@Z DD imagerel ??$find_if@PEAUActor@@V<lambda_4>@?EG@??DrawPropertiesWindow@UIProperties@@YAXXZ@@std@@YAPEAUActor@@PEAU1@QEAU1@V<lambda_4>@?EG@??DrawPropertiesWindow@UIProperties@@YAXXZ@@Z
	DD	imagerel ??$find_if@PEAUActor@@V<lambda_4>@?EG@??DrawPropertiesWindow@UIProperties@@YAXXZ@@std@@YAPEAUActor@@PEAU1@QEAU1@V<lambda_4>@?EG@??DrawPropertiesWindow@UIProperties@@YAXXZ@@Z+22
	DD	imagerel $unwind$??$find_if@PEAUActor@@V<lambda_4>@?EG@??DrawPropertiesWindow@UIProperties@@YAXXZ@@std@@YAPEAUActor@@PEAU1@QEAU1@V<lambda_4>@?EG@??DrawPropertiesWindow@UIProperties@@YAXXZ@@Z
pdata	ENDS
;	COMDAT pdata
pdata	SEGMENT
$pdata$3$??$find_if@PEAUActor@@V<lambda_4>@?EG@??DrawPropertiesWindow@UIProperties@@YAXXZ@@std@@YAPEAUActor@@PEAU1@QEAU1@V<lambda_4>@?EG@??DrawPropertiesWindow@UIProperties@@YAXXZ@@Z DD imagerel ??$find_if@PEAUActor@@V<lambda_4>@?EG@??DrawPropertiesWindow@UIProperties@@YAXXZ@@std@@YAPEAUActor@@PEAU1@QEAU1@V<lambda_4>@?EG@??DrawPropertiesWindow@UIProperties@@YAXXZ@@Z+22
	DD	imagerel ??$find_if@PEAUActor@@V<lambda_4>@?EG@??DrawPropertiesWindow@UIProperties@@YAXXZ@@std@@YAPEAUActor@@PEAU1@QEAU1@V<lambda_4>@?EG@??DrawPropertiesWindow@UIProperties@@YAXXZ@@Z+170
	DD	imagerel $chain$3$??$find_if@PEAUActor@@V<lambda_4>@?EG@??DrawPropertiesWindow@UIProperties@@YAXXZ@@std@@YAPEAUActor@@PEAU1@QEAU1@V<lambda_4>@?EG@??DrawPropertiesWindow@UIProperties@@YAXXZ@@Z
pdata	ENDS
;	COMDAT pdata
pdata	SEGMENT
$pdata$4$??$find_if@PEAUActor@@V<lambda_4>@?EG@??DrawPropertiesWindow@UIProperties@@YAXXZ@@std@@YAPEAUActor@@PEAU1@QEAU1@V<lambda_4>@?EG@??DrawPropertiesWindow@UIProperties@@YAXXZ@@Z DD imagerel ??$find_if@PEAUActor@@V<lambda_4>@?EG@??DrawPropertiesWindow@UIProperties@@YAXXZ@@std@@YAPEAUActor@@PEAU1@QEAU1@V<lambda_4>@?EG@??DrawPropertiesWindow@UIProperties@@YAXXZ@@Z+170
	DD	imagerel ??$find_if@PEAUActor@@V<lambda_4>@?EG@??DrawPropertiesWindow@UIProperties@@YAXXZ@@std@@YAPEAUActor@@PEAU1@QEAU1@V<lambda_4>@?EG@??DrawPropertiesWindow@UIProperties@@YAXXZ@@Z+180
	DD	imagerel $chain$4$??$find_if@PEAUActor@@V<lambda_4>@?EG@??DrawPropertiesWindow@UIProperties@@YAXXZ@@std@@YAPEAUActor@@PEAU1@QEAU1@V<lambda_4>@?EG@??DrawPropertiesWindow@UIProperties@@YAXXZ@@Z
pdata	ENDS
;	COMDAT pdata
pdata	SEGMENT
$pdata$??$find_if@PEAUActor@@V<lambda_1>@?BB@???R<lambda_3>@?EB@??DrawPropertiesWindow@UIProperties@@YAXXZ@QEBA@V?$basic_string@DU?$char_traits@D@std@@V?$allocator@D@2@@std@@@Z@@std@@YAPEAUActor@@PEAU1@QEAU1@V<lambda_1>@?BB@???R<lambda_3>@?EB@??DrawPropertiesWindow@UIProperties@@YAXXZ@QEBA@V?$basic_string@DU?$char_traits@D@std@@V?$allocator@D@2@@0@@Z@@Z DD imagerel ??$find_if@PEAUActor@@V<lambda_1>@?BB@???R<lambda_3>@?EB@??DrawPropertiesWindow@UIProperties@@YAXXZ@QEBA@V?$basic_string@DU?$char_traits@D@std@@V?$allocator@D@2@@std@@@Z@@std@@YAPEAUActor@@PEAU1@QEAU1@V<lambda_1>@?BB@???R<lambda_3>@?EB@??DrawPropertiesWindow@UIProperties@@YAXXZ@QEBA@V?$basic_string@DU?$char_traits@D@std@@V?$allocator@D@2@@0@@Z@@Z
	DD	imagerel ??$find_if@PEAUActor@@V<lambda_1>@?BB@???R<lambda_3>@?EB@??DrawPropertiesWindow@UIProperties@@YAXXZ@QEBA@V?$basic_string@DU?$char_traits@D@std@@V?$allocator@D@2@@std@@@Z@@std@@YAPEAUActor@@PEAU1@QEAU1@V<lambda_1>@?BB@???R<lambda_3>@?EB@??DrawPropertiesWindow@UIProperties@@YAXXZ@QEBA@V?$basic_string@DU?$char_traits@D@std@@V?$allocator@D@2@@0@@Z@@Z+96
	DD	imagerel $unwind$??$find_if@PEAUActor@@V<lambda_1>@?BB@???R<lambda_3>@?EB@??DrawPropertiesWindow@UIProperties@@YAXXZ@QEBA@V?$basic_string@DU?$char_traits@D@std@@V?$allocator@D@2@@std@@@Z@@std@@YAPEAUActor@@PEAU1@QEAU1@V<lambda_1>@?BB@???R<lambda_3>@?EB@??DrawPropertiesWindow@UIProperties@@YAXXZ@QEBA@V?$basic_string@DU?$char_traits@D@std@@V?$allocator@D@2@@0@@Z@@Z
pdata	ENDS
;	COMDAT pdata
pdata	SEGMENT
$pdata$?_Extract@?$_Tree_val@U?$_Tree_simple_types@U?$pair@$$CBV?$basic_string@DU?$char_traits@D@std@@V?$allocator@D@2@@std@@V12@@std@@@std@@@std@@QEAAPEAU?$_Tree_node@U?$pair@$$CBV?$basic_string@DU?$char_traits@D@std@@V?$allocator@D@2@@std@@V12@@std@@PEAX@2@V?$_Tree_unchecked_const_iterator@V?$_Tree_val@U?$_Tree_simple_types@U?$pair@$$CBV?$basic_string@DU?$char_traits@D@std@@V?$allocator@D@2@@std@@V12@@std@@@std@@@std@@U_Iterator_base0@2@@2@@Z DD imagerel $LN156
	DD	imagerel $LN156+435
	DD	imagerel $unwind$?_Extract@?$_Tree_val@U?$_Tree_simple_types@U?$pair@$$CBV?$basic_string@DU?$char_traits@D@std@@V?$allocator@D@2@@std@@V12@@std@@@std@@@std@@QEAAPEAU?$_Tree_node@U?$pair@$$CBV?$basic_string@DU?$char_traits@D@std@@V?$allocator@D@2@@std@@V12@@std@@PEAX@2@V?$_Tree_unchecked_const_iterator@V?$_Tree_val@U?$_Tree_simple_types@U?$pair@$$CBV?$basic_string@DU?$char_traits@D@std@@V?$allocator@D@2@@std@@V12@@std@@@std@@@std@@U_Iterator_base0@2@@2@@Z
pdata	ENDS
;	COMDAT pdata
pdata	SEGMENT
$pdata$0$?_Extract@?$_Tree_val@U?$_Tree_simple_types@U?$pair@$$CBV?$basic_string@DU?$char_traits@D@std@@V?$allocator@D@2@@std@@V12@@std@@@std@@@std@@QEAAPEAU?$_Tree_node@U?$pair@$$CBV?$basic_string@DU?$char_traits@D@std@@V?$allocator@D@2@@std@@V12@@std@@PEAX@2@V?$_Tree_unchecked_const_iterator@V?$_Tree_val@U?$_Tree_simple_types@U?$pair@$$CBV?$basic_string@DU?$char_traits@D@std@@V?$allocator@D@2@@std@@V12@@std@@@std@@@std@@U_Iterator_base0@2@@2@@Z DD imagerel $LN156+435
	DD	imagerel $LN156+935
	DD	imagerel $chain$0$?_Extract@?$_Tree_val@U?$_Tree_simple_types@U?$pair@$$CBV?$basic_string@DU?$char_traits@D@std@@V?$allocator@D@2@@std@@V12@@std@@@std@@@std@@QEAAPEAU?$_Tree_node@U?$pair@$$CBV?$basic_string@DU?$char_traits@D@std@@V?$allocator@D@2@@std@@V12@@std@@PEAX@2@V?$_Tree_unchecked_const_iterator@V?$_Tree_val@U?$_Tree_simple_types@U?$pair@$$CBV?$basic_string@DU?$char_traits@D@std@@V?$allocator@D@2@@std@@V12@@std@@@std@@@std@@U_Iterator_base0@2@@2@@Z
pdata	ENDS
;	COMDAT pdata
pdata	SEGMENT
$pdata$1$?_Extract@?$_Tree_val@U?$_Tree_simple_types@U?$pair@$$CBV?$basic_string@DU?$char_traits@D@std@@V?$allocator@D@2@@std@@V12@@std@@@std@@@std@@QEAAPEAU?$_Tree_node@U?$pair@$$CBV?$basic_string@DU?$char_traits@D@std@@V?$allocator@D@2@@std@@V12@@std@@PEAX@2@V?$_Tree_unchecked_const_iterator@V?$_Tree_val@U?$_Tree_simple_types@U?$pair@$$CBV?$basic_string@DU?$char_traits@D@std@@V?$allocator@D@2@@std@@V12@@std@@@std@@@std@@U_Iterator_base0@2@@2@@Z DD imagerel $LN156+935
	DD	imagerel $LN156+970
	DD	imagerel $chain$1$?_Extract@?$_Tree_val@U?$_Tree_simple_types@U?$pair@$$CBV?$basic_string@DU?$char_traits@D@std@@V?$allocator@D@2@@std@@V12@@std@@@std@@@std@@QEAAPEAU?$_Tree_node@U?$pair@$$CBV?$basic_string@DU?$char_traits@D@std@@V?$allocator@D@2@@std@@V12@@std@@PEAX@2@V?$_Tree_unchecked_const_iterator@V?$_Tree_val@U?$_Tree_simple_types@U?$pair@$$CBV?$basic_string@DU?$char_traits@D@std@@V?$allocator@D@2@@std@@V12@@std@@@std@@@std@@U_Iterator_base0@2@@2@@Z
pdata	ENDS
;	COMDAT pdata
pdata	SEGMENT
$pdata$?_Erase_unchecked@?$_Tree@V?$_Tmap_traits@V?$basic_string@DU?$char_traits@D@std@@V?$allocator@D@2@@std@@V12@U?$less@V?$basic_string@DU?$char_traits@D@std@@V?$allocator@D@2@@std@@@2@V?$allocator@U?$pair@$$CBV?$basic_string@DU?$char_traits@D@std@@V?$allocator@D@2@@std@@V12@@std@@@2@$0A@@std@@@std@@AEAAPEAU?$_Tree_node@U?$pair@$$CBV?$basic_string@DU?$char_traits@D@std@@V?$allocator@D@2@@std@@V12@@std@@PEAX@2@V?$_Tree_unchecked_const_iterator@V?$_Tree_val@U?$_Tree_simple_types@U?$pair@$$CBV?$basic_string@DU?$char_traits@D@std@@V?$allocator@D@2@@std@@V12@@std@@@std@@@std@@U_Iterator_base0@2@@2@@Z DD imagerel $LN93
	DD	imagerel $LN93+154
	DD	imagerel $unwind$?_Erase_unchecked@?$_Tree@V?$_Tmap_traits@V?$basic_string@DU?$char_traits@D@std@@V?$allocator@D@2@@std@@V12@U?$less@V?$basic_string@DU?$char_traits@D@std@@V?$allocator@D@2@@std@@@2@V?$allocator@U?$pair@$$CBV?$basic_string@DU?$char_traits@D@std@@V?$allocator@D@2@@std@@V12@@std@@@2@$0A@@std@@@std@@AEAAPEAU?$_Tree_node@U?$pair@$$CBV?$basic_string@DU?$char_traits@D@std@@V?$allocator@D@2@@std@@V12@@std@@PEAX@2@V?$_Tree_unchecked_const_iterator@V?$_Tree_val@U?$_Tree_simple_types@U?$pair@$$CBV?$basic_string@DU?$char_traits@D@std@@V?$allocator@D@2@@std@@V12@@std@@@std@@@std@@U_Iterator_base0@2@@2@@Z
pdata	ENDS
;	COMDAT pdata
pdata	SEGMENT
$pdata$??$_Move_unchecked@PEAULink@Actor@@PEAU12@@std@@YAPEAULink@Actor@@PEAU12@00@Z DD imagerel $LN17
	DD	imagerel $LN17+21
	DD	imagerel $unwind$??$_Move_unchecked@PEAULink@Actor@@PEAU12@@std@@YAPEAULink@Actor@@PEAU12@00@Z
pdata	ENDS
;	COMDAT pdata
pdata	SEGMENT
$pdata$0$??$_Move_unchecked@PEAULink@Actor@@PEAU12@@std@@YAPEAULink@Actor@@PEAU12@00@Z DD imagerel $LN17+21
	DD	imagerel $LN17+94
	DD	imagerel $chain$0$??$_Move_unchecked@PEAULink@Actor@@PEAU12@@std@@YAPEAULink@Actor@@PEAU12@00@Z
pdata	ENDS
;	COMDAT pdata
pdata	SEGMENT
$pdata$1$??$_Move_unchecked@PEAULink@Actor@@PEAU12@@std@@YAPEAULink@Actor@@PEAU12@00@Z DD imagerel $LN17+94
	DD	imagerel $LN17+108
	DD	imagerel $chain$1$??$_Move_unchecked@PEAULink@Actor@@PEAU12@@std@@YAPEAULink@Actor@@PEAU12@00@Z
pdata	ENDS
;	COMDAT pdata
pdata	SEGMENT
$pdata$??4Rail@Actor@@QEAAAEAU01@$$QEAU01@@Z DD imagerel $LN5
	DD	imagerel $LN5+62
	DD	imagerel $unwind$??4Rail@Actor@@QEAAAEAU01@$$QEAU01@@Z
pdata	ENDS
;	COMDAT pdata
pdata	SEGMENT
$pdata$??$_Move_unchecked@PEAURail@Actor@@PEAU12@@std@@YAPEAURail@Actor@@PEAU12@00@Z DD imagerel $LN17
	DD	imagerel $LN17+29
	DD	imagerel $unwind$??$_Move_unchecked@PEAURail@Actor@@PEAU12@@std@@YAPEAURail@Actor@@PEAU12@00@Z
pdata	ENDS
;	COMDAT pdata
pdata	SEGMENT
$pdata$0$??$_Move_unchecked@PEAURail@Actor@@PEAU12@@std@@YAPEAURail@Actor@@PEAU12@00@Z DD imagerel $LN17+29
	DD	imagerel $LN17+84
	DD	imagerel $chain$0$??$_Move_unchecked@PEAURail@Actor@@PEAU12@@std@@YAPEAURail@Actor@@PEAU12@00@Z
pdata	ENDS
;	COMDAT pdata
pdata	SEGMENT
$pdata$1$??$_Move_unchecked@PEAURail@Actor@@PEAU12@@std@@YAPEAURail@Actor@@PEAU12@00@Z DD imagerel $LN17+84
	DD	imagerel $LN17+103
	DD	imagerel $chain$1$??$_Move_unchecked@PEAURail@Actor@@PEAU12@@std@@YAPEAURail@Actor@@PEAU12@00@Z
pdata	ENDS
;	COMDAT pdata
pdata	SEGMENT
$pdata$??$remove_if@V?$_Vector_iterator@V?$_Vector_val@U?$_Simple_types@ULink@Actor@@@std@@@std@@@std@@V<lambda_10>@?NP@??DrawPropertiesWindow@UIProperties@@YAXXZ@@std@@YA?AV?$_Vector_iterator@V?$_Vector_val@U?$_Simple_types@ULink@Actor@@@std@@@std@@@0@V10@V10@V<lambda_10>@?NP@??DrawPropertiesWindow@UIProperties@@YAXXZ@@Z DD imagerel ??$remove_if@V?$_Vector_iterator@V?$_Vector_val@U?$_Simple_types@ULink@Actor@@@std@@@std@@@std@@V<lambda_10>@?NP@??DrawPropertiesWindow@UIProperties@@YAXXZ@@std@@YA?AV?$_Vector_iterator@V?$_Vector_val@U?$_Simple_types@ULink@Actor@@@std@@@std@@@0@V10@V10@V<lambda_10>@?NP@??DrawPropertiesWindow@UIProperties@@YAXXZ@@Z
	DD	imagerel ??$remove_if@V?$_Vector_iterator@V?$_Vector_val@U?$_Simple_types@ULink@Actor@@@std@@@std@@@std@@V<lambda_10>@?NP@??DrawPropertiesWindow@UIProperties@@YAXXZ@@std@@YA?AV?$_Vector_iterator@V?$_Vector_val@U?$_Simple_types@ULink@Actor@@@std@@@std@@@0@V10@V10@V<lambda_10>@?NP@??DrawPropertiesWindow@UIProperties@@YAXXZ@@Z+67
	DD	imagerel $unwind$??$remove_if@V?$_Vector_iterator@V?$_Vector_val@U?$_Simple_types@ULink@Actor@@@std@@@std@@@std@@V<lambda_10>@?NP@??DrawPropertiesWindow@UIProperties@@YAXXZ@@std@@YA?AV?$_Vector_iterator@V?$_Vector_val@U?$_Simple_types@ULink@Actor@@@std@@@std@@@0@V10@V10@V<lambda_10>@?NP@??DrawPropertiesWindow@UIProperties@@YAXXZ@@Z
pdata	ENDS
;	COMDAT pdata
pdata	SEGMENT
$pdata$0$??$remove_if@V?$_Vector_iterator@V?$_Vector_val@U?$_Simple_types@ULink@Actor@@@std@@@std@@@std@@V<lambda_10>@?NP@??DrawPropertiesWindow@UIProperties@@YAXXZ@@std@@YA?AV?$_Vector_iterator@V?$_Vector_val@U?$_Simple_types@ULink@Actor@@@std@@@std@@@0@V10@V10@V<lambda_10>@?NP@??DrawPropertiesWindow@UIProperties@@YAXXZ@@Z DD imagerel ??$remove_if@V?$_Vector_iterator@V?$_Vector_val@U?$_Simple_types@ULink@Actor@@@std@@@std@@@std@@V<lambda_10>@?NP@??DrawPropertiesWindow@UIProperties@@YAXXZ@@std@@YA?AV?$_Vector_iterator@V?$_Vector_val@U?$_Simple_types@ULink@Actor@@@std@@@std@@@0@V10@V10@V<lambda_10>@?NP@??DrawPropertiesWindow@UIProperties@@YAXXZ@@Z+67
	DD	imagerel ??$remove_if@V?$_Vector_iterator@V?$_Vector_val@U?$_Simple_types@ULink@Actor@@@std@@@std@@@std@@V<lambda_10>@?NP@??DrawPropertiesWindow@UIProperties@@YAXXZ@@std@@YA?AV?$_Vector_iterator@V?$_Vector_val@U?$_Simple_types@ULink@Actor@@@std@@@std@@@0@V10@V10@V<lambda_10>@?NP@??DrawPropertiesWindow@UIProperties@@YAXXZ@@Z+147
	DD	imagerel $chain$0$??$remove_if@V?$_Vector_iterator@V?$_Vector_val@U?$_Simple_types@ULink@Actor@@@std@@@std@@@std@@V<lambda_10>@?NP@??DrawPropertiesWindow@UIProperties@@YAXXZ@@std@@YA?AV?$_Vector_iterator@V?$_Vector_val@U?$_Simple_types@ULink@Actor@@@std@@@std@@@0@V10@V10@V<lambda_10>@?NP@??DrawPropertiesWindow@UIProperties@@YAXXZ@@Z
pdata	ENDS
;	COMDAT pdata
pdata	SEGMENT
$pdata$1$??$remove_if@V?$_Vector_iterator@V?$_Vector_val@U?$_Simple_types@ULink@Actor@@@std@@@std@@@std@@V<lambda_10>@?NP@??DrawPropertiesWindow@UIProperties@@YAXXZ@@std@@YA?AV?$_Vector_iterator@V?$_Vector_val@U?$_Simple_types@ULink@Actor@@@std@@@std@@@0@V10@V10@V<lambda_10>@?NP@??DrawPropertiesWindow@UIProperties@@YAXXZ@@Z DD imagerel ??$remove_if@V?$_Vector_iterator@V?$_Vector_val@U?$_Simple_types@ULink@Actor@@@std@@@std@@@std@@V<lambda_10>@?NP@??DrawPropertiesWindow@UIProperties@@YAXXZ@@std@@YA?AV?$_Vector_iterator@V?$_Vector_val@U?$_Simple_types@ULink@Actor@@@std@@@std@@@0@V10@V10@V<lambda_10>@?NP@??DrawPropertiesWindow@UIProperties@@YAXXZ@@Z+147
	DD	imagerel ??$remove_if@V?$_Vector_iterator@V?$_Vector_val@U?$_Simple_types@ULink@Actor@@@std@@@std@@@std@@V<lambda_10>@?NP@??DrawPropertiesWindow@UIProperties@@YAXXZ@@std@@YA?AV?$_Vector_iterator@V?$_Vector_val@U?$_Simple_types@ULink@Actor@@@std@@@std@@@0@V10@V10@V<lambda_10>@?NP@??DrawPropertiesWindow@UIProperties@@YAXXZ@@Z+177
	DD	imagerel $chain$1$??$remove_if@V?$_Vector_iterator@V?$_Vector_val@U?$_Simple_types@ULink@Actor@@@std@@@std@@@std@@V<lambda_10>@?NP@??DrawPropertiesWindow@UIProperties@@YAXXZ@@std@@YA?AV?$_Vector_iterator@V?$_Vector_val@U?$_Simple_types@ULink@Actor@@@std@@@std@@@0@V10@V10@V<lambda_10>@?NP@??DrawPropertiesWindow@UIProperties@@YAXXZ@@Z
pdata	ENDS
;	COMDAT pdata
pdata	SEGMENT
$pdata$2$??$remove_if@V?$_Vector_iterator@V?$_Vector_val@U?$_Simple_types@ULink@Actor@@@std@@@std@@@std@@V<lambda_10>@?NP@??DrawPropertiesWindow@UIProperties@@YAXXZ@@std@@YA?AV?$_Vector_iterator@V?$_Vector_val@U?$_Simple_types@ULink@Actor@@@std@@@std@@@0@V10@V10@V<lambda_10>@?NP@??DrawPropertiesWindow@UIProperties@@YAXXZ@@Z DD imagerel ??$remove_if@V?$_Vector_iterator@V?$_Vector_val@U?$_Simple_types@ULink@Actor@@@std@@@std@@@std@@V<lambda_10>@?NP@??DrawPropertiesWindow@UIProperties@@YAXXZ@@std@@YA?AV?$_Vector_iterator@V?$_Vector_val@U?$_Simple_types@ULink@Actor@@@std@@@std@@@0@V10@V10@V<lambda_10>@?NP@??DrawPropertiesWindow@UIProperties@@YAXXZ@@Z+177
	DD	imagerel ??$remove_if@V?$_Vector_iterator@V?$_Vector_val@U?$_Simple_types@ULink@Actor@@@std@@@std@@@std@@V<lambda_10>@?NP@??DrawPropertiesWindow@UIProperties@@YAXXZ@@std@@YA?AV?$_Vector_iterator@V?$_Vector_val@U?$_Simple_types@ULink@Actor@@@std@@@std@@@0@V10@V10@V<lambda_10>@?NP@??DrawPropertiesWindow@UIProperties@@YAXXZ@@Z+182
	DD	imagerel $chain$2$??$remove_if@V?$_Vector_iterator@V?$_Vector_val@U?$_Simple_types@ULink@Actor@@@std@@@std@@@std@@V<lambda_10>@?NP@??DrawPropertiesWindow@UIProperties@@YAXXZ@@std@@YA?AV?$_Vector_iterator@V?$_Vector_val@U?$_Simple_types@ULink@Actor@@@std@@@std@@@0@V10@V10@V<lambda_10>@?NP@??DrawPropertiesWindow@UIProperties@@YAXXZ@@Z
pdata	ENDS
;	COMDAT pdata
pdata	SEGMENT
$pdata$3$??$remove_if@V?$_Vector_iterator@V?$_Vector_val@U?$_Simple_types@ULink@Actor@@@std@@@std@@@std@@V<lambda_10>@?NP@??DrawPropertiesWindow@UIProperties@@YAXXZ@@std@@YA?AV?$_Vector_iterator@V?$_Vector_val@U?$_Simple_types@ULink@Actor@@@std@@@std@@@0@V10@V10@V<lambda_10>@?NP@??DrawPropertiesWindow@UIProperties@@YAXXZ@@Z DD imagerel ??$remove_if@V?$_Vector_iterator@V?$_Vector_val@U?$_Simple_types@ULink@Actor@@@std@@@std@@@std@@V<lambda_10>@?NP@??DrawPropertiesWindow@UIProperties@@YAXXZ@@std@@YA?AV?$_Vector_iterator@V?$_Vector_val@U?$_Simple_types@ULink@Actor@@@std@@@std@@@0@V10@V10@V<lambda_10>@?NP@??DrawPropertiesWindow@UIProperties@@YAXXZ@@Z+182
	DD	imagerel ??$remove_if@V?$_Vector_iterator@V?$_Vector_val@U?$_Simple_types@ULink@Actor@@@std@@@std@@@std@@V<lambda_10>@?NP@??DrawPropertiesWindow@UIProperties@@YAXXZ@@std@@YA?AV?$_Vector_iterator@V?$_Vector_val@U?$_Simple_types@ULink@Actor@@@std@@@std@@@0@V10@V10@V<lambda_10>@?NP@??DrawPropertiesWindow@UIProperties@@YAXXZ@@Z+187
	DD	imagerel $chain$3$??$remove_if@V?$_Vector_iterator@V?$_Vector_val@U?$_Simple_types@ULink@Actor@@@std@@@std@@@std@@V<lambda_10>@?NP@??DrawPropertiesWindow@UIProperties@@YAXXZ@@std@@YA?AV?$_Vector_iterator@V?$_Vector_val@U?$_Simple_types@ULink@Actor@@@std@@@std@@@0@V10@V10@V<lambda_10>@?NP@??DrawPropertiesWindow@UIProperties@@YAXXZ@@Z
pdata	ENDS
;	COMDAT pdata
pdata	SEGMENT
$pdata$??$?0AEAY02$$CBDV?$basic_string@DU?$char_traits@D@std@@V?$allocator@D@2@@std@@$0A@@?$pair@$$CBV?$basic_string@DU?$char_traits@D@std@@V?$allocator@D@2@@std@@V12@@std@@QEAA@AEAY02$$CBD$$QEAV?$basic_string@DU?$char_traits@D@std@@V?$allocator@D@2@@1@@Z DD imagerel $LN55
	DD	imagerel $LN55+117
	DD	imagerel $unwind$??$?0AEAY02$$CBDV?$basic_string@DU?$char_traits@D@std@@V?$allocator@D@2@@std@@$0A@@?$pair@$$CBV?$basic_string@DU?$char_traits@D@std@@V?$allocator@D@2@@std@@V12@@std@@QEAA@AEAY02$$CBD$$QEAV?$basic_string@DU?$char_traits@D@std@@V?$allocator@D@2@@1@@Z
pdata	ENDS
;	COMDAT pdata
pdata	SEGMENT
$pdata$??$erase@V?$_Tree_iterator@V?$_Tree_val@U?$_Tree_simple_types@U?$pair@$$CBV?$basic_string@DU?$char_traits@D@std@@V?$allocator@D@2@@std@@V12@@std@@@std@@@std@@@std@@$0A@@?$_Tree@V?$_Tmap_traits@V?$basic_string@DU?$char_traits@D@std@@V?$allocator@D@2@@std@@V12@U?$less@V?$basic_string@DU?$char_traits@D@std@@V?$allocator@D@2@@std@@@2@V?$allocator@U?$pair@$$CBV?$basic_string@DU?$char_traits@D@std@@V?$allocator@D@2@@std@@V12@@std@@@2@$0A@@std@@@std@@QEAA?AV?$_Tree_iterator@V?$_Tree_val@U?$_Tree_simple_types@U?$pair@$$CBV?$basic_string@DU?$char_traits@D@std@@V?$allocator@D@2@@std@@V12@@std@@@std@@@std@@@1@V21@@Z DD imagerel $LN108
	DD	imagerel $LN108+157
	DD	imagerel $unwind$??$erase@V?$_Tree_iterator@V?$_Tree_val@U?$_Tree_simple_types@U?$pair@$$CBV?$basic_string@DU?$char_traits@D@std@@V?$allocator@D@2@@std@@V12@@std@@@std@@@std@@@std@@$0A@@?$_Tree@V?$_Tmap_traits@V?$basic_string@DU?$char_traits@D@std@@V?$allocator@D@2@@std@@V12@U?$less@V?$basic_string@DU?$char_traits@D@std@@V?$allocator@D@2@@std@@@2@V?$allocator@U?$pair@$$CBV?$basic_string@DU?$char_traits@D@std@@V?$allocator@D@2@@std@@V12@@std@@@2@$0A@@std@@@std@@QEAA?AV?$_Tree_iterator@V?$_Tree_val@U?$_Tree_simple_types@U?$pair@$$CBV?$basic_string@DU?$char_traits@D@std@@V?$allocator@D@2@@std@@V12@@std@@@std@@@std@@@1@V21@@Z
pdata	ENDS
;	COMDAT pdata
pdata	SEGMENT
$pdata$??$?0AEAV?$basic_string@DU?$char_traits@D@std@@V?$allocator@D@2@@std@@AEAV01@$0A@@?$pair@$$CBV?$basic_string@DU?$char_traits@D@std@@V?$allocator@D@2@@std@@V12@@std@@QEAA@AEAV?$basic_string@DU?$char_traits@D@std@@V?$allocator@D@2@@1@0@Z DD imagerel $LN7
	DD	imagerel $LN7+54
	DD	imagerel $unwind$??$?0AEAV?$basic_string@DU?$char_traits@D@std@@V?$allocator@D@2@@std@@AEAV01@$0A@@?$pair@$$CBV?$basic_string@DU?$char_traits@D@std@@V?$allocator@D@2@@std@@V12@@std@@QEAA@AEAV?$basic_string@DU?$char_traits@D@std@@V?$allocator@D@2@@1@0@Z
pdata	ENDS
;	COMDAT pdata
pdata	SEGMENT
$pdata$??$erase@V?$_Tree_iterator@V?$_Tree_val@U?$_Tree_simple_types@U?$pair@$$CBV?$basic_string@DU?$char_traits@D@std@@V?$allocator@D@2@@std@@UDynamicData@Actor@@@std@@@std@@@std@@@std@@$0A@@?$_Tree@V?$_Tmap_traits@V?$basic_string@DU?$char_traits@D@std@@V?$allocator@D@2@@std@@UDynamicData@Actor@@U?$less@V?$basic_string@DU?$char_traits@D@std@@V?$allocator@D@2@@std@@@2@V?$allocator@U?$pair@$$CBV?$basic_string@DU?$char_traits@D@std@@V?$allocator@D@2@@std@@UDynamicData@Actor@@@std@@@2@$0A@@std@@@std@@QEAA?AV?$_Tree_iterator@V?$_Tree_val@U?$_Tree_simple_types@U?$pair@$$CBV?$basic_string@DU?$char_traits@D@std@@V?$allocator@D@2@@std@@UDynamicData@Actor@@@std@@@std@@@std@@@1@V21@@Z DD imagerel $LN17
	DD	imagerel $LN17+29
	DD	imagerel $unwind$??$erase@V?$_Tree_iterator@V?$_Tree_val@U?$_Tree_simple_types@U?$pair@$$CBV?$basic_string@DU?$char_traits@D@std@@V?$allocator@D@2@@std@@UDynamicData@Actor@@@std@@@std@@@std@@@std@@$0A@@?$_Tree@V?$_Tmap_traits@V?$basic_string@DU?$char_traits@D@std@@V?$allocator@D@2@@std@@UDynamicData@Actor@@U?$less@V?$basic_string@DU?$char_traits@D@std@@V?$allocator@D@2@@std@@@2@V?$allocator@U?$pair@$$CBV?$basic_string@DU?$char_traits@D@std@@V?$allocator@D@2@@std@@UDynamicData@Actor@@@std@@@2@$0A@@std@@@std@@QEAA?AV?$_Tree_iterator@V?$_Tree_val@U?$_Tree_simple_types@U?$pair@$$CBV?$basic_string@DU?$char_traits@D@std@@V?$allocator@D@2@@std@@UDynamicData@Actor@@@std@@@std@@@std@@@1@V21@@Z
pdata	ENDS
;	COMDAT pdata
pdata	SEGMENT
$pdata$??$remove_if@V?$_Vector_iterator@V?$_Vector_val@U?$_Simple_types@UActor@@@std@@@std@@@std@@V<lambda_4>@?EG@??DrawPropertiesWindow@UIProperties@@YAXXZ@@std@@YA?AV?$_Vector_iterator@V?$_Vector_val@U?$_Simple_types@UActor@@@std@@@std@@@0@V10@V10@V<lambda_4>@?EG@??DrawPropertiesWindow@UIProperties@@YAXXZ@@Z DD imagerel ??$remove_if@V?$_Vector_iterator@V?$_Vector_val@U?$_Simple_types@UActor@@@std@@@std@@@std@@V<lambda_4>@?EG@??DrawPropertiesWindow@UIProperties@@YAXXZ@@std@@YA?AV?$_Vector_iterator@V?$_Vector_val@U?$_Simple_types@UActor@@@std@@@std@@@0@V10@V10@V<lambda_4>@?EG@??DrawPropertiesWindow@UIProperties@@YAXXZ@@Z
	DD	imagerel ??$remove_if@V?$_Vector_iterator@V?$_Vector_val@U?$_Simple_types@UActor@@@std@@@std@@@std@@V<lambda_4>@?EG@??DrawPropertiesWindow@UIProperties@@YAXXZ@@std@@YA?AV?$_Vector_iterator@V?$_Vector_val@U?$_Simple_types@UActor@@@std@@@std@@@0@V10@V10@V<lambda_4>@?EG@??DrawPropertiesWindow@UIProperties@@YAXXZ@@Z+47
	DD	imagerel $unwind$??$remove_if@V?$_Vector_iterator@V?$_Vector_val@U?$_Simple_types@UActor@@@std@@@std@@@std@@V<lambda_4>@?EG@??DrawPropertiesWindow@UIProperties@@YAXXZ@@std@@YA?AV?$_Vector_iterator@V?$_Vector_val@U?$_Simple_types@UActor@@@std@@@std@@@0@V10@V10@V<lambda_4>@?EG@??DrawPropertiesWindow@UIProperties@@YAXXZ@@Z
pdata	ENDS
;	COMDAT pdata
pdata	SEGMENT
$pdata$1$??$remove_if@V?$_Vector_iterator@V?$_Vector_val@U?$_Simple_types@UActor@@@std@@@std@@@std@@V<lambda_4>@?EG@??DrawPropertiesWindow@UIProperties@@YAXXZ@@std@@YA?AV?$_Vector_iterator@V?$_Vector_val@U?$_Simple_types@UActor@@@std@@@std@@@0@V10@V10@V<lambda_4>@?EG@??DrawPropertiesWindow@UIProperties@@YAXXZ@@Z DD imagerel ??$remove_if@V?$_Vector_iterator@V?$_Vector_val@U?$_Simple_types@UActor@@@std@@@std@@@std@@V<lambda_4>@?EG@??DrawPropertiesWindow@UIProperties@@YAXXZ@@std@@YA?AV?$_Vector_iterator@V?$_Vector_val@U?$_Simple_types@UActor@@@std@@@std@@@0@V10@V10@V<lambda_4>@?EG@??DrawPropertiesWindow@UIProperties@@YAXXZ@@Z+47
	DD	imagerel ??$remove_if@V?$_Vector_iterator@V?$_Vector_val@U?$_Simple_types@UActor@@@std@@@std@@@std@@V<lambda_4>@?EG@??DrawPropertiesWindow@UIProperties@@YAXXZ@@std@@YA?AV?$_Vector_iterator@V?$_Vector_val@U?$_Simple_types@UActor@@@std@@@std@@@0@V10@V10@V<lambda_4>@?EG@??DrawPropertiesWindow@UIProperties@@YAXXZ@@Z+151
	DD	imagerel $chain$1$??$remove_if@V?$_Vector_iterator@V?$_Vector_val@U?$_Simple_types@UActor@@@std@@@std@@@std@@V<lambda_4>@?EG@??DrawPropertiesWindow@UIProperties@@YAXXZ@@std@@YA?AV?$_Vector_iterator@V?$_Vector_val@U?$_Simple_types@UActor@@@std@@@std@@@0@V10@V10@V<lambda_4>@?EG@??DrawPropertiesWindow@UIProperties@@YAXXZ@@Z
pdata	ENDS
;	COMDAT pdata
pdata	SEGMENT
$pdata$2$??$remove_if@V?$_Vector_iterator@V?$_Vector_val@U?$_Simple_types@UActor@@@std@@@std@@@std@@V<lambda_4>@?EG@??DrawPropertiesWindow@UIProperties@@YAXXZ@@std@@YA?AV?$_Vector_iterator@V?$_Vector_val@U?$_Simple_types@UActor@@@std@@@std@@@0@V10@V10@V<lambda_4>@?EG@??DrawPropertiesWindow@UIProperties@@YAXXZ@@Z DD imagerel ??$remove_if@V?$_Vector_iterator@V?$_Vector_val@U?$_Simple_types@UActor@@@std@@@std@@@std@@V<lambda_4>@?EG@??DrawPropertiesWindow@UIProperties@@YAXXZ@@std@@YA?AV?$_Vector_iterator@V?$_Vector_val@U?$_Simple_types@UActor@@@std@@@std@@@0@V10@V10@V<lambda_4>@?EG@??DrawPropertiesWindow@UIProperties@@YAXXZ@@Z+151
	DD	imagerel ??$remove_if@V?$_Vector_iterator@V?$_Vector_val@U?$_Simple_types@UActor@@@std@@@std@@@std@@V<lambda_4>@?EG@??DrawPropertiesWindow@UIProperties@@YAXXZ@@std@@YA?AV?$_Vector_iterator@V?$_Vector_val@U?$_Simple_types@UActor@@@std@@@std@@@0@V10@V10@V<lambda_4>@?EG@??DrawPropertiesWindow@UIProperties@@YAXXZ@@Z+311
	DD	imagerel $chain$2$??$remove_if@V?$_Vector_iterator@V?$_Vector_val@U?$_Simple_types@UActor@@@std@@@std@@@std@@V<lambda_4>@?EG@??DrawPropertiesWindow@UIProperties@@YAXXZ@@std@@YA?AV?$_Vector_iterator@V?$_Vector_val@U?$_Simple_types@UActor@@@std@@@std@@@0@V10@V10@V<lambda_4>@?EG@??DrawPropertiesWindow@UIProperties@@YAXXZ@@Z
pdata	ENDS
;	COMDAT pdata
pdata	SEGMENT
$pdata$??$remove_if@V?$_Vector_iterator@V?$_Vector_val@U?$_Simple_types@UActor@@@std@@@std@@@std@@V<lambda_1>@?BB@???R<lambda_3>@?EB@??DrawPropertiesWindow@UIProperties@@YAXXZ@QEBA@V?$basic_string@DU?$char_traits@D@std@@V?$allocator@D@2@@2@@Z@@std@@YA?AV?$_Vector_iterator@V?$_Vector_val@U?$_Simple_types@UActor@@@std@@@std@@@0@V10@V10@V<lambda_1>@?BB@???R<lambda_3>@?EB@??DrawPropertiesWindow@UIProperties@@YAXXZ@QEBA@V?$basic_string@DU?$char_traits@D@std@@V?$allocator@D@2@@0@@Z@@Z DD imagerel ??$remove_if@V?$_Vector_iterator@V?$_Vector_val@U?$_Simple_types@UActor@@@std@@@std@@@std@@V<lambda_1>@?BB@???R<lambda_3>@?EB@??DrawPropertiesWindow@UIProperties@@YAXXZ@QEBA@V?$basic_string@DU?$char_traits@D@std@@V?$allocator@D@2@@2@@Z@@std@@YA?AV?$_Vector_iterator@V?$_Vector_val@U?$_Simple_types@UActor@@@std@@@std@@@0@V10@V10@V<lambda_1>@?BB@???R<lambda_3>@?EB@??DrawPropertiesWindow@UIProperties@@YAXXZ@QEBA@V?$basic_string@DU?$char_traits@D@std@@V?$allocator@D@2@@0@@Z@@Z
	DD	imagerel ??$remove_if@V?$_Vector_iterator@V?$_Vector_val@U?$_Simple_types@UActor@@@std@@@std@@@std@@V<lambda_1>@?BB@???R<lambda_3>@?EB@??DrawPropertiesWindow@UIProperties@@YAXXZ@QEBA@V?$basic_string@DU?$char_traits@D@std@@V?$allocator@D@2@@2@@Z@@std@@YA?AV?$_Vector_iterator@V?$_Vector_val@U?$_Simple_types@UActor@@@std@@@std@@@0@V10@V10@V<lambda_1>@?BB@???R<lambda_3>@?EB@??DrawPropertiesWindow@UIProperties@@YAXXZ@QEBA@V?$basic_string@DU?$char_traits@D@std@@V?$allocator@D@2@@0@@Z@@Z+100
	DD	imagerel $unwind$??$remove_if@V?$_Vector_iterator@V?$_Vector_val@U?$_Simple_types@UActor@@@std@@@std@@@std@@V<lambda_1>@?BB@???R<lambda_3>@?EB@??DrawPropertiesWindow@UIProperties@@YAXXZ@QEBA@V?$basic_string@DU?$char_traits@D@std@@V?$allocator@D@2@@2@@Z@@std@@YA?AV?$_Vector_iterator@V?$_Vector_val@U?$_Simple_types@UActor@@@std@@@std@@@0@V10@V10@V<lambda_1>@?BB@???R<lambda_3>@?EB@??DrawPropertiesWindow@UIProperties@@YAXXZ@QEBA@V?$basic_string@DU?$char_traits@D@std@@V?$allocator@D@2@@0@@Z@@Z
pdata	ENDS
;	COMDAT pdata
pdata	SEGMENT
$pdata$0$??$remove_if@V?$_Vector_iterator@V?$_Vector_val@U?$_Simple_types@UActor@@@std@@@std@@@std@@V<lambda_1>@?BB@???R<lambda_3>@?EB@??DrawPropertiesWindow@UIProperties@@YAXXZ@QEBA@V?$basic_string@DU?$char_traits@D@std@@V?$allocator@D@2@@2@@Z@@std@@YA?AV?$_Vector_iterator@V?$_Vector_val@U?$_Simple_types@UActor@@@std@@@std@@@0@V10@V10@V<lambda_1>@?BB@???R<lambda_3>@?EB@??DrawPropertiesWindow@UIProperties@@YAXXZ@QEBA@V?$basic_string@DU?$char_traits@D@std@@V?$allocator@D@2@@0@@Z@@Z DD imagerel ??$remove_if@V?$_Vector_iterator@V?$_Vector_val@U?$_Simple_types@UActor@@@std@@@std@@@std@@V<lambda_1>@?BB@???R<lambda_3>@?EB@??DrawPropertiesWindow@UIProperties@@YAXXZ@QEBA@V?$basic_string@DU?$char_traits@D@std@@V?$allocator@D@2@@2@@Z@@std@@YA?AV?$_Vector_iterator@V?$_Vector_val@U?$_Simple_types@UActor@@@std@@@std@@@0@V10@V10@V<lambda_1>@?BB@???R<lambda_3>@?EB@??DrawPropertiesWindow@UIProperties@@YAXXZ@QEBA@V?$basic_string@DU?$char_traits@D@std@@V?$allocator@D@2@@0@@Z@@Z+100
	DD	imagerel ??$remove_if@V?$_Vector_iterator@V?$_Vector_val@U?$_Simple_types@UActor@@@std@@@std@@@std@@V<lambda_1>@?BB@???R<lambda_3>@?EB@??DrawPropertiesWindow@UIProperties@@YAXXZ@QEBA@V?$basic_string@DU?$char_traits@D@std@@V?$allocator@D@2@@2@@Z@@std@@YA?AV?$_Vector_iterator@V?$_Vector_val@U?$_Simple_types@UActor@@@std@@@std@@@0@V10@V10@V<lambda_1>@?BB@???R<lambda_3>@?EB@??DrawPropertiesWindow@UIProperties@@YAXXZ@QEBA@V?$basic_string@DU?$char_traits@D@std@@V?$allocator@D@2@@0@@Z@@Z+200
	DD	imagerel $chain$0$??$remove_if@V?$_Vector_iterator@V?$_Vector_val@U?$_Simple_types@UActor@@@std@@@std@@@std@@V<lambda_1>@?BB@???R<lambda_3>@?EB@??DrawPropertiesWindow@UIProperties@@YAXXZ@QEBA@V?$basic_string@DU?$char_traits@D@std@@V?$allocator@D@2@@2@@Z@@std@@YA?AV?$_Vector_iterator@V?$_Vector_val@U?$_Simple_types@UActor@@@std@@@std@@@0@V10@V10@V<lambda_1>@?BB@???R<lambda_3>@?EB@??DrawPropertiesWindow@UIProperties@@YAXXZ@QEBA@V?$basic_string@DU?$char_traits@D@std@@V?$allocator@D@2@@0@@Z@@Z
pdata	ENDS
;	COMDAT pdata
pdata	SEGMENT
$pdata$1$??$remove_if@V?$_Vector_iterator@V?$_Vector_val@U?$_Simple_types@UActor@@@std@@@std@@@std@@V<lambda_1>@?BB@???R<lambda_3>@?EB@??DrawPropertiesWindow@UIProperties@@YAXXZ@QEBA@V?$basic_string@DU?$char_traits@D@std@@V?$allocator@D@2@@2@@Z@@std@@YA?AV?$_Vector_iterator@V?$_Vector_val@U?$_Simple_types@UActor@@@std@@@std@@@0@V10@V10@V<lambda_1>@?BB@???R<lambda_3>@?EB@??DrawPropertiesWindow@UIProperties@@YAXXZ@QEBA@V?$basic_string@DU?$char_traits@D@std@@V?$allocator@D@2@@0@@Z@@Z DD imagerel ??$remove_if@V?$_Vector_iterator@V?$_Vector_val@U?$_Simple_types@UActor@@@std@@@std@@@std@@V<lambda_1>@?BB@???R<lambda_3>@?EB@??DrawPropertiesWindow@UIProperties@@YAXXZ@QEBA@V?$basic_string@DU?$char_traits@D@std@@V?$allocator@D@2@@2@@Z@@std@@YA?AV?$_Vector_iterator@V?$_Vector_val@U?$_Simple_types@UActor@@@std@@@std@@@0@V10@V10@V<lambda_1>@?BB@???R<lambda_3>@?EB@??DrawPropertiesWindow@UIProperties@@YAXXZ@QEBA@V?$basic_string@DU?$char_traits@D@std@@V?$allocator@D@2@@0@@Z@@Z+200
	DD	imagerel ??$remove_if@V?$_Vector_iterator@V?$_Vector_val@U?$_Simple_types@UActor@@@std@@@std@@@std@@V<lambda_1>@?BB@???R<lambda_3>@?EB@??DrawPropertiesWindow@UIProperties@@YAXXZ@QEBA@V?$basic_string@DU?$char_traits@D@std@@V?$allocator@D@2@@2@@Z@@std@@YA?AV?$_Vector_iterator@V?$_Vector_val@U?$_Simple_types@UActor@@@std@@@std@@@0@V10@V10@V<lambda_1>@?BB@???R<lambda_3>@?EB@??DrawPropertiesWindow@UIProperties@@YAXXZ@QEBA@V?$basic_string@DU?$char_traits@D@std@@V?$allocator@D@2@@0@@Z@@Z+244
	DD	imagerel $chain$1$??$remove_if@V?$_Vector_iterator@V?$_Vector_val@U?$_Simple_types@UActor@@@std@@@std@@@std@@V<lambda_1>@?BB@???R<lambda_3>@?EB@??DrawPropertiesWindow@UIProperties@@YAXXZ@QEBA@V?$basic_string@DU?$char_traits@D@std@@V?$allocator@D@2@@2@@Z@@std@@YA?AV?$_Vector_iterator@V?$_Vector_val@U?$_Simple_types@UActor@@@std@@@std@@@0@V10@V10@V<lambda_1>@?BB@???R<lambda_3>@?EB@??DrawPropertiesWindow@UIProperties@@YAXXZ@QEBA@V?$basic_string@DU?$char_traits@D@std@@V?$allocator@D@2@@0@@Z@@Z
pdata	ENDS
;	COMDAT pdata
pdata	SEGMENT
$pdata$??4Link@Actor@@QEAAAEAU01@$$QEAU01@@Z DD imagerel $LN5
	DD	imagerel $LN5+70
	DD	imagerel $unwind$??4Link@Actor@@QEAAAEAU01@$$QEAU01@@Z
pdata	ENDS
;	COMDAT pdata
pdata	SEGMENT
$pdata$??$remove_if@V?$_Vector_iterator@V?$_Vector_val@U?$_Simple_types@ULink@Actor@@@std@@@std@@@std@@V<lambda_1>@?CC@??DrawPropertiesWindow@UIProperties@@YAXXZ@@std@@YA?AV?$_Vector_iterator@V?$_Vector_val@U?$_Simple_types@ULink@Actor@@@std@@@std@@@0@V10@V10@V<lambda_1>@?CC@??DrawPropertiesWindow@UIProperties@@YAXXZ@@Z DD imagerel ??$remove_if@V?$_Vector_iterator@V?$_Vector_val@U?$_Simple_types@ULink@Actor@@@std@@@std@@@std@@V<lambda_1>@?CC@??DrawPropertiesWindow@UIProperties@@YAXXZ@@std@@YA?AV?$_Vector_iterator@V?$_Vector_val@U?$_Simple_types@ULink@Actor@@@std@@@std@@@0@V10@V10@V<lambda_1>@?CC@??DrawPropertiesWindow@UIProperties@@YAXXZ@@Z
	DD	imagerel ??$remove_if@V?$_Vector_iterator@V?$_Vector_val@U?$_Simple_types@ULink@Actor@@@std@@@std@@@std@@V<lambda_1>@?CC@??DrawPropertiesWindow@UIProperties@@YAXXZ@@std@@YA?AV?$_Vector_iterator@V?$_Vector_val@U?$_Simple_types@ULink@Actor@@@std@@@std@@@0@V10@V10@V<lambda_1>@?CC@??DrawPropertiesWindow@UIProperties@@YAXXZ@@Z+162
	DD	imagerel $unwind$??$remove_if@V?$_Vector_iterator@V?$_Vector_val@U?$_Simple_types@ULink@Actor@@@std@@@std@@@std@@V<lambda_1>@?CC@??DrawPropertiesWindow@UIProperties@@YAXXZ@@std@@YA?AV?$_Vector_iterator@V?$_Vector_val@U?$_Simple_types@ULink@Actor@@@std@@@std@@@0@V10@V10@V<lambda_1>@?CC@??DrawPropertiesWindow@UIProperties@@YAXXZ@@Z
pdata	ENDS
;	COMDAT pdata
pdata	SEGMENT
$pdata$0$??$remove_if@V?$_Vector_iterator@V?$_Vector_val@U?$_Simple_types@ULink@Actor@@@std@@@std@@@std@@V<lambda_1>@?CC@??DrawPropertiesWindow@UIProperties@@YAXXZ@@std@@YA?AV?$_Vector_iterator@V?$_Vector_val@U?$_Simple_types@ULink@Actor@@@std@@@std@@@0@V10@V10@V<lambda_1>@?CC@??DrawPropertiesWindow@UIProperties@@YAXXZ@@Z DD imagerel ??$remove_if@V?$_Vector_iterator@V?$_Vector_val@U?$_Simple_types@ULink@Actor@@@std@@@std@@@std@@V<lambda_1>@?CC@??DrawPropertiesWindow@UIProperties@@YAXXZ@@std@@YA?AV?$_Vector_iterator@V?$_Vector_val@U?$_Simple_types@ULink@Actor@@@std@@@std@@@0@V10@V10@V<lambda_1>@?CC@??DrawPropertiesWindow@UIProperties@@YAXXZ@@Z+162
	DD	imagerel ??$remove_if@V?$_Vector_iterator@V?$_Vector_val@U?$_Simple_types@ULink@Actor@@@std@@@std@@@std@@V<lambda_1>@?CC@??DrawPropertiesWindow@UIProperties@@YAXXZ@@std@@YA?AV?$_Vector_iterator@V?$_Vector_val@U?$_Simple_types@ULink@Actor@@@std@@@std@@@0@V10@V10@V<lambda_1>@?CC@??DrawPropertiesWindow@UIProperties@@YAXXZ@@Z+338
	DD	imagerel $chain$0$??$remove_if@V?$_Vector_iterator@V?$_Vector_val@U?$_Simple_types@ULink@Actor@@@std@@@std@@@std@@V<lambda_1>@?CC@??DrawPropertiesWindow@UIProperties@@YAXXZ@@std@@YA?AV?$_Vector_iterator@V?$_Vector_val@U?$_Simple_types@ULink@Actor@@@std@@@std@@@0@V10@V10@V<lambda_1>@?CC@??DrawPropertiesWindow@UIProperties@@YAXXZ@@Z
pdata	ENDS
;	COMDAT pdata
pdata	SEGMENT
$pdata$1$??$remove_if@V?$_Vector_iterator@V?$_Vector_val@U?$_Simple_types@ULink@Actor@@@std@@@std@@@std@@V<lambda_1>@?CC@??DrawPropertiesWindow@UIProperties@@YAXXZ@@std@@YA?AV?$_Vector_iterator@V?$_Vector_val@U?$_Simple_types@ULink@Actor@@@std@@@std@@@0@V10@V10@V<lambda_1>@?CC@??DrawPropertiesWindow@UIProperties@@YAXXZ@@Z DD imagerel ??$remove_if@V?$_Vector_iterator@V?$_Vector_val@U?$_Simple_types@ULink@Actor@@@std@@@std@@@std@@V<lambda_1>@?CC@??DrawPropertiesWindow@UIProperties@@YAXXZ@@std@@YA?AV?$_Vector_iterator@V?$_Vector_val@U?$_Simple_types@ULink@Actor@@@std@@@std@@@0@V10@V10@V<lambda_1>@?CC@??DrawPropertiesWindow@UIProperties@@YAXXZ@@Z+338
	DD	imagerel ??$remove_if@V?$_Vector_iterator@V?$_Vector_val@U?$_Simple_types@ULink@Actor@@@std@@@std@@@std@@V<lambda_1>@?CC@??DrawPropertiesWindow@UIProperties@@YAXXZ@@std@@YA?AV?$_Vector_iterator@V?$_Vector_val@U?$_Simple_types@ULink@Actor@@@std@@@std@@@0@V10@V10@V<lambda_1>@?CC@??DrawPropertiesWindow@UIProperties@@YAXXZ@@Z+376
	DD	imagerel $chain$1$??$remove_if@V?$_Vector_iterator@V?$_Vector_val@U?$_Simple_types@ULink@Actor@@@std@@@std@@@std@@V<lambda_1>@?CC@??DrawPropertiesWindow@UIProperties@@YAXXZ@@std@@YA?AV?$_Vector_iterator@V?$_Vector_val@U?$_Simple_types@ULink@Actor@@@std@@@std@@@0@V10@V10@V<lambda_1>@?CC@??DrawPropertiesWindow@UIProperties@@YAXXZ@@Z
pdata	ENDS
;	COMDAT pdata
pdata	SEGMENT
$pdata$?erase@?$vector@ULink@Actor@@V?$allocator@ULink@Actor@@@std@@@std@@QEAA?AV?$_Vector_iterator@V?$_Vector_val@U?$_Simple_types@ULink@Actor@@@std@@@std@@@2@V?$_Vector_const_iterator@V?$_Vector_val@U?$_Simple_types@ULink@Actor@@@std@@@std@@@2@@Z DD imagerel $LN25
	DD	imagerel $LN25+98
	DD	imagerel $unwind$?erase@?$vector@ULink@Actor@@V?$allocator@ULink@Actor@@@std@@@std@@QEAA?AV?$_Vector_iterator@V?$_Vector_val@U?$_Simple_types@ULink@Actor@@@std@@@std@@@2@V?$_Vector_const_iterator@V?$_Vector_val@U?$_Simple_types@ULink@Actor@@@std@@@std@@@2@@Z
pdata	ENDS
;	COMDAT pdata
pdata	SEGMENT
$pdata$?erase@?$vector@ULink@Actor@@V?$allocator@ULink@Actor@@@std@@@std@@QEAA?AV?$_Vector_iterator@V?$_Vector_val@U?$_Simple_types@ULink@Actor@@@std@@@std@@@2@V?$_Vector_const_iterator@V?$_Vector_val@U?$_Simple_types@ULink@Actor@@@std@@@std@@@2@0@Z DD imagerel $LN39
	DD	imagerel $LN39+30
	DD	imagerel $unwind$?erase@?$vector@ULink@Actor@@V?$allocator@ULink@Actor@@@std@@@std@@QEAA?AV?$_Vector_iterator@V?$_Vector_val@U?$_Simple_types@ULink@Actor@@@std@@@std@@@2@V?$_Vector_const_iterator@V?$_Vector_val@U?$_Simple_types@ULink@Actor@@@std@@@std@@@2@0@Z
pdata	ENDS
;	COMDAT pdata
pdata	SEGMENT
$pdata$1$?erase@?$vector@ULink@Actor@@V?$allocator@ULink@Actor@@@std@@@std@@QEAA?AV?$_Vector_iterator@V?$_Vector_val@U?$_Simple_types@ULink@Actor@@@std@@@std@@@2@V?$_Vector_const_iterator@V?$_Vector_val@U?$_Simple_types@ULink@Actor@@@std@@@std@@@2@0@Z DD imagerel $LN39+30
	DD	imagerel $LN39+57
	DD	imagerel $chain$1$?erase@?$vector@ULink@Actor@@V?$allocator@ULink@Actor@@@std@@@std@@QEAA?AV?$_Vector_iterator@V?$_Vector_val@U?$_Simple_types@ULink@Actor@@@std@@@std@@@2@V?$_Vector_const_iterator@V?$_Vector_val@U?$_Simple_types@ULink@Actor@@@std@@@std@@@2@0@Z
pdata	ENDS
;	COMDAT pdata
pdata	SEGMENT
$pdata$2$?erase@?$vector@ULink@Actor@@V?$allocator@ULink@Actor@@@std@@@std@@QEAA?AV?$_Vector_iterator@V?$_Vector_val@U?$_Simple_types@ULink@Actor@@@std@@@std@@@2@V?$_Vector_const_iterator@V?$_Vector_val@U?$_Simple_types@ULink@Actor@@@std@@@std@@@2@0@Z DD imagerel $LN39+57
	DD	imagerel $LN39+101
	DD	imagerel $chain$2$?erase@?$vector@ULink@Actor@@V?$allocator@ULink@Actor@@@std@@@std@@QEAA?AV?$_Vector_iterator@V?$_Vector_val@U?$_Simple_types@ULink@Actor@@@std@@@std@@@2@V?$_Vector_const_iterator@V?$_Vector_val@U?$_Simple_types@ULink@Actor@@@std@@@std@@@2@0@Z
pdata	ENDS
;	COMDAT pdata
pdata	SEGMENT
$pdata$3$?erase@?$vector@ULink@Actor@@V?$allocator@ULink@Actor@@@std@@@std@@QEAA?AV?$_Vector_iterator@V?$_Vector_val@U?$_Simple_types@ULink@Actor@@@std@@@std@@@2@V?$_Vector_const_iterator@V?$_Vector_val@U?$_Simple_types@ULink@Actor@@@std@@@std@@@2@0@Z DD imagerel $LN39+101
	DD	imagerel $LN39+130
	DD	imagerel $chain$3$?erase@?$vector@ULink@Actor@@V?$allocator@ULink@Actor@@@std@@@std@@QEAA?AV?$_Vector_iterator@V?$_Vector_val@U?$_Simple_types@ULink@Actor@@@std@@@std@@@2@V?$_Vector_const_iterator@V?$_Vector_val@U?$_Simple_types@ULink@Actor@@@std@@@std@@@2@0@Z
pdata	ENDS
;	COMDAT pdata
pdata	SEGMENT
$pdata$4$?erase@?$vector@ULink@Actor@@V?$allocator@ULink@Actor@@@std@@@std@@QEAA?AV?$_Vector_iterator@V?$_Vector_val@U?$_Simple_types@ULink@Actor@@@std@@@std@@@2@V?$_Vector_const_iterator@V?$_Vector_val@U?$_Simple_types@ULink@Actor@@@std@@@std@@@2@0@Z DD imagerel $LN39+130
	DD	imagerel $LN39+145
	DD	imagerel $chain$4$?erase@?$vector@ULink@Actor@@V?$allocator@ULink@Actor@@@std@@@std@@QEAA?AV?$_Vector_iterator@V?$_Vector_val@U?$_Simple_types@ULink@Actor@@@std@@@std@@@2@V?$_Vector_const_iterator@V?$_Vector_val@U?$_Simple_types@ULink@Actor@@@std@@@std@@@2@0@Z
pdata	ENDS
;	COMDAT pdata
pdata	SEGMENT
$pdata$?erase@?$vector@URail@Actor@@V?$allocator@URail@Actor@@@std@@@std@@QEAA?AV?$_Vector_iterator@V?$_Vector_val@U?$_Simple_types@URail@Actor@@@std@@@std@@@2@V?$_Vector_const_iterator@V?$_Vector_val@U?$_Simple_types@URail@Actor@@@std@@@std@@@2@@Z DD imagerel $LN37
	DD	imagerel $LN37+47
	DD	imagerel $unwind$?erase@?$vector@URail@Actor@@V?$allocator@URail@Actor@@@std@@@std@@QEAA?AV?$_Vector_iterator@V?$_Vector_val@U?$_Simple_types@URail@Actor@@@std@@@std@@@2@V?$_Vector_const_iterator@V?$_Vector_val@U?$_Simple_types@URail@Actor@@@std@@@std@@@2@@Z
pdata	ENDS
;	COMDAT pdata
pdata	SEGMENT
$pdata$0$?erase@?$vector@URail@Actor@@V?$allocator@URail@Actor@@@std@@@std@@QEAA?AV?$_Vector_iterator@V?$_Vector_val@U?$_Simple_types@URail@Actor@@@std@@@std@@@2@V?$_Vector_const_iterator@V?$_Vector_val@U?$_Simple_types@URail@Actor@@@std@@@std@@@2@@Z DD imagerel $LN37+47
	DD	imagerel $LN37+114
	DD	imagerel $chain$0$?erase@?$vector@URail@Actor@@V?$allocator@URail@Actor@@@std@@@std@@QEAA?AV?$_Vector_iterator@V?$_Vector_val@U?$_Simple_types@URail@Actor@@@std@@@std@@@2@V?$_Vector_const_iterator@V?$_Vector_val@U?$_Simple_types@URail@Actor@@@std@@@std@@@2@@Z
pdata	ENDS
;	COMDAT pdata
pdata	SEGMENT
$pdata$1$?erase@?$vector@URail@Actor@@V?$allocator@URail@Actor@@@std@@@std@@QEAA?AV?$_Vector_iterator@V?$_Vector_val@U?$_Simple_types@URail@Actor@@@std@@@std@@@2@V?$_Vector_const_iterator@V?$_Vector_val@U?$_Simple_types@URail@Actor@@@std@@@std@@@2@@Z DD imagerel $LN37+114
	DD	imagerel $LN37+174
	DD	imagerel $chain$1$?erase@?$vector@URail@Actor@@V?$allocator@URail@Actor@@@std@@@std@@QEAA?AV?$_Vector_iterator@V?$_Vector_val@U?$_Simple_types@URail@Actor@@@std@@@std@@@2@V?$_Vector_const_iterator@V?$_Vector_val@U?$_Simple_types@URail@Actor@@@std@@@std@@@2@@Z
pdata	ENDS
;	COMDAT pdata
pdata	SEGMENT
$pdata$?<lambda_invoker_cdecl>@<lambda_9>@?NJ@??DrawPropertiesWindow@UIProperties@@YAXXZ@SA@V?$basic_string@DU?$char_traits@D@std@@V?$allocator@D@2@@std@@@Z DD imagerel ?<lambda_invoker_cdecl>@<lambda_9>@?NJ@??DrawPropertiesWindow@UIProperties@@YAXXZ@SA@V?$basic_string@DU?$char_traits@D@std@@V?$allocator@D@2@@std@@@Z
	DD	imagerel ?<lambda_invoker_cdecl>@<lambda_9>@?NJ@??DrawPropertiesWindow@UIProperties@@YAXXZ@SA@V?$basic_string@DU?$char_traits@D@std@@V?$allocator@D@2@@std@@@Z+796
	DD	imagerel $unwind$?<lambda_invoker_cdecl>@<lambda_9>@?NJ@??DrawPropertiesWindow@UIProperties@@YAXXZ@SA@V?$basic_string@DU?$char_traits@D@std@@V?$allocator@D@2@@std@@@Z
pdata	ENDS
;	COMDAT pdata
pdata	SEGMENT
$pdata$?<lambda_invoker_cdecl>@<lambda_8>@?JM@??DrawPropertiesWindow@UIProperties@@YAXXZ@SA@_KV?$basic_string@DU?$char_traits@D@std@@V?$allocator@D@2@@std@@1@Z DD imagerel ?<lambda_invoker_cdecl>@<lambda_8>@?JM@??DrawPropertiesWindow@UIProperties@@YAXXZ@SA@_KV?$basic_string@DU?$char_traits@D@std@@V?$allocator@D@2@@std@@1@Z
	DD	imagerel ?<lambda_invoker_cdecl>@<lambda_8>@?JM@??DrawPropertiesWindow@UIProperties@@YAXXZ@SA@_KV?$basic_string@DU?$char_traits@D@std@@V?$allocator@D@2@@std@@1@Z+273
	DD	imagerel $unwind$?<lambda_invoker_cdecl>@<lambda_8>@?JM@??DrawPropertiesWindow@UIProperties@@YAXXZ@SA@_KV?$basic_string@DU?$char_traits@D@std@@V?$allocator@D@2@@std@@1@Z
pdata	ENDS
;	COMDAT pdata
pdata	SEGMENT
$pdata$?<lambda_invoker_cdecl>@<lambda_7>@?IM@??DrawPropertiesWindow@UIProperties@@YAXXZ@SA@_K0V?$basic_string@DU?$char_traits@D@std@@V?$allocator@D@2@@std@@1@Z DD imagerel ?<lambda_invoker_cdecl>@<lambda_7>@?IM@??DrawPropertiesWindow@UIProperties@@YAXXZ@SA@_K0V?$basic_string@DU?$char_traits@D@std@@V?$allocator@D@2@@std@@1@Z
	DD	imagerel ?<lambda_invoker_cdecl>@<lambda_7>@?IM@??DrawPropertiesWindow@UIProperties@@YAXXZ@SA@_K0V?$basic_string@DU?$char_traits@D@std@@V?$allocator@D@2@@std@@1@Z+290
	DD	imagerel $unwind$?<lambda_invoker_cdecl>@<lambda_7>@?IM@??DrawPropertiesWindow@UIProperties@@YAXXZ@SA@_K0V?$basic_string@DU?$char_traits@D@std@@V?$allocator@D@2@@std@@1@Z
pdata	ENDS
;	COMDAT pdata
pdata	SEGMENT
$pdata$?<lambda_invoker_cdecl>@<lambda_6>@?HO@??DrawPropertiesWindow@UIProperties@@YAXXZ@SA@V?$basic_string@DU?$char_traits@D@std@@V?$allocator@D@2@@std@@0@Z DD imagerel ?<lambda_invoker_cdecl>@<lambda_6>@?HO@??DrawPropertiesWindow@UIProperties@@YAXXZ@SA@V?$basic_string@DU?$char_traits@D@std@@V?$allocator@D@2@@std@@0@Z
	DD	imagerel ?<lambda_invoker_cdecl>@<lambda_6>@?HO@??DrawPropertiesWindow@UIProperties@@YAXXZ@SA@V?$basic_string@DU?$char_traits@D@std@@V?$allocator@D@2@@std@@0@Z+185
	DD	imagerel $unwind$?<lambda_invoker_cdecl>@<lambda_6>@?HO@??DrawPropertiesWindow@UIProperties@@YAXXZ@SA@V?$basic_string@DU?$char_traits@D@std@@V?$allocator@D@2@@std@@0@Z
pdata	ENDS
;	COMDAT pdata
pdata	SEGMENT
$pdata$?<lambda_invoker_cdecl>@<lambda_5>@?GG@??DrawPropertiesWindow@UIProperties@@YAXXZ@SA@V?$basic_string@DU?$char_traits@D@std@@V?$allocator@D@2@@std@@UDynamicData@Actor@@@Z DD imagerel ?<lambda_invoker_cdecl>@<lambda_5>@?GG@??DrawPropertiesWindow@UIProperties@@YAXXZ@SA@V?$basic_string@DU?$char_traits@D@std@@V?$allocator@D@2@@std@@UDynamicData@Actor@@@Z
	DD	imagerel ?<lambda_invoker_cdecl>@<lambda_5>@?GG@??DrawPropertiesWindow@UIProperties@@YAXXZ@SA@V?$basic_string@DU?$char_traits@D@std@@V?$allocator@D@2@@std@@UDynamicData@Actor@@@Z+308
	DD	imagerel $unwind$?<lambda_invoker_cdecl>@<lambda_5>@?GG@??DrawPropertiesWindow@UIProperties@@YAXXZ@SA@V?$basic_string@DU?$char_traits@D@std@@V?$allocator@D@2@@std@@UDynamicData@Actor@@@Z
pdata	ENDS
;	COMDAT pdata
pdata	SEGMENT
$pdata$??R<lambda_4>@?EG@??DrawPropertiesWindow@UIProperties@@YAXXZ@QEBA@AEBUActor@@@Z DD imagerel ??R<lambda_4>@?EG@??DrawPropertiesWindow@UIProperties@@YAXXZ@QEBA@AEBUActor@@@Z
	DD	imagerel ??R<lambda_4>@?EG@??DrawPropertiesWindow@UIProperties@@YAXXZ@QEBA@AEBUActor@@@Z+114
	DD	imagerel $unwind$??R<lambda_4>@?EG@??DrawPropertiesWindow@UIProperties@@YAXXZ@QEBA@AEBUActor@@@Z
pdata	ENDS
;	COMDAT pdata
pdata	SEGMENT
$pdata$?<lambda_invoker_cdecl>@<lambda_3>@?EB@??DrawPropertiesWindow@UIProperties@@YAXXZ@SA@V?$basic_string@DU?$char_traits@D@std@@V?$allocator@D@2@@std@@@Z DD imagerel ?<lambda_invoker_cdecl>@<lambda_3>@?EB@??DrawPropertiesWindow@UIProperties@@YAXXZ@SA@V?$basic_string@DU?$char_traits@D@std@@V?$allocator@D@2@@std@@@Z
	DD	imagerel ?<lambda_invoker_cdecl>@<lambda_3>@?EB@??DrawPropertiesWindow@UIProperties@@YAXXZ@SA@V?$basic_string@DU?$char_traits@D@std@@V?$allocator@D@2@@std@@@Z+103
	DD	imagerel $unwind$?<lambda_invoker_cdecl>@<lambda_3>@?EB@??DrawPropertiesWindow@UIProperties@@YAXXZ@SA@V?$basic_string@DU?$char_traits@D@std@@V?$allocator@D@2@@std@@@Z
pdata	ENDS
;	COMDAT pdata
pdata	SEGMENT
$pdata$??R<lambda_1>@?BB@???R<lambda_3>@?EB@??DrawPropertiesWindow@UIProperties@@YAXXZ@QEBA@V?$basic_string@DU?$char_traits@D@std@@V?$allocator@D@2@@std@@@Z@QEBA@AEBUActor@@@Z DD imagerel ??R<lambda_1>@?BB@???R<lambda_3>@?EB@??DrawPropertiesWindow@UIProperties@@YAXXZ@QEBA@V?$basic_string@DU?$char_traits@D@std@@V?$allocator@D@2@@std@@@Z@QEBA@AEBUActor@@@Z
	DD	imagerel ??R<lambda_1>@?BB@???R<lambda_3>@?EB@??DrawPropertiesWindow@UIProperties@@YAXXZ@QEBA@V?$basic_string@DU?$char_traits@D@std@@V?$allocator@D@2@@std@@@Z@QEBA@AEBUActor@@@Z+42
	DD	imagerel $unwind$??R<lambda_1>@?BB@???R<lambda_3>@?EB@??DrawPropertiesWindow@UIProperties@@YAXXZ@QEBA@V?$basic_string@DU?$char_traits@D@std@@V?$allocator@D@2@@std@@@Z@QEBA@AEBUActor@@@Z
pdata	ENDS
;	COMDAT pdata
pdata	SEGMENT
$pdata$??R<lambda_3>@?EB@??DrawPropertiesWindow@UIProperties@@YAXXZ@QEBA@V?$basic_string@DU?$char_traits@D@std@@V?$allocator@D@2@@std@@@Z DD imagerel ??R<lambda_3>@?EB@??DrawPropertiesWindow@UIProperties@@YAXXZ@QEBA@V?$basic_string@DU?$char_traits@D@std@@V?$allocator@D@2@@std@@@Z
	DD	imagerel ??R<lambda_3>@?EB@??DrawPropertiesWindow@UIProperties@@YAXXZ@QEBA@V?$basic_string@DU?$char_traits@D@std@@V?$allocator@D@2@@std@@@Z+1632
	DD	imagerel $unwind$??R<lambda_3>@?EB@??DrawPropertiesWindow@UIProperties@@YAXXZ@QEBA@V?$basic_string@DU?$char_traits@D@std@@V?$allocator@D@2@@std@@@Z
pdata	ENDS
;	COMDAT pdata
pdata	SEGMENT
$pdata$?<lambda_invoker_cdecl>@<lambda_2>@?DI@??DrawPropertiesWindow@UIProperties@@YAXXZ@SA@XZ DD imagerel ?<lambda_invoker_cdecl>@<lambda_2>@?DI@??DrawPropertiesWindow@UIProperties@@YAXXZ@SA@XZ
	DD	imagerel ?<lambda_invoker_cdecl>@<lambda_2>@?DI@??DrawPropertiesWindow@UIProperties@@YAXXZ@SA@XZ+39
	DD	imagerel $unwind$?<lambda_invoker_cdecl>@<lambda_2>@?DI@??DrawPropertiesWindow@UIProperties@@YAXXZ@SA@XZ
pdata	ENDS
;	COMDAT pdata
pdata	SEGMENT
$pdata$??R<lambda_2>@?DI@??DrawPropertiesWindow@UIProperties@@YAXXZ@QEBA@XZ DD imagerel ??R<lambda_2>@?DI@??DrawPropertiesWindow@UIProperties@@YAXXZ@QEBA@XZ
	DD	imagerel ??R<lambda_2>@?DI@??DrawPropertiesWindow@UIProperties@@YAXXZ@QEBA@XZ+39
	DD	imagerel $unwind$??R<lambda_2>@?DI@??DrawPropertiesWindow@UIProperties@@YAXXZ@QEBA@XZ
pdata	ENDS
;	COMDAT pdata
pdata	SEGMENT
$pdata$??__FmFluidTypes@UIProperties@@YAXXZ DD imagerel ??__FmFluidTypes@UIProperties@@YAXXZ
	DD	imagerel ??__FmFluidTypes@UIProperties@@YAXXZ+102
	DD	imagerel $unwind$??__FmFluidTypes@UIProperties@@YAXXZ
pdata	ENDS
;	COMDAT pdata
pdata	SEGMENT
$pdata$??__EmFluidTypes@UIProperties@@YAXXZ DD imagerel ??__EmFluidTypes@UIProperties@@YAXXZ
	DD	imagerel ??__EmFluidTypes@UIProperties@@YAXXZ+120
	DD	imagerel $unwind$??__EmFluidTypes@UIProperties@@YAXXZ
pdata	ENDS
;	COMDAT pdata
pdata	SEGMENT
$pdata$??__FmFluidShapes@UIProperties@@YAXXZ DD imagerel ??__FmFluidShapes@UIProperties@@YAXXZ
	DD	imagerel ??__FmFluidShapes@UIProperties@@YAXXZ+102
	DD	imagerel $unwind$??__FmFluidShapes@UIProperties@@YAXXZ
pdata	ENDS
;	COMDAT pdata
pdata	SEGMENT
$pdata$??__EmFluidShapes@UIProperties@@YAXXZ DD imagerel ??__EmFluidShapes@UIProperties@@YAXXZ
	DD	imagerel ??__EmFluidShapes@UIProperties@@YAXXZ+108
	DD	imagerel $unwind$??__EmFluidShapes@UIProperties@@YAXXZ
pdata	ENDS
;	COMDAT pdata
pdata	SEGMENT
$pdata$?DrawPropertiesWindow@UIProperties@@YAXXZ DD imagerel $LN2355
	DD	imagerel $LN2355+15294
	DD	imagerel $unwind$?DrawPropertiesWindow@UIProperties@@YAXXZ
pdata	ENDS
;	COMDAT pdata
pdata	SEGMENT
$pdata$?dtor$11@?0??DrawPropertiesWindow@UIProperties@@YAXXZ@4HA DD imagerel ?dtor$11@?0??DrawPropertiesWindow@UIProperties@@YAXXZ@4HA
	DD	imagerel ?dtor$11@?0??DrawPropertiesWindow@UIProperties@@YAXXZ@4HA+44
	DD	imagerel $unwind$?dtor$11@?0??DrawPropertiesWindow@UIProperties@@YAXXZ@4HA
pdata	ENDS
;	COMDAT pdata
pdata	SEGMENT
$pdata$?dtor$12@?0??DrawPropertiesWindow@UIProperties@@YAXXZ@4HA DD imagerel ?dtor$12@?0??DrawPropertiesWindow@UIProperties@@YAXXZ@4HA
	DD	imagerel ?dtor$12@?0??DrawPropertiesWindow@UIProperties@@YAXXZ@4HA+44
	DD	imagerel $unwind$?dtor$12@?0??DrawPropertiesWindow@UIProperties@@YAXXZ@4HA
pdata	ENDS
;	COMDAT pdata
pdata	SEGMENT
$pdata$?dtor$86@?0??DrawPropertiesWindow@UIProperties@@YAXXZ@4HA DD imagerel ?dtor$86@?0??DrawPropertiesWindow@UIProperties@@YAXXZ@4HA
	DD	imagerel ?dtor$86@?0??DrawPropertiesWindow@UIProperties@@YAXXZ@4HA+47
	DD	imagerel $unwind$?dtor$86@?0??DrawPropertiesWindow@UIProperties@@YAXXZ@4HA
pdata	ENDS
;	COMDAT pdata
pdata	SEGMENT
$pdata$?dtor$87@?0??DrawPropertiesWindow@UIProperties@@YAXXZ@4HA DD imagerel ?dtor$87@?0??DrawPropertiesWindow@UIProperties@@YAXXZ@4HA
	DD	imagerel ?dtor$87@?0??DrawPropertiesWindow@UIProperties@@YAXXZ@4HA+47
	DD	imagerel $unwind$?dtor$87@?0??DrawPropertiesWindow@UIProperties@@YAXXZ@4HA
;	COMDAT xdata
xdata	SEGMENT
$unwind$?dtor$87@?0??DrawPropertiesWindow@UIProperties@@YAXXZ@4HA DD 020601H
	DD	050023206H
xdata	ENDS
;	COMDAT xdata
xdata	SEGMENT
$unwind$?dtor$86@?0??DrawPropertiesWindow@UIProperties@@YAXXZ@4HA DD 020601H
	DD	050023206H
xdata	ENDS
;	COMDAT xdata
xdata	SEGMENT
$unwind$?dtor$12@?0??DrawPropertiesWindow@UIProperties@@YAXXZ@4HA DD 020601H
	DD	050023206H
xdata	ENDS
;	COMDAT xdata
xdata	SEGMENT
$unwind$?dtor$11@?0??DrawPropertiesWindow@UIProperties@@YAXXZ@4HA DD 020601H
	DD	050023206H
xdata	ENDS
;	COMDAT xdata
xdata	SEGMENT
$ip2state$?DrawPropertiesWindow@UIProperties@@YAXXZ DB '%', 02H
	DB	'M', 02H
	DB	00H
	DB	'i', 02H
	DB	02H
	DB	'\'
	DB	00H
	DB	'5', 09H
	DB	04H
	DB	'*'
	DB	00H
	DB	080H
	DB	04H
	DB	'T'
	DB	00H
	DB	'Q', 02H
	DB	06H
	DB	0e4H
	DB	00H
	DB	'<'
	DB	08H
	DB	'D'
	DB	0aH
	DB	011H, 03H
	DB	0cH
	DB	'Z'
	DB	0eH
	DB	'J'
	DB	0cH
	DB	'z'
	DB	0aH
	DB	'$'
	DB	010H
	DB	'D'
	DB	012H
	DB	'F'
	DB	010H
	DB	082H
	DB	0aH
	DB	'H'
	DB	00H
	DB	0dH, 04H
	DB	014H
	DB	':'
	DB	016H
	DB	'$'
	DB	00H
	DB	0a1H, 06H
	DB	08H
	DB	05H, 013H
	DB	00H
	DB	09dH, 0cH
	DB	02H
	DB	','
	DB	018H
	DB	'>'
	DB	02H
	DB	'*'
	DB	00H
	DB	096H
	DB	02H
	DB	014H
	DB	00H
	DB	'0'
	DB	02H
	DB	' '
	DB	018H
	DB	'*'
	DB	01aH
	DB	'd'
	DB	00H
	DB	'0'
	DB	02H
	DB	' '
	DB	018H
	DB	'*'
	DB	01aH
	DB	'd'
	DB	00H
	DB	'0'
	DB	02H
	DB	' '
	DB	018H
	DB	'V'
	DB	01aH
	DB	'd'
	DB	00H
	DB	'0'
	DB	02H
	DB	' '
	DB	018H
	DB	'V'
	DB	01aH
	DB	'd'
	DB	00H
	DB	'0'
	DB	02H
	DB	' '
	DB	018H
	DB	'V'
	DB	01aH
	DB	'd'
	DB	00H
	DB	'0'
	DB	02H
	DB	' '
	DB	018H
	DB	'V'
	DB	01aH
	DB	'd'
	DB	00H
	DB	'0'
	DB	02H
	DB	' '
	DB	018H
	DB	'V'
	DB	01aH
	DB	'-', 02H
	DB	00H
	DB	'0'
	DB	02H
	DB	' '
	DB	018H
	DB	082H
	DB	01aH
	DB	't'
	DB	00H
	DB	'('
	DB	01cH
	DB	018H
	DB	00H
	DB	'z'
	DB	02H
	DB	','
	DB	018H
	DB	' '
	DB	01aH
	DB	'.'
	DB	018H
	DB	0a8H
	DB	00H
	DB	0b5H, 05H
	DB	02H
	DB	','
	DB	018H
	DB	' '
	DB	01aH
	DB	'*'
	DB	018H
	DB	'H'
	DB	00H
	DB	'f'
	DB	02H
	DB	','
	DB	018H
	DB	' '
	DB	01aH
	DB	'.'
	DB	018H
	DB	0a8H
	DB	00H
	DB	'=', 08H
	DB	01eH
	DB	0acH
	DB	' '
	DB	'l'
	DB	01eH
	DB	0b0H
	DB	00H
	DB	086H
	DB	'"'
	DB	0acH
	DB	'$'
	DB	'n'
	DB	'"'
	DB	0b0H
	DB	00H
	DB	086H
	DB	'&'
	DB	0acH
	DB	'('
	DB	'B'
	DB	'&'
	DB	0b0H
	DB	00H
	DB	086H
	DB	'*'
	DB	0acH
	DB	','
	DB	'B'
	DB	'*'
	DB	0b0H
	DB	00H
	DB	'~'
	DB	'.'
	DB	0acH
	DB	'0'
	DB	'R'
	DB	'.'
	DB	0d8H
	DB	00H
	DB	0e9H, 07H
	DB	'2'
	DB	090H
	DB	'4'
	DB	'Z'
	DB	'2'
	DB	'-', 02H
	DB	00H
	DB	'}', 02H
	DB	'6'
	DB	090H
	DB	'8'
	DB	'0'
	DB	'6'
	DB	'-', 02H
	DB	00H
	DB	0f1H, 02H
	DB	':'
	DB	0b2H
	DB	'<'
	DB	'B'
	DB	':'
	DB	0b0H
	DB	00H
	DB	0c1H, 02H
	DB	'>'
	DB	0b4H
	DB	'@'
	DB	'R'
	DB	'>'
	DB	'U', 02H
	DB	00H
	DB	0b5H, 011H
	DB	04H
	DB	0e6H
	DB	00H
	DB	05H, 04H
	DB	'B'
	DB	0a0H
	DB	'D'
	DB	'`'
	DB	'B'
	DB	'x'
	DB	00H
	DB	088H
	DB	08H
	DB	0caH
	DB	'F'
	DB	' '
	DB	'H'
	DB	'6'
	DB	'F'
	DB	098H
	DB	08H
	DB	01dH, 05H
	DB	'L'
	DB	0edH, 02H
	DB	00H
	DB	09H, 04H
	DB	'N'
	DB	'^'
	DB	'P'
	DB	'H'
	DB	00H
	DB	0b9H, 04H
	DB	08H
	DB	0c9H, 04H
	DB	00H
	DB	'5', 0fH
	DB	08H
	DB	0cH
	DB	00H
	DB	018H
	DB	02H
xdata	ENDS
;	COMDAT xdata
xdata	SEGMENT
$stateUnwindMap$?DrawPropertiesWindow@UIProperties@@YAXXZ DB 050H
	DB	0aH
	DD	imagerel ??1?$basic_string@DU?$char_traits@D@std@@V?$allocator@D@2@@std@@QEAA@XZ
	DB	0f0H
	DB	03aH
	DD	imagerel ??1?$basic_string@DU?$char_traits@D@std@@V?$allocator@D@2@@std@@QEAA@XZ
	DB	0b0H
	DB	06aH
	DD	imagerel ??1Actor@@QEAA@XZ
	DB	01H
	DB	0fH
	DB	0a2H
	DD	imagerel ??1Actor@@QEAA@XZ
	DB	0c1H
	DB	01cH
	DB	03aH
	DD	imagerel ??1Actor@@QEAA@XZ
	DB	01H
	DB	0fH
	DB	03eH
	DD	imagerel ?dtor$11@?0??DrawPropertiesWindow@UIProperties@@YAXXZ@4HA
	DB	02eH
	DD	imagerel ?dtor$12@?0??DrawPropertiesWindow@UIProperties@@YAXXZ@4HA
	DB	08aH
	DD	imagerel ??1?$basic_string@DU?$char_traits@D@std@@V?$allocator@D@2@@std@@QEAA@XZ
	DB	0f0H
	DB	032H
	DD	imagerel ??1?$basic_string@DU?$char_traits@D@std@@V?$allocator@D@2@@std@@QEAA@XZ
	DB	0b0H
	DB	089H
	DB	03H
	DD	imagerel ??1?$basic_string@DU?$char_traits@D@std@@V?$allocator@D@2@@std@@QEAA@XZ
	DB	0c1H
	DB	0eH
	DB	044H
	DD	imagerel ??1?$basic_string@DU?$char_traits@D@std@@V?$allocator@D@2@@std@@QEAA@XZ
	DB	0e1H
	DB	02H
	DB	065H
	DB	04H
	DD	imagerel ??1?$basic_string@DU?$char_traits@D@std@@V?$allocator@D@2@@std@@QEAA@XZ
	DB	0b0H
	DB	03aH
	DD	imagerel ??1?$basic_string@DU?$char_traits@D@std@@V?$allocator@D@2@@std@@QEAA@XZ
	DB	061H
	DB	02H
	DB	059H
	DB	05H
	DD	imagerel ??1?$basic_string@DU?$char_traits@D@std@@V?$allocator@D@2@@std@@QEAA@XZ
	DB	041H
	DB	03H
	DB	0d5H
	DB	05H
	DD	imagerel ??1?$basic_string@DU?$char_traits@D@std@@V?$allocator@D@2@@std@@QEAA@XZ
	DB	0a1H
	DB	0cH
	DB	042H
	DD	imagerel ??1?$basic_string@DU?$char_traits@D@std@@V?$allocator@D@2@@std@@QEAA@XZ
	DB	021H
	DB	08H
	DB	0c5H
	DB	06H
	DD	imagerel ??1?$basic_string@DU?$char_traits@D@std@@V?$allocator@D@2@@std@@QEAA@XZ
	DB	021H
	DB	0dH
	DB	042H
	DD	imagerel ??1?$basic_string@DU?$char_traits@D@std@@V?$allocator@D@2@@std@@QEAA@XZ
	DB	0a1H
	DB	08H
	DB	0b5H
	DB	07H
	DD	imagerel ??1?$basic_string@DU?$char_traits@D@std@@V?$allocator@D@2@@std@@QEAA@XZ
	DB	0a1H
	DB	0dH
	DB	042H
	DD	imagerel ??1?$basic_string@DU?$char_traits@D@std@@V?$allocator@D@2@@std@@QEAA@XZ
	DB	021H
	DB	09H
	DB	0a5H
	DB	08H
	DD	imagerel ??1?$basic_string@DU?$char_traits@D@std@@V?$allocator@D@2@@std@@QEAA@XZ
	DB	021H
	DB	0eH
	DB	042H
	DD	imagerel ??1?$basic_string@DU?$char_traits@D@std@@V?$allocator@D@2@@std@@QEAA@XZ
	DB	0a1H
	DB	09H
	DB	095H
	DB	09H
	DD	imagerel ??1?$basic_string@DU?$char_traits@D@std@@V?$allocator@D@2@@std@@QEAA@XZ
	DB	01H
	DB	06H
	DB	042H
	DD	imagerel ??1?$basic_string@DU?$char_traits@D@std@@V?$allocator@D@2@@std@@QEAA@XZ
	DB	021H
	DB	0aH
	DB	085H
	DB	0aH
	DD	imagerel ??1?$basic_string@DU?$char_traits@D@std@@V?$allocator@D@2@@std@@QEAA@XZ
	DB	081H
	DB	04H
	DB	042H
	DD	imagerel ??1?$basic_string@DU?$char_traits@D@std@@V?$allocator@D@2@@std@@QEAA@XZ
	DB	081H
	DB	05H
	DB	075H
	DB	0bH
	DD	imagerel ??1?$basic_string@DU?$char_traits@D@std@@V?$allocator@D@2@@std@@QEAA@XZ
	DB	041H
	DB	03H
	DB	042H
	DD	imagerel ??1?$basic_string@DU?$char_traits@D@std@@V?$allocator@D@2@@std@@QEAA@XZ
	DB	01H
	DB	04H
	DB	065H
	DB	0cH
	DD	imagerel ??1?$basic_string@DU?$char_traits@D@std@@V?$allocator@D@2@@std@@QEAA@XZ
	DB	021H
	DB	0bH
	DB	042H
	DD	imagerel ??1?$basic_string@DU?$char_traits@D@std@@V?$allocator@D@2@@std@@QEAA@XZ
	DB	0a1H
	DB	0aH
	DB	055H
	DB	0dH
	DD	imagerel ??1?$basic_string@DU?$char_traits@D@std@@V?$allocator@D@2@@std@@QEAA@XZ
	DB	0a1H
	DB	07H
	DB	042H
	DD	imagerel ??1?$basic_string@DU?$char_traits@D@std@@V?$allocator@D@2@@std@@QEAA@XZ
	DB	0a1H
	DB	0bH
	DB	04dH
	DB	0eH
	DD	imagerel ?dtor$86@?0??DrawPropertiesWindow@UIProperties@@YAXXZ@4HA
	DB	036H
	DD	imagerel ?dtor$87@?0??DrawPropertiesWindow@UIProperties@@YAXXZ@4HA
	DB	0b5H
	DB	0dH
	DD	imagerel ??1?$basic_string@DU?$char_traits@D@std@@V?$allocator@D@2@@std@@QEAA@XZ
	DB	021H
	DB	0cH
	DB	042H
	DD	imagerel ??1?$pair@$$CBV?$basic_string@DU?$char_traits@D@std@@V?$allocator@D@2@@std@@V12@@std@@QEAA@XZ
	DB	01H
	DB	06H
	DB	0a5H
	DB	0eH
	DD	imagerel ??1?$basic_string@DU?$char_traits@D@std@@V?$allocator@D@2@@std@@QEAA@XZ
	DB	041H
	DB	06H
	DB	025H
	DB	0fH
	DD	imagerel ??1Link@Actor@@QEAA@XZ
	DB	01H
	DB	06H
	DB	0e9H
	DB	010H
	DD	imagerel ??1?$basic_string@DU?$char_traits@D@std@@V?$allocator@D@2@@std@@QEAA@XZ
	DB	0c1H
	DB	03H
	DB	044H
	DD	imagerel ??1?$basic_string@DU?$char_traits@D@std@@V?$allocator@D@2@@std@@QEAA@XZ
	DB	041H
	DB	03H
xdata	ENDS
;	COMDAT xdata
xdata	SEGMENT
$cppxdata$?DrawPropertiesWindow@UIProperties@@YAXXZ DB 028H
	DD	imagerel $stateUnwindMap$?DrawPropertiesWindow@UIProperties@@YAXXZ
	DD	imagerel $ip2state$?DrawPropertiesWindow@UIProperties@@YAXXZ
xdata	ENDS
;	COMDAT xdata
xdata	SEGMENT
$unwind$?DrawPropertiesWindow@UIProperties@@YAXXZ DD 01d6619H
	DD	0b2d855H
	DD	0b3c84dH
	DD	0b4b845H
	DD	0b5a83dH
	DD	0b69838H
	DD	0b78833H
	DD	0b8782eH
	DD	0b9682aH
	DD	017c7426H
	DD	017b6426H
	DD	017a3426H
	DD	01740126H
	DD	0e016f018H
	DD	0c012d014H
	DD	05010H
	DD	imagerel __GSHandlerCheck_EH4
	DD	imagerel $cppxdata$?DrawPropertiesWindow@UIProperties@@YAXXZ
	DD	0b1aH
xdata	ENDS
;	COMDAT xdata
xdata	SEGMENT
$unwind$??__EmFluidShapes@UIProperties@@YAXXZ DD 020601H
	DD	030025206H
xdata	ENDS
;	COMDAT xdata
xdata	SEGMENT
$unwind$??__FmFluidShapes@UIProperties@@YAXXZ DD 010401H
	DD	04204H
xdata	ENDS
;	COMDAT xdata
xdata	SEGMENT
$unwind$??__EmFluidTypes@UIProperties@@YAXXZ DD 020601H
	DD	030027206H
xdata	ENDS
;	COMDAT xdata
xdata	SEGMENT
$unwind$??__FmFluidTypes@UIProperties@@YAXXZ DD 010401H
	DD	04204H
xdata	ENDS
;	COMDAT xdata
xdata	SEGMENT
$unwind$??R<lambda_2>@?DI@??DrawPropertiesWindow@UIProperties@@YAXXZ@QEBA@XZ DD 010401H
	DD	04204H
xdata	ENDS
;	COMDAT xdata
xdata	SEGMENT
$unwind$?<lambda_invoker_cdecl>@<lambda_2>@?DI@??DrawPropertiesWindow@UIProperties@@YAXXZ@SA@XZ DD 010401H
	DD	04204H
xdata	ENDS
;	COMDAT xdata
xdata	SEGMENT
$ip2state$??R<lambda_3>@?EB@??DrawPropertiesWindow@UIProperties@@YAXXZ@QEBA@V?$basic_string@DU?$char_traits@D@std@@V?$allocator@D@2@@std@@@Z DB 010H
	DB	0ddH, 0bH
	DB	06H
	DB	'U', 04H
	DB	02H
	DB	'$'
	DB	04H
	DB	09dH, 02H
	DB	02H
	DB	'\'
	DB	08H
	DB	'9', 03H
	DB	02H
	DB	0ccH
	DB	00H
	DB	'Z'
	DB	04H
xdata	ENDS
;	COMDAT xdata
xdata	SEGMENT
$stateUnwindMap$??R<lambda_3>@?EB@??DrawPropertiesWindow@UIProperties@@YAXXZ@QEBA@V?$basic_string@DU?$char_traits@D@std@@V?$allocator@D@2@@std@@@Z DB 08H
	DB	0cH
	DD	imagerel ??1?$basic_string@DU?$char_traits@D@std@@V?$allocator@D@2@@std@@QEAA@XZ
	DB	0c1H
	DB	01dH
	DB	03aH
	DD	imagerel ??1?$basic_string@DU?$char_traits@D@std@@V?$allocator@D@2@@std@@QEAA@XZ
	DB	050H
	DB	032H
	DD	imagerel ??1?$_Alloc_construct_ptr@V?$allocator@U?$_Tree_node@U?$pair@$$CBV?$basic_string@DU?$char_traits@D@std@@V?$allocator@D@2@@std@@UDynamicData@Actor@@@std@@PEAX@std@@@std@@@std@@QEAA@XZ
	DB	021H
	DB	02H
	DB	0a2H
	DD	imagerel ??1Actor@@QEAA@XZ
	DB	01H
	DB	01eH
xdata	ENDS
;	COMDAT xdata
xdata	SEGMENT
$cppxdata$??R<lambda_3>@?EB@??DrawPropertiesWindow@UIProperties@@YAXXZ@QEBA@V?$basic_string@DU?$char_traits@D@std@@V?$allocator@D@2@@std@@@Z DB 028H
	DD	imagerel $stateUnwindMap$??R<lambda_3>@?EB@??DrawPropertiesWindow@UIProperties@@YAXXZ@QEBA@V?$basic_string@DU?$char_traits@D@std@@V?$allocator@D@2@@std@@@Z
	DD	imagerel $ip2state$??R<lambda_3>@?EB@??DrawPropertiesWindow@UIProperties@@YAXXZ@QEBA@V?$basic_string@DU?$char_traits@D@std@@V?$allocator@D@2@@std@@@Z
xdata	ENDS
;	COMDAT xdata
xdata	SEGMENT
$unwind$??R<lambda_3>@?EB@??DrawPropertiesWindow@UIProperties@@YAXXZ@QEBA@V?$basic_string@DU?$char_traits@D@std@@V?$allocator@D@2@@std@@@Z DD 0d3819H
	DD	01697427H
	DD	01686427H
	DD	01663427H
	DD	01600127H
	DD	0e016f018H
	DD	0c012d014H
	DD	05010H
	DD	imagerel __GSHandlerCheck_EH4
	DD	imagerel $cppxdata$??R<lambda_3>@?EB@??DrawPropertiesWindow@UIProperties@@YAXXZ@QEBA@V?$basic_string@DU?$char_traits@D@std@@V?$allocator@D@2@@std@@@Z
	DD	0af2H
xdata	ENDS
;	COMDAT xdata
xdata	SEGMENT
$unwind$??R<lambda_1>@?BB@???R<lambda_3>@?EB@??DrawPropertiesWindow@UIProperties@@YAXXZ@QEBA@V?$basic_string@DU?$char_traits@D@std@@V?$allocator@D@2@@std@@@Z@QEBA@AEBUActor@@@Z DD 030901H
	DD	0720109H
	DD	03002H
xdata	ENDS
;	COMDAT xdata
xdata	SEGMENT
$ip2state$?<lambda_invoker_cdecl>@<lambda_3>@?EB@??DrawPropertiesWindow@UIProperties@@YAXXZ@SA@V?$basic_string@DU?$char_traits@D@std@@V?$allocator@D@2@@std@@@Z DB 04H
	DB	08cH
	DB	02H
	DB	','
	DB	00H
xdata	ENDS
;	COMDAT xdata
xdata	SEGMENT
$stateUnwindMap$?<lambda_invoker_cdecl>@<lambda_3>@?EB@??DrawPropertiesWindow@UIProperties@@YAXXZ@SA@V?$basic_string@DU?$char_traits@D@std@@V?$allocator@D@2@@std@@@Z DB 02H
	DB	0cH
	DD	imagerel ??1?$basic_string@DU?$char_traits@D@std@@V?$allocator@D@2@@std@@QEAA@XZ
	DB	090H
xdata	ENDS
;	COMDAT xdata
xdata	SEGMENT
$cppxdata$?<lambda_invoker_cdecl>@<lambda_3>@?EB@??DrawPropertiesWindow@UIProperties@@YAXXZ@SA@V?$basic_string@DU?$char_traits@D@std@@V?$allocator@D@2@@std@@@Z DB 028H
	DD	imagerel $stateUnwindMap$?<lambda_invoker_cdecl>@<lambda_3>@?EB@??DrawPropertiesWindow@UIProperties@@YAXXZ@SA@V?$basic_string@DU?$char_traits@D@std@@V?$allocator@D@2@@std@@@Z
	DD	imagerel $ip2state$?<lambda_invoker_cdecl>@<lambda_3>@?EB@??DrawPropertiesWindow@UIProperties@@YAXXZ@SA@V?$basic_string@DU?$char_traits@D@std@@V?$allocator@D@2@@std@@@Z
xdata	ENDS
;	COMDAT xdata
xdata	SEGMENT
$unwind$?<lambda_invoker_cdecl>@<lambda_3>@?EB@??DrawPropertiesWindow@UIProperties@@YAXXZ@SA@V?$basic_string@DU?$char_traits@D@std@@V?$allocator@D@2@@std@@@Z DD 021519H
	DD	03002b206H
	DD	imagerel __GSHandlerCheck_EH4
	DD	imagerel $cppxdata$?<lambda_invoker_cdecl>@<lambda_3>@?EB@??DrawPropertiesWindow@UIProperties@@YAXXZ@SA@V?$basic_string@DU?$char_traits@D@std@@V?$allocator@D@2@@std@@@Z
	DD	052H
xdata	ENDS
;	COMDAT xdata
xdata	SEGMENT
$unwind$??R<lambda_4>@?EG@??DrawPropertiesWindow@UIProperties@@YAXXZ@QEBA@AEBUActor@@@Z DD 040a01H
	DD	06340aH
	DD	07006320aH
xdata	ENDS
;	COMDAT xdata
xdata	SEGMENT
$ip2state$?<lambda_invoker_cdecl>@<lambda_5>@?GG@??DrawPropertiesWindow@UIProperties@@YAXXZ@SA@V?$basic_string@DU?$char_traits@D@std@@V?$allocator@D@2@@std@@UDynamicData@Actor@@@Z DB 08H
	DB	084H
	DB	04H
	DB	01cH
	DB	06H
	DB	'<'
	DB	08H
	DB	0c2H
	DB	00H
xdata	ENDS
;	COMDAT xdata
xdata	SEGMENT
$stateUnwindMap$?<lambda_invoker_cdecl>@<lambda_5>@?GG@??DrawPropertiesWindow@UIProperties@@YAXXZ@SA@V?$basic_string@DU?$char_traits@D@std@@V?$allocator@D@2@@std@@UDynamicData@Actor@@@Z DB 08H
	DB	0cH
	DD	imagerel ??1DynamicData@Actor@@QEAA@XZ
	DB	021H
	DB	02H
	DB	03cH
	DD	imagerel ??1?$basic_string@DU?$char_traits@D@std@@V?$allocator@D@2@@std@@QEAA@XZ
	DB	01H
	DB	02H
	DB	03aH
	DD	imagerel ??1?$basic_string@DU?$char_traits@D@std@@V?$allocator@D@2@@std@@QEAA@XZ
	DB	040H
	DB	06aH
	DD	imagerel ??1?$pair@$$CBV?$basic_string@DU?$char_traits@D@std@@V?$allocator@D@2@@std@@UDynamicData@Actor@@@std@@QEAA@XZ
	DB	040H
xdata	ENDS
;	COMDAT xdata
xdata	SEGMENT
$cppxdata$?<lambda_invoker_cdecl>@<lambda_5>@?GG@??DrawPropertiesWindow@UIProperties@@YAXXZ@SA@V?$basic_string@DU?$char_traits@D@std@@V?$allocator@D@2@@std@@UDynamicData@Actor@@@Z DB 028H
	DD	imagerel $stateUnwindMap$?<lambda_invoker_cdecl>@<lambda_5>@?GG@??DrawPropertiesWindow@UIProperties@@YAXXZ@SA@V?$basic_string@DU?$char_traits@D@std@@V?$allocator@D@2@@std@@UDynamicData@Actor@@@Z
	DD	imagerel $ip2state$?<lambda_invoker_cdecl>@<lambda_5>@?GG@??DrawPropertiesWindow@UIProperties@@YAXXZ@SA@V?$basic_string@DU?$char_traits@D@std@@V?$allocator@D@2@@std@@UDynamicData@Actor@@@Z
xdata	ENDS
;	COMDAT xdata
xdata	SEGMENT
$unwind$?<lambda_invoker_cdecl>@<lambda_5>@?GG@??DrawPropertiesWindow@UIProperties@@YAXXZ@SA@V?$basic_string@DU?$char_traits@D@std@@V?$allocator@D@2@@std@@UDynamicData@Actor@@@Z DD 072519H
	DD	0196413H
	DD	0183413H
	DD	0140113H
	DD	0700cH
	DD	imagerel __GSHandlerCheck_EH4
	DD	imagerel $cppxdata$?<lambda_invoker_cdecl>@<lambda_5>@?GG@??DrawPropertiesWindow@UIProperties@@YAXXZ@SA@V?$basic_string@DU?$char_traits@D@std@@V?$allocator@D@2@@std@@UDynamicData@Actor@@@Z
	DD	092H
xdata	ENDS
;	COMDAT xdata
xdata	SEGMENT
$ip2state$?<lambda_invoker_cdecl>@<lambda_6>@?HO@??DrawPropertiesWindow@UIProperties@@YAXXZ@SA@V?$basic_string@DU?$char_traits@D@std@@V?$allocator@D@2@@std@@0@Z DB 08H
	DB	086H
	DB	04H
	DB	01cH
	DB	06H
	DB	'.'
	DB	08H
	DB	'n'
	DB	00H
xdata	ENDS
;	COMDAT xdata
xdata	SEGMENT
$stateUnwindMap$?<lambda_invoker_cdecl>@<lambda_6>@?HO@??DrawPropertiesWindow@UIProperties@@YAXXZ@SA@V?$basic_string@DU?$char_traits@D@std@@V?$allocator@D@2@@std@@0@Z DB 08H
	DB	0cH
	DD	imagerel ??1?$basic_string@DU?$char_traits@D@std@@V?$allocator@D@2@@std@@QEAA@XZ
	DB	0f0H
	DB	034H
	DD	imagerel ??1?$basic_string@DU?$char_traits@D@std@@V?$allocator@D@2@@std@@QEAA@XZ
	DB	0e0H
	DB	032H
	DD	imagerel ??1?$basic_string@DU?$char_traits@D@std@@V?$allocator@D@2@@std@@QEAA@XZ
	DB	040H
	DB	062H
	DD	imagerel ??1?$pair@$$CBV?$basic_string@DU?$char_traits@D@std@@V?$allocator@D@2@@std@@V12@@std@@QEAA@XZ
	DB	040H
xdata	ENDS
;	COMDAT xdata
xdata	SEGMENT
$cppxdata$?<lambda_invoker_cdecl>@<lambda_6>@?HO@??DrawPropertiesWindow@UIProperties@@YAXXZ@SA@V?$basic_string@DU?$char_traits@D@std@@V?$allocator@D@2@@std@@0@Z DB 028H
	DD	imagerel $stateUnwindMap$?<lambda_invoker_cdecl>@<lambda_6>@?HO@??DrawPropertiesWindow@UIProperties@@YAXXZ@SA@V?$basic_string@DU?$char_traits@D@std@@V?$allocator@D@2@@std@@0@Z
	DD	imagerel $ip2state$?<lambda_invoker_cdecl>@<lambda_6>@?HO@??DrawPropertiesWindow@UIProperties@@YAXXZ@SA@V?$basic_string@DU?$char_traits@D@std@@V?$allocator@D@2@@std@@0@Z
xdata	ENDS
;	COMDAT xdata
xdata	SEGMENT
$unwind$?<lambda_invoker_cdecl>@<lambda_6>@?HO@??DrawPropertiesWindow@UIProperties@@YAXXZ@SA@V?$basic_string@DU?$char_traits@D@std@@V?$allocator@D@2@@std@@0@Z DD 072419H
	DD	0176412H
	DD	0163412H
	DD	0120112H
	DD	0700bH
	DD	imagerel __GSHandlerCheck_EH4
	DD	imagerel $cppxdata$?<lambda_invoker_cdecl>@<lambda_6>@?HO@??DrawPropertiesWindow@UIProperties@@YAXXZ@SA@V?$basic_string@DU?$char_traits@D@std@@V?$allocator@D@2@@std@@0@Z
	DD	082H
xdata	ENDS
;	COMDAT xdata
xdata	SEGMENT
$ip2state$?<lambda_invoker_cdecl>@<lambda_7>@?IM@??DrawPropertiesWindow@UIProperties@@YAXXZ@SA@_K0V?$basic_string@DU?$char_traits@D@std@@V?$allocator@D@2@@std@@1@Z DB 08H
	DB	08cH
	DB	04H
	DB	01cH
	DB	06H
	DB	01dH, 02H
	DB	08H
	DB	'n'
	DB	00H
xdata	ENDS
;	COMDAT xdata
xdata	SEGMENT
$stateUnwindMap$?<lambda_invoker_cdecl>@<lambda_7>@?IM@??DrawPropertiesWindow@UIProperties@@YAXXZ@SA@_K0V?$basic_string@DU?$char_traits@D@std@@V?$allocator@D@2@@std@@1@Z DB 08H
	DB	0cH
	DD	imagerel ??1?$basic_string@DU?$char_traits@D@std@@V?$allocator@D@2@@std@@QEAA@XZ
	DB	0f0H
	DB	034H
	DD	imagerel ??1?$basic_string@DU?$char_traits@D@std@@V?$allocator@D@2@@std@@QEAA@XZ
	DB	0e0H
	DB	032H
	DD	imagerel ??1?$basic_string@DU?$char_traits@D@std@@V?$allocator@D@2@@std@@QEAA@XZ
	DB	060H
	DB	062H
	DD	imagerel ??1Link@Actor@@QEAA@XZ
	DB	040H
xdata	ENDS
;	COMDAT xdata
xdata	SEGMENT
$cppxdata$?<lambda_invoker_cdecl>@<lambda_7>@?IM@??DrawPropertiesWindow@UIProperties@@YAXXZ@SA@_K0V?$basic_string@DU?$char_traits@D@std@@V?$allocator@D@2@@std@@1@Z DB 028H
	DD	imagerel $stateUnwindMap$?<lambda_invoker_cdecl>@<lambda_7>@?IM@??DrawPropertiesWindow@UIProperties@@YAXXZ@SA@_K0V?$basic_string@DU?$char_traits@D@std@@V?$allocator@D@2@@std@@1@Z
	DD	imagerel $ip2state$?<lambda_invoker_cdecl>@<lambda_7>@?IM@??DrawPropertiesWindow@UIProperties@@YAXXZ@SA@_K0V?$basic_string@DU?$char_traits@D@std@@V?$allocator@D@2@@std@@1@Z
xdata	ENDS
;	COMDAT xdata
xdata	SEGMENT
$unwind$?<lambda_invoker_cdecl>@<lambda_7>@?IM@??DrawPropertiesWindow@UIProperties@@YAXXZ@SA@_K0V?$basic_string@DU?$char_traits@D@std@@V?$allocator@D@2@@std@@1@Z DD 051d19H
	DD	012010bH
	DD	060037004H
	DD	03002H
	DD	imagerel __GSHandlerCheck_EH4
	DD	imagerel $cppxdata$?<lambda_invoker_cdecl>@<lambda_7>@?IM@??DrawPropertiesWindow@UIProperties@@YAXXZ@SA@_K0V?$basic_string@DU?$char_traits@D@std@@V?$allocator@D@2@@std@@1@Z
	DD	082H
xdata	ENDS
;	COMDAT xdata
xdata	SEGMENT
$ip2state$?<lambda_invoker_cdecl>@<lambda_8>@?JM@??DrawPropertiesWindow@UIProperties@@YAXXZ@SA@_KV?$basic_string@DU?$char_traits@D@std@@V?$allocator@D@2@@std@@1@Z DB 08H
	DB	'|'
	DB	04H
	DB	01cH
	DB	06H
	DB	0fcH
	DB	08H
	DB	'n'
	DB	00H
xdata	ENDS
;	COMDAT xdata
xdata	SEGMENT
$stateUnwindMap$?<lambda_invoker_cdecl>@<lambda_8>@?JM@??DrawPropertiesWindow@UIProperties@@YAXXZ@SA@_KV?$basic_string@DU?$char_traits@D@std@@V?$allocator@D@2@@std@@1@Z DB 08H
	DB	0cH
	DD	imagerel ??1?$basic_string@DU?$char_traits@D@std@@V?$allocator@D@2@@std@@QEAA@XZ
	DB	0f0H
	DB	034H
	DD	imagerel ??1?$basic_string@DU?$char_traits@D@std@@V?$allocator@D@2@@std@@QEAA@XZ
	DB	0e0H
	DB	032H
	DD	imagerel ??1?$basic_string@DU?$char_traits@D@std@@V?$allocator@D@2@@std@@QEAA@XZ
	DB	050H
	DB	062H
	DD	imagerel ??1Rail@Actor@@QEAA@XZ
	DB	040H
xdata	ENDS
;	COMDAT xdata
xdata	SEGMENT
$cppxdata$?<lambda_invoker_cdecl>@<lambda_8>@?JM@??DrawPropertiesWindow@UIProperties@@YAXXZ@SA@_KV?$basic_string@DU?$char_traits@D@std@@V?$allocator@D@2@@std@@1@Z DB 028H
	DD	imagerel $stateUnwindMap$?<lambda_invoker_cdecl>@<lambda_8>@?JM@??DrawPropertiesWindow@UIProperties@@YAXXZ@SA@_KV?$basic_string@DU?$char_traits@D@std@@V?$allocator@D@2@@std@@1@Z
	DD	imagerel $ip2state$?<lambda_invoker_cdecl>@<lambda_8>@?JM@??DrawPropertiesWindow@UIProperties@@YAXXZ@SA@_KV?$basic_string@DU?$char_traits@D@std@@V?$allocator@D@2@@std@@1@Z
xdata	ENDS
;	COMDAT xdata
xdata	SEGMENT
$unwind$?<lambda_invoker_cdecl>@<lambda_8>@?JM@??DrawPropertiesWindow@UIProperties@@YAXXZ@SA@_KV?$basic_string@DU?$char_traits@D@std@@V?$allocator@D@2@@std@@1@Z DD 051d19H
	DD	012010bH
	DD	060037004H
	DD	03002H
	DD	imagerel __GSHandlerCheck_EH4
	DD	imagerel $cppxdata$?<lambda_invoker_cdecl>@<lambda_8>@?JM@??DrawPropertiesWindow@UIProperties@@YAXXZ@SA@_KV?$basic_string@DU?$char_traits@D@std@@V?$allocator@D@2@@std@@1@Z
	DD	082H
xdata	ENDS
;	COMDAT xdata
xdata	SEGMENT
$ip2state$?<lambda_invoker_cdecl>@<lambda_9>@?NJ@??DrawPropertiesWindow@UIProperties@@YAXXZ@SA@V?$basic_string@DU?$char_traits@D@std@@V?$allocator@D@2@@std@@@Z DB 010H
	DB	098H
	DB	02H
	DB	01aH
	DB	04H
	DB	0c4H
	DB	06H
	DB	'r'
	DB	08H
	DB	'R'
	DB	06H
	DB	'9', 02H
	DB	04H
	DB	'U', 04H
	DB	0cH
	DB	't'
	DB	00H
xdata	ENDS
;	COMDAT xdata
xdata	SEGMENT
$stateUnwindMap$?<lambda_invoker_cdecl>@<lambda_9>@?NJ@??DrawPropertiesWindow@UIProperties@@YAXXZ@SA@V?$basic_string@DU?$char_traits@D@std@@V?$allocator@D@2@@std@@@Z DB 0cH
	DB	0cH
	DD	imagerel ??1?$basic_string@DU?$char_traits@D@std@@V?$allocator@D@2@@std@@QEAA@XZ
	DB	0a1H
	DB	010H
	DB	03aH
	DD	imagerel ??1Actor@@QEAA@XZ
	DB	0c1H
	DB	010H
	DB	03aH
	DD	imagerel ??1?$basic_string@DU?$char_traits@D@std@@V?$allocator@D@2@@std@@QEAA@XZ
	DB	01H
	DB	02H
	DB	03aH
	DD	imagerel ??1?$pair@$$CBV?$basic_string@DU?$char_traits@D@std@@V?$allocator@D@2@@std@@V12@@std@@QEAA@XZ
	DB	040H
	DB	0a2H
	DD	imagerel ??1?$basic_string@DU?$char_traits@D@std@@V?$allocator@D@2@@std@@QEAA@XZ
	DB	060H
	DB	0d2H
	DD	imagerel ??1Link@Actor@@QEAA@XZ
	DB	040H
xdata	ENDS
;	COMDAT xdata
xdata	SEGMENT
$cppxdata$?<lambda_invoker_cdecl>@<lambda_9>@?NJ@??DrawPropertiesWindow@UIProperties@@YAXXZ@SA@V?$basic_string@DU?$char_traits@D@std@@V?$allocator@D@2@@std@@@Z DB 028H
	DD	imagerel $stateUnwindMap$?<lambda_invoker_cdecl>@<lambda_9>@?NJ@??DrawPropertiesWindow@UIProperties@@YAXXZ@SA@V?$basic_string@DU?$char_traits@D@std@@V?$allocator@D@2@@std@@@Z
	DD	imagerel $ip2state$?<lambda_invoker_cdecl>@<lambda_9>@?NJ@??DrawPropertiesWindow@UIProperties@@YAXXZ@SA@V?$basic_string@DU?$char_traits@D@std@@V?$allocator@D@2@@std@@@Z
xdata	ENDS
;	COMDAT xdata
xdata	SEGMENT
$unwind$?<lambda_invoker_cdecl>@<lambda_9>@?NJ@??DrawPropertiesWindow@UIProperties@@YAXXZ@SA@V?$basic_string@DU?$char_traits@D@std@@V?$allocator@D@2@@std@@@Z DD 0b3419H
	DD	0fd7423H
	DD	0fc6423H
	DD	0fb3423H
	DD	0f60123H
	DD	0e012f014H
	DD	05010H
	DD	imagerel __GSHandlerCheck_EH4
	DD	imagerel $cppxdata$?<lambda_invoker_cdecl>@<lambda_9>@?NJ@??DrawPropertiesWindow@UIProperties@@YAXXZ@SA@V?$basic_string@DU?$char_traits@D@std@@V?$allocator@D@2@@std@@@Z
	DD	07a2H
xdata	ENDS
;	COMDAT xdata
xdata	SEGMENT
$chain$1$?erase@?$vector@URail@Actor@@V?$allocator@URail@Actor@@@std@@@std@@QEAA?AV?$_Vector_iterator@V?$_Vector_val@U?$_Simple_types@URail@Actor@@@std@@@std@@@2@V?$_Vector_const_iterator@V?$_Vector_val@U?$_Simple_types@URail@Actor@@@std@@@std@@@2@@Z DD 021H
	DD	imagerel $LN37
	DD	imagerel $LN37+47
	DD	imagerel $unwind$?erase@?$vector@URail@Actor@@V?$allocator@URail@Actor@@@std@@@std@@QEAA?AV?$_Vector_iterator@V?$_Vector_val@U?$_Simple_types@URail@Actor@@@std@@@std@@@2@V?$_Vector_const_iterator@V?$_Vector_val@U?$_Simple_types@URail@Actor@@@std@@@std@@@2@@Z
xdata	ENDS
;	COMDAT xdata
xdata	SEGMENT
$chain$0$?erase@?$vector@URail@Actor@@V?$allocator@URail@Actor@@@std@@@std@@QEAA?AV?$_Vector_iterator@V?$_Vector_val@U?$_Simple_types@URail@Actor@@@std@@@std@@@2@V?$_Vector_const_iterator@V?$_Vector_val@U?$_Simple_types@URail@Actor@@@std@@@std@@@2@@Z DD 020521H
	DD	086405H
	DD	imagerel $LN37
	DD	imagerel $LN37+47
	DD	imagerel $unwind$?erase@?$vector@URail@Actor@@V?$allocator@URail@Actor@@@std@@@std@@QEAA?AV?$_Vector_iterator@V?$_Vector_val@U?$_Simple_types@URail@Actor@@@std@@@std@@@2@V?$_Vector_const_iterator@V?$_Vector_val@U?$_Simple_types@URail@Actor@@@std@@@std@@@2@@Z
xdata	ENDS
;	COMDAT xdata
xdata	SEGMENT
$unwind$?erase@?$vector@URail@Actor@@V?$allocator@URail@Actor@@@std@@@std@@QEAA?AV?$_Vector_iterator@V?$_Vector_val@U?$_Simple_types@URail@Actor@@@std@@@std@@@2@V?$_Vector_const_iterator@V?$_Vector_val@U?$_Simple_types@URail@Actor@@@std@@@std@@@2@@Z DD 0a1901H
	DD	0b7419H
	DD	0a5419H
	DD	093419H
	DD	0f0153219H
	DD	0c011e013H
xdata	ENDS
;	COMDAT xdata
xdata	SEGMENT
$chain$4$?erase@?$vector@ULink@Actor@@V?$allocator@ULink@Actor@@@std@@@std@@QEAA?AV?$_Vector_iterator@V?$_Vector_val@U?$_Simple_types@ULink@Actor@@@std@@@std@@@2@V?$_Vector_const_iterator@V?$_Vector_val@U?$_Simple_types@ULink@Actor@@@std@@@std@@@2@0@Z DD 021H
	DD	imagerel $LN39
	DD	imagerel $LN39+30
	DD	imagerel $unwind$?erase@?$vector@ULink@Actor@@V?$allocator@ULink@Actor@@@std@@@std@@QEAA?AV?$_Vector_iterator@V?$_Vector_val@U?$_Simple_types@ULink@Actor@@@std@@@std@@@2@V?$_Vector_const_iterator@V?$_Vector_val@U?$_Simple_types@ULink@Actor@@@std@@@std@@@2@0@Z
xdata	ENDS
;	COMDAT xdata
xdata	SEGMENT
$chain$3$?erase@?$vector@ULink@Actor@@V?$allocator@ULink@Actor@@@std@@@std@@QEAA?AV?$_Vector_iterator@V?$_Vector_val@U?$_Simple_types@ULink@Actor@@@std@@@std@@@2@V?$_Vector_const_iterator@V?$_Vector_val@U?$_Simple_types@ULink@Actor@@@std@@@std@@@2@0@Z DD 021H
	DD	imagerel $LN39+30
	DD	imagerel $LN39+57
	DD	imagerel $chain$1$?erase@?$vector@ULink@Actor@@V?$allocator@ULink@Actor@@@std@@@std@@QEAA?AV?$_Vector_iterator@V?$_Vector_val@U?$_Simple_types@ULink@Actor@@@std@@@std@@@2@V?$_Vector_const_iterator@V?$_Vector_val@U?$_Simple_types@ULink@Actor@@@std@@@std@@@2@0@Z
xdata	ENDS
;	COMDAT xdata
xdata	SEGMENT
$chain$2$?erase@?$vector@ULink@Actor@@V?$allocator@ULink@Actor@@@std@@@std@@QEAA?AV?$_Vector_iterator@V?$_Vector_val@U?$_Simple_types@ULink@Actor@@@std@@@std@@@2@V?$_Vector_const_iterator@V?$_Vector_val@U?$_Simple_types@ULink@Actor@@@std@@@std@@@2@0@Z DD 020521H
	DD	097405H
	DD	imagerel $LN39+30
	DD	imagerel $LN39+57
	DD	imagerel $chain$1$?erase@?$vector@ULink@Actor@@V?$allocator@ULink@Actor@@@std@@@std@@QEAA?AV?$_Vector_iterator@V?$_Vector_val@U?$_Simple_types@ULink@Actor@@@std@@@std@@@2@V?$_Vector_const_iterator@V?$_Vector_val@U?$_Simple_types@ULink@Actor@@@std@@@std@@@2@0@Z
xdata	ENDS
;	COMDAT xdata
xdata	SEGMENT
$chain$1$?erase@?$vector@ULink@Actor@@V?$allocator@ULink@Actor@@@std@@@std@@QEAA?AV?$_Vector_iterator@V?$_Vector_val@U?$_Simple_types@ULink@Actor@@@std@@@std@@@2@V?$_Vector_const_iterator@V?$_Vector_val@U?$_Simple_types@ULink@Actor@@@std@@@std@@@2@0@Z DD 040a21H
	DD	0ae40aH
	DD	085405H
	DD	imagerel $LN39
	DD	imagerel $LN39+30
	DD	imagerel $unwind$?erase@?$vector@ULink@Actor@@V?$allocator@ULink@Actor@@@std@@@std@@QEAA?AV?$_Vector_iterator@V?$_Vector_val@U?$_Simple_types@ULink@Actor@@@std@@@std@@@2@V?$_Vector_const_iterator@V?$_Vector_val@U?$_Simple_types@ULink@Actor@@@std@@@std@@@2@0@Z
xdata	ENDS
;	COMDAT xdata
xdata	SEGMENT
$unwind$?erase@?$vector@ULink@Actor@@V?$allocator@ULink@Actor@@@std@@@std@@QEAA?AV?$_Vector_iterator@V?$_Vector_val@U?$_Simple_types@ULink@Actor@@@std@@@std@@@2@V?$_Vector_const_iterator@V?$_Vector_val@U?$_Simple_types@ULink@Actor@@@std@@@std@@@2@0@Z DD 040901H
	DD	0f0053209H
	DD	030026003H
xdata	ENDS
;	COMDAT xdata
xdata	SEGMENT
$unwind$?erase@?$vector@ULink@Actor@@V?$allocator@ULink@Actor@@@std@@@std@@QEAA?AV?$_Vector_iterator@V?$_Vector_val@U?$_Simple_types@ULink@Actor@@@std@@@std@@@2@V?$_Vector_const_iterator@V?$_Vector_val@U?$_Simple_types@ULink@Actor@@@std@@@std@@@2@@Z DD 081501H
	DD	087415H
	DD	076415H
	DD	063415H
	DD	0e0113215H
xdata	ENDS
;	COMDAT xdata
xdata	SEGMENT
$chain$1$??$remove_if@V?$_Vector_iterator@V?$_Vector_val@U?$_Simple_types@ULink@Actor@@@std@@@std@@@std@@V<lambda_1>@?CC@??DrawPropertiesWindow@UIProperties@@YAXXZ@@std@@YA?AV?$_Vector_iterator@V?$_Vector_val@U?$_Simple_types@ULink@Actor@@@std@@@std@@@0@V10@V10@V<lambda_1>@?CC@??DrawPropertiesWindow@UIProperties@@YAXXZ@@Z DD 021H
	DD	imagerel ??$remove_if@V?$_Vector_iterator@V?$_Vector_val@U?$_Simple_types@ULink@Actor@@@std@@@std@@@std@@V<lambda_1>@?CC@??DrawPropertiesWindow@UIProperties@@YAXXZ@@std@@YA?AV?$_Vector_iterator@V?$_Vector_val@U?$_Simple_types@ULink@Actor@@@std@@@std@@@0@V10@V10@V<lambda_1>@?CC@??DrawPropertiesWindow@UIProperties@@YAXXZ@@Z
	DD	imagerel ??$remove_if@V?$_Vector_iterator@V?$_Vector_val@U?$_Simple_types@ULink@Actor@@@std@@@std@@@std@@V<lambda_1>@?CC@??DrawPropertiesWindow@UIProperties@@YAXXZ@@std@@YA?AV?$_Vector_iterator@V?$_Vector_val@U?$_Simple_types@ULink@Actor@@@std@@@std@@@0@V10@V10@V<lambda_1>@?CC@??DrawPropertiesWindow@UIProperties@@YAXXZ@@Z+162
	DD	imagerel $unwind$??$remove_if@V?$_Vector_iterator@V?$_Vector_val@U?$_Simple_types@ULink@Actor@@@std@@@std@@@std@@V<lambda_1>@?CC@??DrawPropertiesWindow@UIProperties@@YAXXZ@@std@@YA?AV?$_Vector_iterator@V?$_Vector_val@U?$_Simple_types@ULink@Actor@@@std@@@std@@@0@V10@V10@V<lambda_1>@?CC@??DrawPropertiesWindow@UIProperties@@YAXXZ@@Z
xdata	ENDS
;	COMDAT xdata
xdata	SEGMENT
$chain$0$??$remove_if@V?$_Vector_iterator@V?$_Vector_val@U?$_Simple_types@ULink@Actor@@@std@@@std@@@std@@V<lambda_1>@?CC@??DrawPropertiesWindow@UIProperties@@YAXXZ@@std@@YA?AV?$_Vector_iterator@V?$_Vector_val@U?$_Simple_types@ULink@Actor@@@std@@@std@@@0@V10@V10@V<lambda_1>@?CC@??DrawPropertiesWindow@UIProperties@@YAXXZ@@Z DD 020521H
	DD	096405H
	DD	imagerel ??$remove_if@V?$_Vector_iterator@V?$_Vector_val@U?$_Simple_types@ULink@Actor@@@std@@@std@@@std@@V<lambda_1>@?CC@??DrawPropertiesWindow@UIProperties@@YAXXZ@@std@@YA?AV?$_Vector_iterator@V?$_Vector_val@U?$_Simple_types@ULink@Actor@@@std@@@std@@@0@V10@V10@V<lambda_1>@?CC@??DrawPropertiesWindow@UIProperties@@YAXXZ@@Z
	DD	imagerel ??$remove_if@V?$_Vector_iterator@V?$_Vector_val@U?$_Simple_types@ULink@Actor@@@std@@@std@@@std@@V<lambda_1>@?CC@??DrawPropertiesWindow@UIProperties@@YAXXZ@@std@@YA?AV?$_Vector_iterator@V?$_Vector_val@U?$_Simple_types@ULink@Actor@@@std@@@std@@@0@V10@V10@V<lambda_1>@?CC@??DrawPropertiesWindow@UIProperties@@YAXXZ@@Z+162
	DD	imagerel $unwind$??$remove_if@V?$_Vector_iterator@V?$_Vector_val@U?$_Simple_types@ULink@Actor@@@std@@@std@@@std@@V<lambda_1>@?CC@??DrawPropertiesWindow@UIProperties@@YAXXZ@@std@@YA?AV?$_Vector_iterator@V?$_Vector_val@U?$_Simple_types@ULink@Actor@@@std@@@std@@@0@V10@V10@V<lambda_1>@?CC@??DrawPropertiesWindow@UIProperties@@YAXXZ@@Z
xdata	ENDS
;	COMDAT xdata
xdata	SEGMENT
$unwind$??$remove_if@V?$_Vector_iterator@V?$_Vector_val@U?$_Simple_types@ULink@Actor@@@std@@@std@@@std@@V<lambda_1>@?CC@??DrawPropertiesWindow@UIProperties@@YAXXZ@@std@@YA?AV?$_Vector_iterator@V?$_Vector_val@U?$_Simple_types@ULink@Actor@@@std@@@std@@@0@V10@V10@V<lambda_1>@?CC@??DrawPropertiesWindow@UIProperties@@YAXXZ@@Z DD 061f19H
	DD	0b7410H
	DD	0a3410H
	DD	0e00c5210H
	DD	imagerel __GSHandlerCheck
	DD	020H
xdata	ENDS
;	COMDAT xdata
xdata	SEGMENT
$unwind$??4Link@Actor@@QEAAAEAU01@$$QEAU01@@Z DD 040a01H
	DD	06340aH
	DD	07006320aH
xdata	ENDS
;	COMDAT xdata
xdata	SEGMENT
$chain$1$??$remove_if@V?$_Vector_iterator@V?$_Vector_val@U?$_Simple_types@UActor@@@std@@@std@@@std@@V<lambda_1>@?BB@???R<lambda_3>@?EB@??DrawPropertiesWindow@UIProperties@@YAXXZ@QEBA@V?$basic_string@DU?$char_traits@D@std@@V?$allocator@D@2@@2@@Z@@std@@YA?AV?$_Vector_iterator@V?$_Vector_val@U?$_Simple_types@UActor@@@std@@@std@@@0@V10@V10@V<lambda_1>@?BB@???R<lambda_3>@?EB@??DrawPropertiesWindow@UIProperties@@YAXXZ@QEBA@V?$basic_string@DU?$char_traits@D@std@@V?$allocator@D@2@@0@@Z@@Z DD 021H
	DD	imagerel ??$remove_if@V?$_Vector_iterator@V?$_Vector_val@U?$_Simple_types@UActor@@@std@@@std@@@std@@V<lambda_1>@?BB@???R<lambda_3>@?EB@??DrawPropertiesWindow@UIProperties@@YAXXZ@QEBA@V?$basic_string@DU?$char_traits@D@std@@V?$allocator@D@2@@2@@Z@@std@@YA?AV?$_Vector_iterator@V?$_Vector_val@U?$_Simple_types@UActor@@@std@@@std@@@0@V10@V10@V<lambda_1>@?BB@???R<lambda_3>@?EB@??DrawPropertiesWindow@UIProperties@@YAXXZ@QEBA@V?$basic_string@DU?$char_traits@D@std@@V?$allocator@D@2@@0@@Z@@Z
	DD	imagerel ??$remove_if@V?$_Vector_iterator@V?$_Vector_val@U?$_Simple_types@UActor@@@std@@@std@@@std@@V<lambda_1>@?BB@???R<lambda_3>@?EB@??DrawPropertiesWindow@UIProperties@@YAXXZ@QEBA@V?$basic_string@DU?$char_traits@D@std@@V?$allocator@D@2@@2@@Z@@std@@YA?AV?$_Vector_iterator@V?$_Vector_val@U?$_Simple_types@UActor@@@std@@@std@@@0@V10@V10@V<lambda_1>@?BB@???R<lambda_3>@?EB@??DrawPropertiesWindow@UIProperties@@YAXXZ@QEBA@V?$basic_string@DU?$char_traits@D@std@@V?$allocator@D@2@@0@@Z@@Z+100
	DD	imagerel $unwind$??$remove_if@V?$_Vector_iterator@V?$_Vector_val@U?$_Simple_types@UActor@@@std@@@std@@@std@@V<lambda_1>@?BB@???R<lambda_3>@?EB@??DrawPropertiesWindow@UIProperties@@YAXXZ@QEBA@V?$basic_string@DU?$char_traits@D@std@@V?$allocator@D@2@@2@@Z@@std@@YA?AV?$_Vector_iterator@V?$_Vector_val@U?$_Simple_types@UActor@@@std@@@std@@@0@V10@V10@V<lambda_1>@?BB@???R<lambda_3>@?EB@??DrawPropertiesWindow@UIProperties@@YAXXZ@QEBA@V?$basic_string@DU?$char_traits@D@std@@V?$allocator@D@2@@0@@Z@@Z
xdata	ENDS
;	COMDAT xdata
xdata	SEGMENT
$chain$0$??$remove_if@V?$_Vector_iterator@V?$_Vector_val@U?$_Simple_types@UActor@@@std@@@std@@@std@@V<lambda_1>@?BB@???R<lambda_3>@?EB@??DrawPropertiesWindow@UIProperties@@YAXXZ@QEBA@V?$basic_string@DU?$char_traits@D@std@@V?$allocator@D@2@@2@@Z@@std@@YA?AV?$_Vector_iterator@V?$_Vector_val@U?$_Simple_types@UActor@@@std@@@std@@@0@V10@V10@V<lambda_1>@?BB@???R<lambda_3>@?EB@??DrawPropertiesWindow@UIProperties@@YAXXZ@QEBA@V?$basic_string@DU?$char_traits@D@std@@V?$allocator@D@2@@0@@Z@@Z DD 020821H
	DD	0795408H
	DD	imagerel ??$remove_if@V?$_Vector_iterator@V?$_Vector_val@U?$_Simple_types@UActor@@@std@@@std@@@std@@V<lambda_1>@?BB@???R<lambda_3>@?EB@??DrawPropertiesWindow@UIProperties@@YAXXZ@QEBA@V?$basic_string@DU?$char_traits@D@std@@V?$allocator@D@2@@2@@Z@@std@@YA?AV?$_Vector_iterator@V?$_Vector_val@U?$_Simple_types@UActor@@@std@@@std@@@0@V10@V10@V<lambda_1>@?BB@???R<lambda_3>@?EB@??DrawPropertiesWindow@UIProperties@@YAXXZ@QEBA@V?$basic_string@DU?$char_traits@D@std@@V?$allocator@D@2@@0@@Z@@Z
	DD	imagerel ??$remove_if@V?$_Vector_iterator@V?$_Vector_val@U?$_Simple_types@UActor@@@std@@@std@@@std@@V<lambda_1>@?BB@???R<lambda_3>@?EB@??DrawPropertiesWindow@UIProperties@@YAXXZ@QEBA@V?$basic_string@DU?$char_traits@D@std@@V?$allocator@D@2@@2@@Z@@std@@YA?AV?$_Vector_iterator@V?$_Vector_val@U?$_Simple_types@UActor@@@std@@@std@@@0@V10@V10@V<lambda_1>@?BB@???R<lambda_3>@?EB@??DrawPropertiesWindow@UIProperties@@YAXXZ@QEBA@V?$basic_string@DU?$char_traits@D@std@@V?$allocator@D@2@@0@@Z@@Z+100
	DD	imagerel $unwind$??$remove_if@V?$_Vector_iterator@V?$_Vector_val@U?$_Simple_types@UActor@@@std@@@std@@@std@@V<lambda_1>@?BB@???R<lambda_3>@?EB@??DrawPropertiesWindow@UIProperties@@YAXXZ@QEBA@V?$basic_string@DU?$char_traits@D@std@@V?$allocator@D@2@@2@@Z@@std@@YA?AV?$_Vector_iterator@V?$_Vector_val@U?$_Simple_types@UActor@@@std@@@std@@@0@V10@V10@V<lambda_1>@?BB@???R<lambda_3>@?EB@??DrawPropertiesWindow@UIProperties@@YAXXZ@QEBA@V?$basic_string@DU?$char_traits@D@std@@V?$allocator@D@2@@0@@Z@@Z
xdata	ENDS
;	COMDAT xdata
xdata	SEGMENT
$unwind$??$remove_if@V?$_Vector_iterator@V?$_Vector_val@U?$_Simple_types@UActor@@@std@@@std@@@std@@V<lambda_1>@?BB@???R<lambda_3>@?EB@??DrawPropertiesWindow@UIProperties@@YAXXZ@QEBA@V?$basic_string@DU?$char_traits@D@std@@V?$allocator@D@2@@2@@Z@@std@@YA?AV?$_Vector_iterator@V?$_Vector_val@U?$_Simple_types@UActor@@@std@@@std@@@0@V10@V10@V<lambda_1>@?BB@???R<lambda_3>@?EB@??DrawPropertiesWindow@UIProperties@@YAXXZ@QEBA@V?$basic_string@DU?$char_traits@D@std@@V?$allocator@D@2@@0@@Z@@Z DD 072219H
	DD	07a3410H
	DD	0740110H
	DD	07007e009H
	DD	06006H
	DD	imagerel __GSHandlerCheck
	DD	0390H
xdata	ENDS
;	COMDAT xdata
xdata	SEGMENT
$chain$2$??$remove_if@V?$_Vector_iterator@V?$_Vector_val@U?$_Simple_types@UActor@@@std@@@std@@@std@@V<lambda_4>@?EG@??DrawPropertiesWindow@UIProperties@@YAXXZ@@std@@YA?AV?$_Vector_iterator@V?$_Vector_val@U?$_Simple_types@UActor@@@std@@@std@@@0@V10@V10@V<lambda_4>@?EG@??DrawPropertiesWindow@UIProperties@@YAXXZ@@Z DD 021H
	DD	imagerel ??$remove_if@V?$_Vector_iterator@V?$_Vector_val@U?$_Simple_types@UActor@@@std@@@std@@@std@@V<lambda_4>@?EG@??DrawPropertiesWindow@UIProperties@@YAXXZ@@std@@YA?AV?$_Vector_iterator@V?$_Vector_val@U?$_Simple_types@UActor@@@std@@@std@@@0@V10@V10@V<lambda_4>@?EG@??DrawPropertiesWindow@UIProperties@@YAXXZ@@Z
	DD	imagerel ??$remove_if@V?$_Vector_iterator@V?$_Vector_val@U?$_Simple_types@UActor@@@std@@@std@@@std@@V<lambda_4>@?EG@??DrawPropertiesWindow@UIProperties@@YAXXZ@@std@@YA?AV?$_Vector_iterator@V?$_Vector_val@U?$_Simple_types@UActor@@@std@@@std@@@0@V10@V10@V<lambda_4>@?EG@??DrawPropertiesWindow@UIProperties@@YAXXZ@@Z+47
	DD	imagerel $unwind$??$remove_if@V?$_Vector_iterator@V?$_Vector_val@U?$_Simple_types@UActor@@@std@@@std@@@std@@V<lambda_4>@?EG@??DrawPropertiesWindow@UIProperties@@YAXXZ@@std@@YA?AV?$_Vector_iterator@V?$_Vector_val@U?$_Simple_types@UActor@@@std@@@std@@@0@V10@V10@V<lambda_4>@?EG@??DrawPropertiesWindow@UIProperties@@YAXXZ@@Z
xdata	ENDS
;	COMDAT xdata
xdata	SEGMENT
$chain$1$??$remove_if@V?$_Vector_iterator@V?$_Vector_val@U?$_Simple_types@UActor@@@std@@@std@@@std@@V<lambda_4>@?EG@??DrawPropertiesWindow@UIProperties@@YAXXZ@@std@@YA?AV?$_Vector_iterator@V?$_Vector_val@U?$_Simple_types@UActor@@@std@@@std@@@0@V10@V10@V<lambda_4>@?EG@??DrawPropertiesWindow@UIProperties@@YAXXZ@@Z DD 040e21H
	DD	0ef40eH
	DD	0dc405H
	DD	imagerel ??$remove_if@V?$_Vector_iterator@V?$_Vector_val@U?$_Simple_types@UActor@@@std@@@std@@@std@@V<lambda_4>@?EG@??DrawPropertiesWindow@UIProperties@@YAXXZ@@std@@YA?AV?$_Vector_iterator@V?$_Vector_val@U?$_Simple_types@UActor@@@std@@@std@@@0@V10@V10@V<lambda_4>@?EG@??DrawPropertiesWindow@UIProperties@@YAXXZ@@Z
	DD	imagerel ??$remove_if@V?$_Vector_iterator@V?$_Vector_val@U?$_Simple_types@UActor@@@std@@@std@@@std@@V<lambda_4>@?EG@??DrawPropertiesWindow@UIProperties@@YAXXZ@@std@@YA?AV?$_Vector_iterator@V?$_Vector_val@U?$_Simple_types@UActor@@@std@@@std@@@0@V10@V10@V<lambda_4>@?EG@??DrawPropertiesWindow@UIProperties@@YAXXZ@@Z+47
	DD	imagerel $unwind$??$remove_if@V?$_Vector_iterator@V?$_Vector_val@U?$_Simple_types@UActor@@@std@@@std@@@std@@V<lambda_4>@?EG@??DrawPropertiesWindow@UIProperties@@YAXXZ@@std@@YA?AV?$_Vector_iterator@V?$_Vector_val@U?$_Simple_types@UActor@@@std@@@std@@@0@V10@V10@V<lambda_4>@?EG@??DrawPropertiesWindow@UIProperties@@YAXXZ@@Z
xdata	ENDS
;	COMDAT xdata
xdata	SEGMENT
$unwind$??$remove_if@V?$_Vector_iterator@V?$_Vector_val@U?$_Simple_types@UActor@@@std@@@std@@@std@@V<lambda_4>@?EG@??DrawPropertiesWindow@UIProperties@@YAXXZ@@std@@YA?AV?$_Vector_iterator@V?$_Vector_val@U?$_Simple_types@UActor@@@std@@@std@@@0@V10@V10@V<lambda_4>@?EG@??DrawPropertiesWindow@UIProperties@@YAXXZ@@Z DD 061a19H
	DD	0e007520bH
	DD	060047005H
	DD	030025003H
	DD	imagerel __GSHandlerCheck
	DD	020H
xdata	ENDS
;	COMDAT xdata
xdata	SEGMENT
$unwind$??$erase@V?$_Tree_iterator@V?$_Tree_val@U?$_Tree_simple_types@U?$pair@$$CBV?$basic_string@DU?$char_traits@D@std@@V?$allocator@D@2@@std@@UDynamicData@Actor@@@std@@@std@@@std@@@std@@$0A@@?$_Tree@V?$_Tmap_traits@V?$basic_string@DU?$char_traits@D@std@@V?$allocator@D@2@@std@@UDynamicData@Actor@@U?$less@V?$basic_string@DU?$char_traits@D@std@@V?$allocator@D@2@@std@@@2@V?$allocator@U?$pair@$$CBV?$basic_string@DU?$char_traits@D@std@@V?$allocator@D@2@@std@@UDynamicData@Actor@@@std@@@2@$0A@@std@@@std@@QEAA?AV?$_Tree_iterator@V?$_Tree_val@U?$_Tree_simple_types@U?$pair@$$CBV?$basic_string@DU?$char_traits@D@std@@V?$allocator@D@2@@std@@UDynamicData@Actor@@@std@@@std@@@std@@@1@V21@@Z DD 020601H
	DD	030023206H
xdata	ENDS
;	COMDAT xdata
xdata	SEGMENT
$ip2state$??$?0AEAV?$basic_string@DU?$char_traits@D@std@@V?$allocator@D@2@@std@@AEAV01@$0A@@?$pair@$$CBV?$basic_string@DU?$char_traits@D@std@@V?$allocator@D@2@@std@@V12@@std@@QEAA@AEAV?$basic_string@DU?$char_traits@D@std@@V?$allocator@D@2@@1@0@Z DB 04H
	DB	'*'
	DB	00H
	DB	01aH
	DB	02H
xdata	ENDS
;	COMDAT xdata
xdata	SEGMENT
$stateUnwindMap$??$?0AEAV?$basic_string@DU?$char_traits@D@std@@V?$allocator@D@2@@std@@AEAV01@$0A@@?$pair@$$CBV?$basic_string@DU?$char_traits@D@std@@V?$allocator@D@2@@std@@V12@@std@@QEAA@AEAV?$basic_string@DU?$char_traits@D@std@@V?$allocator@D@2@@1@0@Z DB 02H
	DB	0cH
	DD	imagerel ??1?$basic_string@DU?$char_traits@D@std@@V?$allocator@D@2@@std@@QEAA@XZ
	DB	060H
xdata	ENDS
;	COMDAT xdata
xdata	SEGMENT
$cppxdata$??$?0AEAV?$basic_string@DU?$char_traits@D@std@@V?$allocator@D@2@@std@@AEAV01@$0A@@?$pair@$$CBV?$basic_string@DU?$char_traits@D@std@@V?$allocator@D@2@@std@@V12@@std@@QEAA@AEAV?$basic_string@DU?$char_traits@D@std@@V?$allocator@D@2@@1@0@Z DB 028H
	DD	imagerel $stateUnwindMap$??$?0AEAV?$basic_string@DU?$char_traits@D@std@@V?$allocator@D@2@@std@@AEAV01@$0A@@?$pair@$$CBV?$basic_string@DU?$char_traits@D@std@@V?$allocator@D@2@@std@@V12@@std@@QEAA@AEAV?$basic_string@DU?$char_traits@D@std@@V?$allocator@D@2@@1@0@Z
	DD	imagerel $ip2state$??$?0AEAV?$basic_string@DU?$char_traits@D@std@@V?$allocator@D@2@@std@@AEAV01@$0A@@?$pair@$$CBV?$basic_string@DU?$char_traits@D@std@@V?$allocator@D@2@@std@@V12@@std@@QEAA@AEAV?$basic_string@DU?$char_traits@D@std@@V?$allocator@D@2@@1@0@Z
xdata	ENDS
;	COMDAT xdata
xdata	SEGMENT
$unwind$??$?0AEAV?$basic_string@DU?$char_traits@D@std@@V?$allocator@D@2@@std@@AEAV01@$0A@@?$pair@$$CBV?$basic_string@DU?$char_traits@D@std@@V?$allocator@D@2@@std@@V12@@std@@QEAA@AEAV?$basic_string@DU?$char_traits@D@std@@V?$allocator@D@2@@1@0@Z DD 040f11H
	DD	07340fH
	DD	0700b320fH
	DD	imagerel __CxxFrameHandler4
	DD	imagerel $cppxdata$??$?0AEAV?$basic_string@DU?$char_traits@D@std@@V?$allocator@D@2@@std@@AEAV01@$0A@@?$pair@$$CBV?$basic_string@DU?$char_traits@D@std@@V?$allocator@D@2@@std@@V12@@std@@QEAA@AEAV?$basic_string@DU?$char_traits@D@std@@V?$allocator@D@2@@1@0@Z
xdata	ENDS
;	COMDAT xdata
xdata	SEGMENT
$unwind$??$erase@V?$_Tree_iterator@V?$_Tree_val@U?$_Tree_simple_types@U?$pair@$$CBV?$basic_string@DU?$char_traits@D@std@@V?$allocator@D@2@@std@@V12@@std@@@std@@@std@@@std@@$0A@@?$_Tree@V?$_Tmap_traits@V?$basic_string@DU?$char_traits@D@std@@V?$allocator@D@2@@std@@V12@U?$less@V?$basic_string@DU?$char_traits@D@std@@V?$allocator@D@2@@std@@@2@V?$allocator@U?$pair@$$CBV?$basic_string@DU?$char_traits@D@std@@V?$allocator@D@2@@std@@V12@@std@@@2@$0A@@std@@@std@@QEAA?AV?$_Tree_iterator@V?$_Tree_val@U?$_Tree_simple_types@U?$pair@$$CBV?$basic_string@DU?$char_traits@D@std@@V?$allocator@D@2@@std@@V12@@std@@@std@@@std@@@1@V21@@Z DD 060d01H
	DD	0a340dH
	DD	0e009320dH
	DD	060067007H
xdata	ENDS
;	COMDAT xdata
xdata	SEGMENT
$unwind$??$?0AEAY02$$CBDV?$basic_string@DU?$char_traits@D@std@@V?$allocator@D@2@@std@@$0A@@?$pair@$$CBV?$basic_string@DU?$char_traits@D@std@@V?$allocator@D@2@@std@@V12@@std@@QEAA@AEAY02$$CBD$$QEAV?$basic_string@DU?$char_traits@D@std@@V?$allocator@D@2@@1@@Z DD 060f01H
	DD	07640fH
	DD	06340fH
	DD	0700b320fH
xdata	ENDS
;	COMDAT xdata
xdata	SEGMENT
$chain$3$??$remove_if@V?$_Vector_iterator@V?$_Vector_val@U?$_Simple_types@ULink@Actor@@@std@@@std@@@std@@V<lambda_10>@?NP@??DrawPropertiesWindow@UIProperties@@YAXXZ@@std@@YA?AV?$_Vector_iterator@V?$_Vector_val@U?$_Simple_types@ULink@Actor@@@std@@@std@@@0@V10@V10@V<lambda_10>@?NP@??DrawPropertiesWindow@UIProperties@@YAXXZ@@Z DD 021H
	DD	imagerel ??$remove_if@V?$_Vector_iterator@V?$_Vector_val@U?$_Simple_types@ULink@Actor@@@std@@@std@@@std@@V<lambda_10>@?NP@??DrawPropertiesWindow@UIProperties@@YAXXZ@@std@@YA?AV?$_Vector_iterator@V?$_Vector_val@U?$_Simple_types@ULink@Actor@@@std@@@std@@@0@V10@V10@V<lambda_10>@?NP@??DrawPropertiesWindow@UIProperties@@YAXXZ@@Z
	DD	imagerel ??$remove_if@V?$_Vector_iterator@V?$_Vector_val@U?$_Simple_types@ULink@Actor@@@std@@@std@@@std@@V<lambda_10>@?NP@??DrawPropertiesWindow@UIProperties@@YAXXZ@@std@@YA?AV?$_Vector_iterator@V?$_Vector_val@U?$_Simple_types@ULink@Actor@@@std@@@std@@@0@V10@V10@V<lambda_10>@?NP@??DrawPropertiesWindow@UIProperties@@YAXXZ@@Z+67
	DD	imagerel $unwind$??$remove_if@V?$_Vector_iterator@V?$_Vector_val@U?$_Simple_types@ULink@Actor@@@std@@@std@@@std@@V<lambda_10>@?NP@??DrawPropertiesWindow@UIProperties@@YAXXZ@@std@@YA?AV?$_Vector_iterator@V?$_Vector_val@U?$_Simple_types@ULink@Actor@@@std@@@std@@@0@V10@V10@V<lambda_10>@?NP@??DrawPropertiesWindow@UIProperties@@YAXXZ@@Z
xdata	ENDS
;	COMDAT xdata
xdata	SEGMENT
$chain$2$??$remove_if@V?$_Vector_iterator@V?$_Vector_val@U?$_Simple_types@ULink@Actor@@@std@@@std@@@std@@V<lambda_10>@?NP@??DrawPropertiesWindow@UIProperties@@YAXXZ@@std@@YA?AV?$_Vector_iterator@V?$_Vector_val@U?$_Simple_types@ULink@Actor@@@std@@@std@@@0@V10@V10@V<lambda_10>@?NP@??DrawPropertiesWindow@UIProperties@@YAXXZ@@Z DD 020021H
	DD	0be400H
	DD	imagerel ??$remove_if@V?$_Vector_iterator@V?$_Vector_val@U?$_Simple_types@ULink@Actor@@@std@@@std@@@std@@V<lambda_10>@?NP@??DrawPropertiesWindow@UIProperties@@YAXXZ@@std@@YA?AV?$_Vector_iterator@V?$_Vector_val@U?$_Simple_types@ULink@Actor@@@std@@@std@@@0@V10@V10@V<lambda_10>@?NP@??DrawPropertiesWindow@UIProperties@@YAXXZ@@Z
	DD	imagerel ??$remove_if@V?$_Vector_iterator@V?$_Vector_val@U?$_Simple_types@ULink@Actor@@@std@@@std@@@std@@V<lambda_10>@?NP@??DrawPropertiesWindow@UIProperties@@YAXXZ@@std@@YA?AV?$_Vector_iterator@V?$_Vector_val@U?$_Simple_types@ULink@Actor@@@std@@@std@@@0@V10@V10@V<lambda_10>@?NP@??DrawPropertiesWindow@UIProperties@@YAXXZ@@Z+67
	DD	imagerel $unwind$??$remove_if@V?$_Vector_iterator@V?$_Vector_val@U?$_Simple_types@ULink@Actor@@@std@@@std@@@std@@V<lambda_10>@?NP@??DrawPropertiesWindow@UIProperties@@YAXXZ@@std@@YA?AV?$_Vector_iterator@V?$_Vector_val@U?$_Simple_types@ULink@Actor@@@std@@@std@@@0@V10@V10@V<lambda_10>@?NP@??DrawPropertiesWindow@UIProperties@@YAXXZ@@Z
xdata	ENDS
;	COMDAT xdata
xdata	SEGMENT
$chain$1$??$remove_if@V?$_Vector_iterator@V?$_Vector_val@U?$_Simple_types@ULink@Actor@@@std@@@std@@@std@@V<lambda_10>@?NP@??DrawPropertiesWindow@UIProperties@@YAXXZ@@std@@YA?AV?$_Vector_iterator@V?$_Vector_val@U?$_Simple_types@ULink@Actor@@@std@@@std@@@0@V10@V10@V<lambda_10>@?NP@??DrawPropertiesWindow@UIProperties@@YAXXZ@@Z DD 021H
	DD	imagerel ??$remove_if@V?$_Vector_iterator@V?$_Vector_val@U?$_Simple_types@ULink@Actor@@@std@@@std@@@std@@V<lambda_10>@?NP@??DrawPropertiesWindow@UIProperties@@YAXXZ@@std@@YA?AV?$_Vector_iterator@V?$_Vector_val@U?$_Simple_types@ULink@Actor@@@std@@@std@@@0@V10@V10@V<lambda_10>@?NP@??DrawPropertiesWindow@UIProperties@@YAXXZ@@Z
	DD	imagerel ??$remove_if@V?$_Vector_iterator@V?$_Vector_val@U?$_Simple_types@ULink@Actor@@@std@@@std@@@std@@V<lambda_10>@?NP@??DrawPropertiesWindow@UIProperties@@YAXXZ@@std@@YA?AV?$_Vector_iterator@V?$_Vector_val@U?$_Simple_types@ULink@Actor@@@std@@@std@@@0@V10@V10@V<lambda_10>@?NP@??DrawPropertiesWindow@UIProperties@@YAXXZ@@Z+67
	DD	imagerel $unwind$??$remove_if@V?$_Vector_iterator@V?$_Vector_val@U?$_Simple_types@ULink@Actor@@@std@@@std@@@std@@V<lambda_10>@?NP@??DrawPropertiesWindow@UIProperties@@YAXXZ@@std@@YA?AV?$_Vector_iterator@V?$_Vector_val@U?$_Simple_types@ULink@Actor@@@std@@@std@@@0@V10@V10@V<lambda_10>@?NP@??DrawPropertiesWindow@UIProperties@@YAXXZ@@Z
xdata	ENDS
;	COMDAT xdata
xdata	SEGMENT
$chain$0$??$remove_if@V?$_Vector_iterator@V?$_Vector_val@U?$_Simple_types@ULink@Actor@@@std@@@std@@@std@@V<lambda_10>@?NP@??DrawPropertiesWindow@UIProperties@@YAXXZ@@std@@YA?AV?$_Vector_iterator@V?$_Vector_val@U?$_Simple_types@ULink@Actor@@@std@@@std@@@0@V10@V10@V<lambda_10>@?NP@??DrawPropertiesWindow@UIProperties@@YAXXZ@@Z DD 020521H
	DD	0be405H
	DD	imagerel ??$remove_if@V?$_Vector_iterator@V?$_Vector_val@U?$_Simple_types@ULink@Actor@@@std@@@std@@@std@@V<lambda_10>@?NP@??DrawPropertiesWindow@UIProperties@@YAXXZ@@std@@YA?AV?$_Vector_iterator@V?$_Vector_val@U?$_Simple_types@ULink@Actor@@@std@@@std@@@0@V10@V10@V<lambda_10>@?NP@??DrawPropertiesWindow@UIProperties@@YAXXZ@@Z
	DD	imagerel ??$remove_if@V?$_Vector_iterator@V?$_Vector_val@U?$_Simple_types@ULink@Actor@@@std@@@std@@@std@@V<lambda_10>@?NP@??DrawPropertiesWindow@UIProperties@@YAXXZ@@std@@YA?AV?$_Vector_iterator@V?$_Vector_val@U?$_Simple_types@ULink@Actor@@@std@@@std@@@0@V10@V10@V<lambda_10>@?NP@??DrawPropertiesWindow@UIProperties@@YAXXZ@@Z+67
	DD	imagerel $unwind$??$remove_if@V?$_Vector_iterator@V?$_Vector_val@U?$_Simple_types@ULink@Actor@@@std@@@std@@@std@@V<lambda_10>@?NP@??DrawPropertiesWindow@UIProperties@@YAXXZ@@std@@YA?AV?$_Vector_iterator@V?$_Vector_val@U?$_Simple_types@ULink@Actor@@@std@@@std@@@0@V10@V10@V<lambda_10>@?NP@??DrawPropertiesWindow@UIProperties@@YAXXZ@@Z
xdata	ENDS
;	COMDAT xdata
xdata	SEGMENT
$unwind$??$remove_if@V?$_Vector_iterator@V?$_Vector_val@U?$_Simple_types@ULink@Actor@@@std@@@std@@@std@@V<lambda_10>@?NP@??DrawPropertiesWindow@UIProperties@@YAXXZ@@std@@YA?AV?$_Vector_iterator@V?$_Vector_val@U?$_Simple_types@ULink@Actor@@@std@@@std@@@0@V10@V10@V<lambda_10>@?NP@??DrawPropertiesWindow@UIProperties@@YAXXZ@@Z DD 061c19H
	DD	0c340dH
	DD	0f009520dH
	DD	060067007H
	DD	imagerel __GSHandlerCheck
	DD	020H
xdata	ENDS
;	COMDAT xdata
xdata	SEGMENT
$chain$1$??$_Move_unchecked@PEAURail@Actor@@PEAU12@@std@@YAPEAURail@Actor@@PEAU12@00@Z DD 021H
	DD	imagerel $LN17
	DD	imagerel $LN17+29
	DD	imagerel $unwind$??$_Move_unchecked@PEAURail@Actor@@PEAU12@@std@@YAPEAURail@Actor@@PEAU12@00@Z
xdata	ENDS
;	COMDAT xdata
xdata	SEGMENT
$chain$0$??$_Move_unchecked@PEAURail@Actor@@PEAU12@@std@@YAPEAURail@Actor@@PEAU12@00@Z DD 020521H
	DD	067405H
	DD	imagerel $LN17
	DD	imagerel $LN17+29
	DD	imagerel $unwind$??$_Move_unchecked@PEAURail@Actor@@PEAU12@@std@@YAPEAURail@Actor@@PEAU12@00@Z
xdata	ENDS
;	COMDAT xdata
xdata	SEGMENT
$unwind$??$_Move_unchecked@PEAURail@Actor@@PEAU12@@std@@YAPEAURail@Actor@@PEAU12@00@Z DD 060f01H
	DD	08540fH
	DD	07340fH
	DD	0600b320fH
xdata	ENDS
;	COMDAT xdata
xdata	SEGMENT
$unwind$??4Rail@Actor@@QEAAAEAU01@$$QEAU01@@Z DD 040a01H
	DD	06340aH
	DD	07006320aH
xdata	ENDS
;	COMDAT xdata
xdata	SEGMENT
$chain$1$??$_Move_unchecked@PEAULink@Actor@@PEAU12@@std@@YAPEAULink@Actor@@PEAU12@00@Z DD 021H
	DD	imagerel $LN17
	DD	imagerel $LN17+21
	DD	imagerel $unwind$??$_Move_unchecked@PEAULink@Actor@@PEAU12@@std@@YAPEAULink@Actor@@PEAU12@00@Z
xdata	ENDS
;	COMDAT xdata
xdata	SEGMENT
$chain$0$??$_Move_unchecked@PEAULink@Actor@@PEAU12@@std@@YAPEAULink@Actor@@PEAU12@00@Z DD 020521H
	DD	067405H
	DD	imagerel $LN17
	DD	imagerel $LN17+21
	DD	imagerel $unwind$??$_Move_unchecked@PEAULink@Actor@@PEAU12@@std@@YAPEAULink@Actor@@PEAU12@00@Z
xdata	ENDS
;	COMDAT xdata
xdata	SEGMENT
$unwind$??$_Move_unchecked@PEAULink@Actor@@PEAU12@@std@@YAPEAULink@Actor@@PEAU12@00@Z DD 040a01H
	DD	07340aH
	DD	06006320aH
xdata	ENDS
;	COMDAT xdata
xdata	SEGMENT
$unwind$?_Erase_unchecked@?$_Tree@V?$_Tmap_traits@V?$basic_string@DU?$char_traits@D@std@@V?$allocator@D@2@@std@@V12@U?$less@V?$basic_string@DU?$char_traits@D@std@@V?$allocator@D@2@@std@@@2@V?$allocator@U?$pair@$$CBV?$basic_string@DU?$char_traits@D@std@@V?$allocator@D@2@@std@@V12@@std@@@2@$0A@@std@@@std@@AEAAPEAU?$_Tree_node@U?$pair@$$CBV?$basic_string@DU?$char_traits@D@std@@V?$allocator@D@2@@std@@V12@@std@@PEAX@2@V?$_Tree_unchecked_const_iterator@V?$_Tree_val@U?$_Tree_simple_types@U?$pair@$$CBV?$basic_string@DU?$char_traits@D@std@@V?$allocator@D@2@@std@@V12@@std@@@std@@@std@@U_Iterator_base0@2@@2@@Z DD 060f01H
	DD	08640fH
	DD	07340fH
	DD	0700b320fH
xdata	ENDS
;	COMDAT xdata
xdata	SEGMENT
$chain$1$?_Extract@?$_Tree_val@U?$_Tree_simple_types@U?$pair@$$CBV?$basic_string@DU?$char_traits@D@std@@V?$allocator@D@2@@std@@V12@@std@@@std@@@std@@QEAAPEAU?$_Tree_node@U?$pair@$$CBV?$basic_string@DU?$char_traits@D@std@@V?$allocator@D@2@@std@@V12@@std@@PEAX@2@V?$_Tree_unchecked_const_iterator@V?$_Tree_val@U?$_Tree_simple_types@U?$pair@$$CBV?$basic_string@DU?$char_traits@D@std@@V?$allocator@D@2@@std@@V12@@std@@@std@@@std@@U_Iterator_base0@2@@2@@Z DD 021H
	DD	imagerel $LN156
	DD	imagerel $LN156+435
	DD	imagerel $unwind$?_Extract@?$_Tree_val@U?$_Tree_simple_types@U?$pair@$$CBV?$basic_string@DU?$char_traits@D@std@@V?$allocator@D@2@@std@@V12@@std@@@std@@@std@@QEAAPEAU?$_Tree_node@U?$pair@$$CBV?$basic_string@DU?$char_traits@D@std@@V?$allocator@D@2@@std@@V12@@std@@PEAX@2@V?$_Tree_unchecked_const_iterator@V?$_Tree_val@U?$_Tree_simple_types@U?$pair@$$CBV?$basic_string@DU?$char_traits@D@std@@V?$allocator@D@2@@std@@V12@@std@@@std@@@std@@U_Iterator_base0@2@@2@@Z
xdata	ENDS
;	COMDAT xdata
xdata	SEGMENT
$chain$0$?_Extract@?$_Tree_val@U?$_Tree_simple_types@U?$pair@$$CBV?$basic_string@DU?$char_traits@D@std@@V?$allocator@D@2@@std@@V12@@std@@@std@@@std@@QEAAPEAU?$_Tree_node@U?$pair@$$CBV?$basic_string@DU?$char_traits@D@std@@V?$allocator@D@2@@std@@V12@@std@@PEAX@2@V?$_Tree_unchecked_const_iterator@V?$_Tree_val@U?$_Tree_simple_types@U?$pair@$$CBV?$basic_string@DU?$char_traits@D@std@@V?$allocator@D@2@@std@@V12@@std@@@std@@@std@@U_Iterator_base0@2@@2@@Z DD 020521H
	DD	073405H
	DD	imagerel $LN156
	DD	imagerel $LN156+435
	DD	imagerel $unwind$?_Extract@?$_Tree_val@U?$_Tree_simple_types@U?$pair@$$CBV?$basic_string@DU?$char_traits@D@std@@V?$allocator@D@2@@std@@V12@@std@@@std@@@std@@QEAAPEAU?$_Tree_node@U?$pair@$$CBV?$basic_string@DU?$char_traits@D@std@@V?$allocator@D@2@@std@@V12@@std@@PEAX@2@V?$_Tree_unchecked_const_iterator@V?$_Tree_val@U?$_Tree_simple_types@U?$pair@$$CBV?$basic_string@DU?$char_traits@D@std@@V?$allocator@D@2@@std@@V12@@std@@@std@@@std@@U_Iterator_base0@2@@2@@Z
xdata	ENDS
;	COMDAT xdata
xdata	SEGMENT
$unwind$?_Extract@?$_Tree_val@U?$_Tree_simple_types@U?$pair@$$CBV?$basic_string@DU?$char_traits@D@std@@V?$allocator@D@2@@std@@V12@@std@@@std@@@std@@QEAAPEAU?$_Tree_node@U?$pair@$$CBV?$basic_string@DU?$char_traits@D@std@@V?$allocator@D@2@@std@@V12@@std@@PEAX@2@V?$_Tree_unchecked_const_iterator@V?$_Tree_val@U?$_Tree_simple_types@U?$pair@$$CBV?$basic_string@DU?$char_traits@D@std@@V?$allocator@D@2@@std@@V12@@std@@@std@@@std@@U_Iterator_base0@2@@2@@Z DD 040a01H
	DD	08640aH
	DD	07006320aH
xdata	ENDS
;	COMDAT xdata
xdata	SEGMENT
$unwind$??$find_if@PEAUActor@@V<lambda_1>@?BB@???R<lambda_3>@?EB@??DrawPropertiesWindow@UIProperties@@YAXXZ@QEBA@V?$basic_string@DU?$char_traits@D@std@@V?$allocator@D@2@@std@@@Z@@std@@YAPEAUActor@@PEAU1@QEAU1@V<lambda_1>@?BB@???R<lambda_3>@?EB@??DrawPropertiesWindow@UIProperties@@YAXXZ@QEBA@V?$basic_string@DU?$char_traits@D@std@@V?$allocator@D@2@@0@@Z@@Z DD 071201H
	DD	0766412H
	DD	0753412H
	DD	0720112H
	DD	0700bH
xdata	ENDS
;	COMDAT xdata
xdata	SEGMENT
$chain$4$??$find_if@PEAUActor@@V<lambda_4>@?EG@??DrawPropertiesWindow@UIProperties@@YAXXZ@@std@@YAPEAUActor@@PEAU1@QEAU1@V<lambda_4>@?EG@??DrawPropertiesWindow@UIProperties@@YAXXZ@@Z DD 021H
	DD	imagerel ??$find_if@PEAUActor@@V<lambda_4>@?EG@??DrawPropertiesWindow@UIProperties@@YAXXZ@@std@@YAPEAUActor@@PEAU1@QEAU1@V<lambda_4>@?EG@??DrawPropertiesWindow@UIProperties@@YAXXZ@@Z
	DD	imagerel ??$find_if@PEAUActor@@V<lambda_4>@?EG@??DrawPropertiesWindow@UIProperties@@YAXXZ@@std@@YAPEAUActor@@PEAU1@QEAU1@V<lambda_4>@?EG@??DrawPropertiesWindow@UIProperties@@YAXXZ@@Z+22
	DD	imagerel $unwind$??$find_if@PEAUActor@@V<lambda_4>@?EG@??DrawPropertiesWindow@UIProperties@@YAXXZ@@std@@YAPEAUActor@@PEAU1@QEAU1@V<lambda_4>@?EG@??DrawPropertiesWindow@UIProperties@@YAXXZ@@Z
xdata	ENDS
;	COMDAT xdata
xdata	SEGMENT
$chain$3$??$find_if@PEAUActor@@V<lambda_4>@?EG@??DrawPropertiesWindow@UIProperties@@YAXXZ@@std@@YAPEAUActor@@PEAU1@QEAU1@V<lambda_4>@?EG@??DrawPropertiesWindow@UIProperties@@YAXXZ@@Z DD 081b21H
	DD	04f41bH
	DD	0ae416H
	DD	097411H
	DD	086405H
	DD	imagerel ??$find_if@PEAUActor@@V<lambda_4>@?EG@??DrawPropertiesWindow@UIProperties@@YAXXZ@@std@@YAPEAUActor@@PEAU1@QEAU1@V<lambda_4>@?EG@??DrawPropertiesWindow@UIProperties@@YAXXZ@@Z
	DD	imagerel ??$find_if@PEAUActor@@V<lambda_4>@?EG@??DrawPropertiesWindow@UIProperties@@YAXXZ@@std@@YAPEAUActor@@PEAU1@QEAU1@V<lambda_4>@?EG@??DrawPropertiesWindow@UIProperties@@YAXXZ@@Z+22
	DD	imagerel $unwind$??$find_if@PEAUActor@@V<lambda_4>@?EG@??DrawPropertiesWindow@UIProperties@@YAXXZ@@std@@YAPEAUActor@@PEAU1@QEAU1@V<lambda_4>@?EG@??DrawPropertiesWindow@UIProperties@@YAXXZ@@Z
xdata	ENDS
;	COMDAT xdata
xdata	SEGMENT
$unwind$??$find_if@PEAUActor@@V<lambda_4>@?EG@??DrawPropertiesWindow@UIProperties@@YAXXZ@@std@@YAPEAUActor@@PEAU1@QEAU1@V<lambda_4>@?EG@??DrawPropertiesWindow@UIProperties@@YAXXZ@@Z DD 030701H
	DD	050034207H
	DD	03002H
xdata	ENDS
;	COMDAT xdata
xdata	SEGMENT
$chain$2$??$_Emplace_reallocate@URail@Actor@@@?$vector@URail@Actor@@V?$allocator@URail@Actor@@@std@@@std@@AEAAPEAURail@Actor@@QEAU23@$$QEAU23@@Z DD 021H
	DD	imagerel $LN104
	DD	imagerel $LN104+118
	DD	imagerel $unwind$??$_Emplace_reallocate@URail@Actor@@@?$vector@URail@Actor@@V?$allocator@URail@Actor@@@std@@@std@@AEAAPEAURail@Actor@@QEAU23@$$QEAU23@@Z
xdata	ENDS
;	COMDAT xdata
xdata	SEGMENT
$chain$1$??$_Emplace_reallocate@URail@Actor@@@?$vector@URail@Actor@@V?$allocator@URail@Actor@@@std@@@std@@AEAAPEAURail@Actor@@QEAU23@$$QEAU23@@Z DD 041921H
	DD	09e419H
	DD	085405H
	DD	imagerel $LN104
	DD	imagerel $LN104+118
	DD	imagerel $unwind$??$_Emplace_reallocate@URail@Actor@@@?$vector@URail@Actor@@V?$allocator@URail@Actor@@@std@@@std@@AEAAPEAURail@Actor@@QEAU23@$$QEAU23@@Z
xdata	ENDS
;	COMDAT xdata
xdata	SEGMENT
$unwind$??$_Emplace_reallocate@URail@Actor@@@?$vector@URail@Actor@@V?$allocator@URail@Actor@@@std@@@std@@AEAAPEAURail@Actor@@QEAU23@$$QEAU23@@Z DD 081301H
	DD	0b6413H
	DD	0a3413H
	DD	0f00f3213H
	DD	0700bc00dH
xdata	ENDS
;	COMDAT xdata
xdata	SEGMENT
$chain$2$??$_Emplace_reallocate@ULink@Actor@@@?$vector@ULink@Actor@@V?$allocator@ULink@Actor@@@std@@@std@@AEAAPEAULink@Actor@@QEAU23@$$QEAU23@@Z DD 021H
	DD	imagerel $LN104
	DD	imagerel $LN104+118
	DD	imagerel $unwind$??$_Emplace_reallocate@ULink@Actor@@@?$vector@ULink@Actor@@V?$allocator@ULink@Actor@@@std@@@std@@AEAAPEAULink@Actor@@QEAU23@$$QEAU23@@Z
xdata	ENDS
;	COMDAT xdata
xdata	SEGMENT
$chain$1$??$_Emplace_reallocate@ULink@Actor@@@?$vector@ULink@Actor@@V?$allocator@ULink@Actor@@@std@@@std@@AEAAPEAULink@Actor@@QEAU23@$$QEAU23@@Z DD 041921H
	DD	09e419H
	DD	085405H
	DD	imagerel $LN104
	DD	imagerel $LN104+118
	DD	imagerel $unwind$??$_Emplace_reallocate@ULink@Actor@@@?$vector@ULink@Actor@@V?$allocator@ULink@Actor@@@std@@@std@@AEAAPEAULink@Actor@@QEAU23@$$QEAU23@@Z
xdata	ENDS
;	COMDAT xdata
xdata	SEGMENT
$unwind$??$_Emplace_reallocate@ULink@Actor@@@?$vector@ULink@Actor@@V?$allocator@ULink@Actor@@@std@@@std@@AEAAPEAULink@Actor@@QEAU23@$$QEAU23@@Z DD 081301H
	DD	0b6413H
	DD	0a3413H
	DD	0f00f3213H
	DD	0700bc00dH
?mFluidShapes$initializer$@UIProperties@@3P6AXXZEA DQ FLAT:??__EmFluidShapes@UIProperties@@YAXXZ ; UIProperties::mFluidShapes$initializer$
?mFluidTypes$initializer$@UIProperties@@3P6AXXZEA DQ FLAT:??__EmFluidTypes@UIProperties@@YAXXZ ; UIProperties::mFluidTypes$initializer$
; Function compile flags: /Ogtpy
; File H:\Paul\switchemulator\Zelda TotK\MapEditorV4\OldVersion\MapEditor\UIProperties.cpp
; File C:\Program Files\Microsoft Visual Studio\2022\Community\VC\Tools\MSVC\14.37.32822\include\xstring
; File H:\Paul\switchemulator\Zelda TotK\MapEditorV4\OldVersion\MapEditor\UIProperties.cpp
; File C:\Program Files\Microsoft Visual Studio\2022\Community\VC\Tools\MSVC\14.37.32822\include\xstring
; File H:\Paul\switchemulator\Zelda TotK\MapEditorV4\OldVersion\MapEditor\UIProperties.cpp
; File C:\Program Files\Microsoft Visual Studio\2022\Community\VC\Tools\MSVC\14.37.32822\include\xstring
; File H:\Paul\switchemulator\Zelda TotK\MapEditorV4\OldVersion\MapEditor\UIProperties.cpp
; File C:\Program Files\Microsoft Visual Studio\2022\Community\VC\Tools\MSVC\14.37.32822\include\xstring
; File H:\Paul\switchemulator\Zelda TotK\MapEditorV4\OldVersion\MapEditor\UIProperties.cpp
; File H:\Paul\switchemulator\Zelda TotK\MapEditorV4\OldVersion\MapEditor\imgui\imgui.h
; File H:\Paul\switchemulator\Zelda TotK\MapEditorV4\OldVersion\MapEditor\UIProperties.cpp
; File C:\Program Files\Microsoft Visual Studio\2022\Community\VC\Tools\MSVC\14.37.32822\include\vector
; File H:\Paul\switchemulator\Zelda TotK\MapEditorV4\OldVersion\MapEditor\UIProperties.cpp
; File C:\Program Files\Microsoft Visual Studio\2022\Community\VC\Tools\MSVC\14.37.32822\include\xstring
; File H:\Paul\switchemulator\Zelda TotK\MapEditorV4\OldVersion\MapEditor\UIProperties.cpp
; File C:\Program Files\Microsoft Visual Studio\2022\Community\VC\Tools\MSVC\14.37.32822\include\xstring
; File H:\Paul\switchemulator\Zelda TotK\MapEditorV4\OldVersion\MapEditor\UIProperties.cpp
; File C:\Program Files\Microsoft Visual Studio\2022\Community\VC\Tools\MSVC\14.37.32822\include\xstring
; File H:\Paul\switchemulator\Zelda TotK\MapEditorV4\OldVersion\MapEditor\UIProperties.cpp
; File C:\Program Files\Microsoft Visual Studio\2022\Community\VC\Tools\MSVC\14.37.32822\include\xstring
; File H:\Paul\switchemulator\Zelda TotK\MapEditorV4\OldVersion\MapEditor\UIProperties.cpp
; File C:\Program Files\Microsoft Visual Studio\2022\Community\VC\Tools\MSVC\14.37.32822\include\vector
; File H:\Paul\switchemulator\Zelda TotK\MapEditorV4\OldVersion\MapEditor\UIProperties.cpp
; File H:\Paul\switchemulator\Zelda TotK\MapEditorV4\OldVersion\MapEditor\imgui\imgui.h
; File H:\Paul\switchemulator\Zelda TotK\MapEditorV4\OldVersion\MapEditor\UIProperties.cpp
; File H:\Paul\switchemulator\Zelda TotK\MapEditorV4\OldVersion\MapEditor\imgui\imgui.cpp
; File H:\Paul\switchemulator\Zelda TotK\MapEditorV4\OldVersion\MapEditor\UIProperties.cpp
; File H:\Paul\switchemulator\Zelda TotK\MapEditorV4\OldVersion\MapEditor\imgui\imgui.h
; File H:\Paul\switchemulator\Zelda TotK\MapEditorV4\OldVersion\MapEditor\UIProperties.cpp
; File H:\Paul\switchemulator\Zelda TotK\MapEditorV4\OldVersion\MapEditor\imgui\imgui.h
; File H:\Paul\switchemulator\Zelda TotK\MapEditorV4\OldVersion\MapEditor\UIProperties.cpp
; File C:\Program Files\Microsoft Visual Studio\2022\Community\VC\Tools\MSVC\14.37.32822\include\vector
; File H:\Paul\switchemulator\Zelda TotK\MapEditorV4\OldVersion\MapEditor\UIProperties.cpp
; File C:\Program Files\Microsoft Visual Studio\2022\Community\VC\Tools\MSVC\14.37.32822\include\vector
; File H:\Paul\switchemulator\Zelda TotK\MapEditorV4\OldVersion\MapEditor\UIProperties.cpp
; File C:\Program Files\Microsoft Visual Studio\2022\Community\VC\Tools\MSVC\14.37.32822\include\vector
; File H:\Paul\switchemulator\Zelda TotK\MapEditorV4\OldVersion\MapEditor\UIProperties.cpp
; File C:\Program Files\Microsoft Visual Studio\2022\Community\VC\Tools\MSVC\14.37.32822\include\vector
; File H:\Paul\switchemulator\Zelda TotK\MapEditorV4\OldVersion\MapEditor\UIProperties.cpp
; File H:\Paul\switchemulator\Zelda TotK\MapEditorV4\OldVersion\MapEditor\imgui\imgui.h
; File H:\Paul\switchemulator\Zelda TotK\MapEditorV4\OldVersion\MapEditor\UIProperties.cpp
; File H:\Paul\switchemulator\Zelda TotK\MapEditorV4\OldVersion\MapEditor\imgui\imgui.h
; File H:\Paul\switchemulator\Zelda TotK\MapEditorV4\OldVersion\MapEditor\UIProperties.cpp
; File H:\Paul\switchemulator\Zelda TotK\MapEditorV4\OldVersion\MapEditor\imgui\imgui.h
; File H:\Paul\switchemulator\Zelda TotK\MapEditorV4\OldVersion\MapEditor\UIProperties.cpp
; File H:\Paul\switchemulator\Zelda TotK\MapEditorV4\OldVersion\MapEditor\Vector3F.cpp
; File H:\Paul\switchemulator\Zelda TotK\MapEditorV4\OldVersion\MapEditor\UIProperties.cpp
; File H:\Paul\switchemulator\Zelda TotK\MapEditorV4\OldVersion\MapEditor\imgui\imgui.cpp
; File H:\Paul\switchemulator\Zelda TotK\MapEditorV4\OldVersion\MapEditor\UIProperties.cpp
; File H:\Paul\switchemulator\Zelda TotK\MapEditorV4\OldVersion\MapEditor\imgui\imgui.h
; File H:\Paul\switchemulator\Zelda TotK\MapEditorV4\OldVersion\MapEditor\UIProperties.cpp
; File H:\Paul\switchemulator\Zelda TotK\MapEditorV4\OldVersion\MapEditor\imgui\imgui.h
; File C:\Program Files\Microsoft Visual Studio\2022\Community\VC\Tools\MSVC\14.37.32822\include\xtree
; File H:\Paul\switchemulator\Zelda TotK\MapEditorV4\OldVersion\MapEditor\UIProperties.cpp
; File C:\Program Files\Microsoft Visual Studio\2022\Community\VC\Tools\MSVC\14.37.32822\include\xtree
; File H:\Paul\switchemulator\Zelda TotK\MapEditorV4\OldVersion\MapEditor\UIProperties.cpp
; File C:\Program Files\Microsoft Visual Studio\2022\Community\VC\Tools\MSVC\14.37.32822\include\xstring
; File H:\Paul\switchemulator\Zelda TotK\MapEditorV4\OldVersion\MapEditor\UIProperties.cpp
; File C:\Program Files\Microsoft Visual Studio\2022\Community\VC\Tools\MSVC\14.37.32822\include\xstring
; File H:\Paul\switchemulator\Zelda TotK\MapEditorV4\OldVersion\MapEditor\UIProperties.cpp
; File C:\Program Files\Microsoft Visual Studio\2022\Community\VC\Tools\MSVC\14.37.32822\include\xstring
; File H:\Paul\switchemulator\Zelda TotK\MapEditorV4\OldVersion\MapEditor\UIProperties.cpp
; File C:\Program Files\Microsoft Visual Studio\2022\Community\VC\Tools\MSVC\14.37.32822\include\xstring
; File H:\Paul\switchemulator\Zelda TotK\MapEditorV4\OldVersion\MapEditor\UIProperties.cpp
; File C:\Program Files\Microsoft Visual Studio\2022\Community\VC\Tools\MSVC\14.37.32822\include\xstring
; File H:\Paul\switchemulator\Zelda TotK\MapEditorV4\OldVersion\MapEditor\UIProperties.cpp
; File C:\Program Files\Microsoft Visual Studio\2022\Community\VC\Tools\MSVC\14.37.32822\include\xstring
; File H:\Paul\switchemulator\Zelda TotK\MapEditorV4\OldVersion\MapEditor\UIProperties.cpp
; File C:\Program Files\Microsoft Visual Studio\2022\Community\VC\Tools\MSVC\14.37.32822\include\xstring
; File H:\Paul\switchemulator\Zelda TotK\MapEditorV4\OldVersion\MapEditor\UIProperties.cpp
; File C:\Program Files\Microsoft Visual Studio\2022\Community\VC\Tools\MSVC\14.37.32822\include\xstring
; File H:\Paul\switchemulator\Zelda TotK\MapEditorV4\OldVersion\MapEditor\UIProperties.cpp
; File C:\Program Files\Microsoft Visual Studio\2022\Community\VC\Tools\MSVC\14.37.32822\include\xstring
; File H:\Paul\switchemulator\Zelda TotK\MapEditorV4\OldVersion\MapEditor\UIProperties.cpp
; File H:\Paul\switchemulator\Zelda TotK\MapEditorV4\OldVersion\MapEditor\imgui\imgui.h
; File H:\Paul\switchemulator\Zelda TotK\MapEditorV4\OldVersion\MapEditor\UIProperties.cpp
; File C:\Program Files\Microsoft Visual Studio\2022\Community\VC\Tools\MSVC\14.37.32822\include\xstring
; File H:\Paul\switchemulator\Zelda TotK\MapEditorV4\OldVersion\MapEditor\UIProperties.cpp
; File H:\Paul\switchemulator\Zelda TotK\MapEditorV4\OldVersion\MapEditor\imgui\imgui.cpp
; File H:\Paul\switchemulator\Zelda TotK\MapEditorV4\OldVersion\MapEditor\UIProperties.cpp
; File H:\Paul\switchemulator\Zelda TotK\MapEditorV4\OldVersion\MapEditor\imgui\imgui.h
; File H:\Paul\switchemulator\Zelda TotK\MapEditorV4\OldVersion\MapEditor\UIProperties.cpp
; File H:\Paul\switchemulator\Zelda TotK\MapEditorV4\OldVersion\MapEditor\imgui\imgui.h
; File C:\Program Files\Microsoft Visual Studio\2022\Community\VC\Tools\MSVC\14.37.32822\include\xtree
; File H:\Paul\switchemulator\Zelda TotK\MapEditorV4\OldVersion\MapEditor\UIProperties.cpp
; File C:\Program Files\Microsoft Visual Studio\2022\Community\VC\Tools\MSVC\14.37.32822\include\xtree
; File H:\Paul\switchemulator\Zelda TotK\MapEditorV4\OldVersion\MapEditor\UIProperties.cpp
; File C:\Program Files\Microsoft Visual Studio\2022\Community\VC\Tools\MSVC\14.37.32822\include\xstring
; File H:\Paul\switchemulator\Zelda TotK\MapEditorV4\OldVersion\MapEditor\UIProperties.cpp
; File H:\Paul\switchemulator\Zelda TotK\MapEditorV4\OldVersion\MapEditor\imgui\imgui.h
; File H:\Paul\switchemulator\Zelda TotK\MapEditorV4\OldVersion\MapEditor\UIProperties.cpp
; File C:\Program Files\Microsoft Visual Studio\2022\Community\VC\Tools\MSVC\14.37.32822\include\xstring
; File H:\Paul\switchemulator\Zelda TotK\MapEditorV4\OldVersion\MapEditor\UIProperties.cpp
; File H:\Paul\switchemulator\Zelda TotK\MapEditorV4\OldVersion\MapEditor\imgui\imgui.cpp
; File H:\Paul\switchemulator\Zelda TotK\MapEditorV4\OldVersion\MapEditor\UIProperties.cpp
; File H:\Paul\switchemulator\Zelda TotK\MapEditorV4\OldVersion\MapEditor\imgui\imgui.h
; File H:\Paul\switchemulator\Zelda TotK\MapEditorV4\OldVersion\MapEditor\UIProperties.cpp
; File C:\Program Files\Microsoft Visual Studio\2022\Community\VC\Tools\MSVC\14.37.32822\include\vector
; File H:\Paul\switchemulator\Zelda TotK\MapEditorV4\OldVersion\MapEditor\UIProperties.cpp
; File C:\Program Files\Microsoft Visual Studio\2022\Community\VC\Tools\MSVC\14.37.32822\include\vector
; File H:\Paul\switchemulator\Zelda TotK\MapEditorV4\OldVersion\MapEditor\UIProperties.cpp
; File C:\Program Files\Microsoft Visual Studio\2022\Community\VC\Tools\MSVC\14.37.32822\include\vector
; File H:\Paul\switchemulator\Zelda TotK\MapEditorV4\OldVersion\MapEditor\UIProperties.cpp
; File C:\Program Files\Microsoft Visual Studio\2022\Community\VC\Tools\MSVC\14.37.32822\include\xstring
; File H:\Paul\switchemulator\Zelda TotK\MapEditorV4\OldVersion\MapEditor\UIProperties.cpp
; File C:\Program Files\Microsoft Visual Studio\2022\Community\VC\Tools\MSVC\14.37.32822\include\xstring
; File H:\Paul\switchemulator\Zelda TotK\MapEditorV4\OldVersion\MapEditor\imgui\imgui_internal.h
; File H:\Paul\switchemulator\Zelda TotK\MapEditorV4\OldVersion\MapEditor\imgui\imgui.h
; File H:\Paul\switchemulator\Zelda TotK\MapEditorV4\OldVersion\MapEditor\imgui\imgui.cpp
; File H:\Paul\switchemulator\Zelda TotK\MapEditorV4\OldVersion\MapEditor\imgui\imgui.h
; File H:\Paul\switchemulator\Zelda TotK\MapEditorV4\OldVersion\MapEditor\UIProperties.cpp
; File C:\Program Files\Microsoft Visual Studio\2022\Community\VC\Tools\MSVC\14.37.32822\include\xstring
; File H:\Paul\switchemulator\Zelda TotK\MapEditorV4\OldVersion\MapEditor\UIProperties.cpp
; File C:\Program Files\Microsoft Visual Studio\2022\Community\VC\Tools\MSVC\14.37.32822\include\xstring
; File H:\Paul\switchemulator\Zelda TotK\MapEditorV4\OldVersion\MapEditor\imgui\imgui_internal.h
; File H:\Paul\switchemulator\Zelda TotK\MapEditorV4\OldVersion\MapEditor\imgui\imgui.h
; File H:\Paul\switchemulator\Zelda TotK\MapEditorV4\OldVersion\MapEditor\imgui\imgui.cpp
; File H:\Paul\switchemulator\Zelda TotK\MapEditorV4\OldVersion\MapEditor\imgui\imgui.h
; File H:\Paul\switchemulator\Zelda TotK\MapEditorV4\OldVersion\MapEditor\UIProperties.cpp
; File C:\Program Files\Microsoft Visual Studio\2022\Community\VC\Tools\MSVC\14.37.32822\include\xstring
; File H:\Paul\switchemulator\Zelda TotK\MapEditorV4\OldVersion\MapEditor\UIProperties.cpp
; File C:\Program Files\Microsoft Visual Studio\2022\Community\VC\Tools\MSVC\14.37.32822\include\xstring
; File H:\Paul\switchemulator\Zelda TotK\MapEditorV4\OldVersion\MapEditor\imgui\imgui_internal.h
; File H:\Paul\switchemulator\Zelda TotK\MapEditorV4\OldVersion\MapEditor\imgui\imgui.h
; File H:\Paul\switchemulator\Zelda TotK\MapEditorV4\OldVersion\MapEditor\imgui\imgui.cpp
; File H:\Paul\switchemulator\Zelda TotK\MapEditorV4\OldVersion\MapEditor\imgui\imgui.h
; File H:\Paul\switchemulator\Zelda TotK\MapEditorV4\OldVersion\MapEditor\UIProperties.cpp
; File C:\Program Files\Microsoft Visual Studio\2022\Community\VC\Tools\MSVC\14.37.32822\include\xstring
; File H:\Paul\switchemulator\Zelda TotK\MapEditorV4\OldVersion\MapEditor\UIProperties.cpp
; File C:\Program Files\Microsoft Visual Studio\2022\Community\VC\Tools\MSVC\14.37.32822\include\xstring
; File H:\Paul\switchemulator\Zelda TotK\MapEditorV4\OldVersion\MapEditor\imgui\imgui_internal.h
; File H:\Paul\switchemulator\Zelda TotK\MapEditorV4\OldVersion\MapEditor\imgui\imgui.h
; File H:\Paul\switchemulator\Zelda TotK\MapEditorV4\OldVersion\MapEditor\imgui\imgui.cpp
; File H:\Paul\switchemulator\Zelda TotK\MapEditorV4\OldVersion\MapEditor\imgui\imgui.h
; File H:\Paul\switchemulator\Zelda TotK\MapEditorV4\OldVersion\MapEditor\UIProperties.cpp
; File H:\Paul\switchemulator\Zelda TotK\MapEditorV4\OldVersion\MapEditor\imgui\imgui.h
; File H:\Paul\switchemulator\Zelda TotK\MapEditorV4\OldVersion\MapEditor\UIProperties.cpp
; File C:\Program Files\Microsoft Visual Studio\2022\Community\VC\Tools\MSVC\14.37.32822\include\xstring
; File H:\Paul\switchemulator\Zelda TotK\MapEditorV4\OldVersion\MapEditor\imgui\imgui_widgets.cpp
; File C:\Program Files\Microsoft Visual Studio\2022\Community\VC\Tools\MSVC\14.37.32822\include\xstring
; File H:\Paul\switchemulator\Zelda TotK\MapEditorV4\OldVersion\MapEditor\UIProperties.cpp
; File C:\Program Files\Microsoft Visual Studio\2022\Community\VC\Tools\MSVC\14.37.32822\include\vector
; File H:\Paul\switchemulator\Zelda TotK\MapEditorV4\OldVersion\MapEditor\UIProperties.cpp
; File C:\Program Files\Microsoft Visual Studio\2022\Community\VC\Tools\MSVC\14.37.32822\include\vector
; File H:\Paul\switchemulator\Zelda TotK\MapEditorV4\OldVersion\MapEditor\UIProperties.cpp
; File C:\Program Files\Microsoft Visual Studio\2022\Community\VC\Tools\MSVC\14.37.32822\include\vector
; File H:\Paul\switchemulator\Zelda TotK\MapEditorV4\OldVersion\MapEditor\UIProperties.cpp
; File C:\Program Files\Microsoft Visual Studio\2022\Community\VC\Tools\MSVC\14.37.32822\include\vector
; File H:\Paul\switchemulator\Zelda TotK\MapEditorV4\OldVersion\MapEditor\UIProperties.cpp
; File H:\Paul\switchemulator\Zelda TotK\MapEditorV4\OldVersion\MapEditor\imgui\imgui.cpp
; File H:\Paul\switchemulator\Zelda TotK\MapEditorV4\OldVersion\MapEditor\UIProperties.cpp
; File H:\Paul\switchemulator\Zelda TotK\MapEditorV4\OldVersion\MapEditor\imgui\imgui.h
; File H:\Paul\switchemulator\Zelda TotK\MapEditorV4\OldVersion\MapEditor\imgui\imgui_widgets.cpp
; File H:\Paul\switchemulator\Zelda TotK\MapEditorV4\OldVersion\MapEditor\UIProperties.cpp
; File C:\Program Files\Microsoft Visual Studio\2022\Community\VC\Tools\MSVC\14.37.32822\include\vector
; File H:\Paul\switchemulator\Zelda TotK\MapEditorV4\OldVersion\MapEditor\UIProperties.cpp
; File C:\Program Files\Microsoft Visual Studio\2022\Community\VC\Tools\MSVC\14.37.32822\include\vector
; File H:\Paul\switchemulator\Zelda TotK\MapEditorV4\OldVersion\MapEditor\UIProperties.cpp
; File C:\Program Files\Microsoft Visual Studio\2022\Community\VC\Tools\MSVC\14.37.32822\include\vector
; File H:\Paul\switchemulator\Zelda TotK\MapEditorV4\OldVersion\MapEditor\UIProperties.cpp
; File C:\Program Files\Microsoft Visual Studio\2022\Community\VC\Tools\MSVC\14.37.32822\include\string
; File C:\Program Files\Microsoft Visual Studio\2022\Community\VC\Tools\MSVC\14.37.32822\include\xstring
; File C:\Program Files\Microsoft Visual Studio\2022\Community\VC\Tools\MSVC\14.37.32822\include\string
; File C:\Program Files\Microsoft Visual Studio\2022\Community\VC\Tools\MSVC\14.37.32822\include\xstring
; File H:\Paul\switchemulator\Zelda TotK\MapEditorV4\OldVersion\MapEditor\UIProperties.cpp
; File C:\Program Files\Microsoft Visual Studio\2022\Community\VC\Tools\MSVC\14.37.32822\include\xstring
; File H:\Paul\switchemulator\Zelda TotK\MapEditorV4\OldVersion\MapEditor\imgui\imgui_internal.h
; File H:\Paul\switchemulator\Zelda TotK\MapEditorV4\OldVersion\MapEditor\imgui\imgui.h
; File H:\Paul\switchemulator\Zelda TotK\MapEditorV4\OldVersion\MapEditor\imgui\imgui.cpp
; File H:\Paul\switchemulator\Zelda TotK\MapEditorV4\OldVersion\MapEditor\imgui\imgui.h
; File H:\Paul\switchemulator\Zelda TotK\MapEditorV4\OldVersion\MapEditor\UIProperties.cpp
; File C:\Program Files\Microsoft Visual Studio\2022\Community\VC\Tools\MSVC\14.37.32822\include\string
; File C:\Program Files\Microsoft Visual Studio\2022\Community\VC\Tools\MSVC\14.37.32822\include\xstring
; File C:\Program Files\Microsoft Visual Studio\2022\Community\VC\Tools\MSVC\14.37.32822\include\string
; File C:\Program Files\Microsoft Visual Studio\2022\Community\VC\Tools\MSVC\14.37.32822\include\xstring
; File H:\Paul\switchemulator\Zelda TotK\MapEditorV4\OldVersion\MapEditor\UIProperties.cpp
; File C:\Program Files\Microsoft Visual Studio\2022\Community\VC\Tools\MSVC\14.37.32822\include\xstring
; File H:\Paul\switchemulator\Zelda TotK\MapEditorV4\OldVersion\MapEditor\imgui\imgui_internal.h
; File H:\Paul\switchemulator\Zelda TotK\MapEditorV4\OldVersion\MapEditor\imgui\imgui.h
; File H:\Paul\switchemulator\Zelda TotK\MapEditorV4\OldVersion\MapEditor\imgui\imgui.cpp
; File H:\Paul\switchemulator\Zelda TotK\MapEditorV4\OldVersion\MapEditor\imgui\imgui.h
; File H:\Paul\switchemulator\Zelda TotK\MapEditorV4\OldVersion\MapEditor\UIProperties.cpp
; File C:\Program Files\Microsoft Visual Studio\2022\Community\VC\Tools\MSVC\14.37.32822\include\string
; File C:\Program Files\Microsoft Visual Studio\2022\Community\VC\Tools\MSVC\14.37.32822\include\xstring
; File C:\Program Files\Microsoft Visual Studio\2022\Community\VC\Tools\MSVC\14.37.32822\include\string
; File C:\Program Files\Microsoft Visual Studio\2022\Community\VC\Tools\MSVC\14.37.32822\include\xstring
; File H:\Paul\switchemulator\Zelda TotK\MapEditorV4\OldVersion\MapEditor\UIProperties.cpp
; File C:\Program Files\Microsoft Visual Studio\2022\Community\VC\Tools\MSVC\14.37.32822\include\xstring
; File H:\Paul\switchemulator\Zelda TotK\MapEditorV4\OldVersion\MapEditor\imgui\imgui_internal.h
; File H:\Paul\switchemulator\Zelda TotK\MapEditorV4\OldVersion\MapEditor\imgui\imgui.h
; File H:\Paul\switchemulator\Zelda TotK\MapEditorV4\OldVersion\MapEditor\imgui\imgui.cpp
; File H:\Paul\switchemulator\Zelda TotK\MapEditorV4\OldVersion\MapEditor\imgui\imgui.h
; File H:\Paul\switchemulator\Zelda TotK\MapEditorV4\OldVersion\MapEditor\UIProperties.cpp
; File H:\Paul\switchemulator\Zelda TotK\MapEditorV4\OldVersion\MapEditor\imgui\imgui.h
; File C:\Program Files\Microsoft Visual Studio\2022\Community\VC\Tools\MSVC\14.37.32822\include\string
; File C:\Program Files\Microsoft Visual Studio\2022\Community\VC\Tools\MSVC\14.37.32822\include\xstring
; File C:\Program Files\Microsoft Visual Studio\2022\Community\VC\Tools\MSVC\14.37.32822\include\string
; File C:\Program Files\Microsoft Visual Studio\2022\Community\VC\Tools\MSVC\14.37.32822\include\xstring
; File H:\Paul\switchemulator\Zelda TotK\MapEditorV4\OldVersion\MapEditor\imgui\imgui_widgets.cpp
; File C:\Program Files\Microsoft Visual Studio\2022\Community\VC\Tools\MSVC\14.37.32822\include\xstring
; File H:\Paul\switchemulator\Zelda TotK\MapEditorV4\OldVersion\MapEditor\UIProperties.cpp
; File C:\Program Files\Microsoft Visual Studio\2022\Community\VC\Tools\MSVC\14.37.32822\include\vector
; File C:\Program Files\Microsoft Visual Studio\2022\Community\VC\Tools\MSVC\14.37.32822\include\xutility
; File C:\Program Files\Microsoft Visual Studio\2022\Community\VC\Tools\MSVC\14.37.32822\include\vector
; File C:\Program Files\Microsoft Visual Studio\2022\Community\VC\Tools\MSVC\14.37.32822\include\xstring
; File C:\Program Files\Microsoft Visual Studio\2022\Community\VC\Tools\MSVC\14.37.32822\include\vector
; File H:\Paul\switchemulator\Zelda TotK\MapEditorV4\OldVersion\MapEditor\UIProperties.cpp
; File C:\Program Files\Microsoft Visual Studio\2022\Community\VC\Tools\MSVC\14.37.32822\include\vector
; File H:\Paul\switchemulator\Zelda TotK\MapEditorV4\OldVersion\MapEditor\UIProperties.cpp
; File H:\Paul\switchemulator\Zelda TotK\MapEditorV4\OldVersion\MapEditor\imgui\imgui_widgets.cpp
; File H:\Paul\switchemulator\Zelda TotK\MapEditorV4\OldVersion\MapEditor\UIProperties.cpp
; File C:\Program Files\Microsoft Visual Studio\2022\Community\VC\Tools\MSVC\14.37.32822\include\vector
; File H:\Paul\switchemulator\Zelda TotK\MapEditorV4\OldVersion\MapEditor\UIProperties.cpp
; File H:\Paul\switchemulator\Zelda TotK\MapEditorV4\OldVersion\MapEditor\imgui\imgui_internal.h
; File H:\Paul\switchemulator\Zelda TotK\MapEditorV4\OldVersion\MapEditor\imgui\imgui_tables.cpp
; File H:\Paul\switchemulator\Zelda TotK\MapEditorV4\OldVersion\MapEditor\UIProperties.cpp
; File C:\Program Files\Microsoft Visual Studio\2022\Community\VC\Tools\MSVC\14.37.32822\include\vector
; File H:\Paul\switchemulator\Zelda TotK\MapEditorV4\OldVersion\MapEditor\UIProperties.cpp
; File H:\Paul\switchemulator\Zelda TotK\MapEditorV4\OldVersion\MapEditor\imgui\imgui_widgets.cpp
; File H:\Paul\switchemulator\Zelda TotK\MapEditorV4\OldVersion\MapEditor\UIProperties.cpp
; File C:\Program Files\Microsoft Visual Studio\2022\Community\VC\Tools\MSVC\14.37.32822\include\vector
; File H:\Paul\switchemulator\Zelda TotK\MapEditorV4\OldVersion\MapEditor\UIProperties.cpp
; File H:\Paul\switchemulator\Zelda TotK\MapEditorV4\OldVersion\MapEditor\imgui\imgui_widgets.cpp
; File H:\Paul\switchemulator\Zelda TotK\MapEditorV4\OldVersion\MapEditor\UIProperties.cpp
; File C:\Program Files\Microsoft Visual Studio\2022\Community\VC\Tools\MSVC\14.37.32822\include\xstring
; File H:\Paul\switchemulator\Zelda TotK\MapEditorV4\OldVersion\MapEditor\UIProperties.cpp
; File C:\Program Files\Microsoft Visual Studio\2022\Community\VC\Tools\MSVC\14.37.32822\include\xstring
; File H:\Paul\switchemulator\Zelda TotK\MapEditorV4\OldVersion\MapEditor\UIProperties.cpp
; File C:\Program Files\Microsoft Visual Studio\2022\Community\VC\Tools\MSVC\14.37.32822\include\xutility
; File H:\Paul\switchemulator\Zelda TotK\MapEditorV4\OldVersion\MapEditor\UIProperties.cpp
; File C:\Program Files\Microsoft Visual Studio\2022\Community\VC\Tools\MSVC\14.37.32822\include\xstring
; File H:\Paul\switchemulator\Zelda TotK\MapEditorV4\OldVersion\MapEditor\UIProperties.cpp
; File C:\Program Files\Microsoft Visual Studio\2022\Community\VC\Tools\MSVC\14.37.32822\include\xstring
; File H:\Paul\switchemulator\Zelda TotK\MapEditorV4\OldVersion\MapEditor\UIProperties.cpp
; File C:\Program Files\Microsoft Visual Studio\2022\Community\VC\Tools\MSVC\14.37.32822\include\xstring
; File H:\Paul\switchemulator\Zelda TotK\MapEditorV4\OldVersion\MapEditor\UIProperties.cpp
; File H:\Paul\switchemulator\Zelda TotK\MapEditorV4\OldVersion\MapEditor\imgui\imgui_internal.h
; File H:\Paul\switchemulator\Zelda TotK\MapEditorV4\OldVersion\MapEditor\imgui\imgui.cpp
; File H:\Paul\switchemulator\Zelda TotK\MapEditorV4\OldVersion\MapEditor\UIProperties.cpp
; File H:\Paul\switchemulator\Zelda TotK\MapEditorV4\OldVersion\MapEditor\imgui\imgui.h
; File H:\Paul\switchemulator\Zelda TotK\MapEditorV4\OldVersion\MapEditor\UIProperties.cpp
; File C:\Program Files\Microsoft Visual Studio\2022\Community\VC\Tools\MSVC\14.37.32822\include\xstring
; File H:\Paul\switchemulator\Zelda TotK\MapEditorV4\OldVersion\MapEditor\UIProperties.cpp
; File C:\Program Files\Microsoft Visual Studio\2022\Community\VC\Tools\MSVC\14.37.32822\include\xstring
; File H:\Paul\switchemulator\Zelda TotK\MapEditorV4\OldVersion\MapEditor\UIProperties.cpp
; File C:\Program Files\Microsoft Visual Studio\2022\Community\VC\Tools\MSVC\14.37.32822\include\xstring
; File H:\Paul\switchemulator\Zelda TotK\MapEditorV4\OldVersion\MapEditor\UIProperties.cpp
; File H:\Paul\switchemulator\Zelda TotK\MapEditorV4\OldVersion\MapEditor\imgui\imgui_widgets.cpp
; File H:\Paul\switchemulator\Zelda TotK\MapEditorV4\OldVersion\MapEditor\UIProperties.cpp
; File C:\Program Files\Microsoft Visual Studio\2022\Community\VC\Tools\MSVC\14.37.32822\include\xstring
; File H:\Paul\switchemulator\Zelda TotK\MapEditorV4\OldVersion\MapEditor\UIProperties.cpp
; File C:\Program Files\Microsoft Visual Studio\2022\Community\VC\Tools\MSVC\14.37.32822\include\xstring
; File H:\Paul\switchemulator\Zelda TotK\MapEditorV4\OldVersion\MapEditor\UIProperties.cpp
; File C:\Program Files\Microsoft Visual Studio\2022\Community\VC\Tools\MSVC\14.37.32822\include\xstring
; File H:\Paul\switchemulator\Zelda TotK\MapEditorV4\OldVersion\MapEditor\UIProperties.cpp
; File C:\Program Files\Microsoft Visual Studio\2022\Community\VC\Tools\MSVC\14.37.32822\include\xstring
; File H:\Paul\switchemulator\Zelda TotK\MapEditorV4\OldVersion\MapEditor\UIProperties.cpp
; File C:\Program Files\Microsoft Visual Studio\2022\Community\VC\Tools\MSVC\14.37.32822\include\xstring
; File C:\Program Files\Microsoft Visual Studio\2022\Community\VC\Tools\MSVC\14.37.32822\include\vector
; File C:\Program Files\Microsoft Visual Studio\2022\Community\VC\Tools\MSVC\14.37.32822\include\xstring
; File C:\Program Files\Microsoft Visual Studio\2022\Community\VC\Tools\MSVC\14.37.32822\include\vector
; File H:\Paul\switchemulator\Zelda TotK\MapEditorV4\OldVersion\MapEditor\UIProperties.cpp
; File C:\Program Files\Microsoft Visual Studio\2022\Community\VC\Tools\MSVC\14.37.32822\include\vector
; File C:\Program Files\Microsoft Visual Studio\2022\Community\VC\Tools\MSVC\14.37.32822\include\xstring
; File H:\Paul\switchemulator\Zelda TotK\MapEditorV4\OldVersion\MapEditor\UIProperties.cpp
; File H:\Paul\switchemulator\Zelda TotK\MapEditorV4\OldVersion\MapEditor\imgui\imgui.cpp
; File H:\Paul\switchemulator\Zelda TotK\MapEditorV4\OldVersion\MapEditor\imgui\imgui.h
; File H:\Paul\switchemulator\Zelda TotK\MapEditorV4\OldVersion\MapEditor\imgui\imgui.cpp
; File H:\Paul\switchemulator\Zelda TotK\MapEditorV4\OldVersion\MapEditor\imgui\imgui_internal.h
; File H:\Paul\switchemulator\Zelda TotK\MapEditorV4\OldVersion\MapEditor\imgui\imgui_tables.cpp
; File H:\Paul\switchemulator\Zelda TotK\MapEditorV4\OldVersion\MapEditor\UIProperties.cpp
; File H:\Paul\switchemulator\Zelda TotK\MapEditorV4\OldVersion\MapEditor\imgui\imgui_tables.cpp
; File H:\Paul\switchemulator\Zelda TotK\MapEditorV4\OldVersion\MapEditor\imgui\imgui.cpp
; File H:\Paul\switchemulator\Zelda TotK\MapEditorV4\OldVersion\MapEditor\imgui\imgui.h
; File H:\Paul\switchemulator\Zelda TotK\MapEditorV4\OldVersion\MapEditor\imgui\imgui_tables.cpp
; File H:\Paul\switchemulator\Zelda TotK\MapEditorV4\OldVersion\MapEditor\imgui\imgui.h
; File H:\Paul\switchemulator\Zelda TotK\MapEditorV4\OldVersion\MapEditor\imgui\imgui_tables.cpp
; File H:\Paul\switchemulator\Zelda TotK\MapEditorV4\OldVersion\MapEditor\imgui\imgui.h
; File H:\Paul\switchemulator\Zelda TotK\MapEditorV4\OldVersion\MapEditor\imgui\imgui_tables.cpp
; File H:\Paul\switchemulator\Zelda TotK\MapEditorV4\OldVersion\MapEditor\UIProperties.cpp
; File H:\Paul\switchemulator\Zelda TotK\MapEditorV4\OldVersion\MapEditor\imgui\imgui.h
; File H:\Paul\switchemulator\Zelda TotK\MapEditorV4\OldVersion\MapEditor\imgui\imgui_widgets.cpp
; File H:\Paul\switchemulator\Zelda TotK\MapEditorV4\OldVersion\MapEditor\UIProperties.cpp
; File C:\Program Files\Microsoft Visual Studio\2022\Community\VC\Tools\MSVC\14.37.32822\include\xstring
; File H:\Paul\switchemulator\Zelda TotK\MapEditorV4\OldVersion\MapEditor\UIProperties.cpp
; File C:\Program Files\Microsoft Visual Studio\2022\Community\VC\Tools\MSVC\14.37.32822\include\xstring
; File H:\Paul\switchemulator\Zelda TotK\MapEditorV4\OldVersion\MapEditor\UIProperties.cpp
; File H:\Paul\switchemulator\Zelda TotK\MapEditorV4\OldVersion\MapEditor\imgui\imgui.cpp
; File H:\Paul\switchemulator\Zelda TotK\MapEditorV4\OldVersion\MapEditor\imgui\imgui.h
; File H:\Paul\switchemulator\Zelda TotK\MapEditorV4\OldVersion\MapEditor\imgui\imgui.cpp
; File H:\Paul\switchemulator\Zelda TotK\MapEditorV4\OldVersion\MapEditor\UIProperties.cpp
; File H:\Paul\switchemulator\Zelda TotK\MapEditorV4\OldVersion\MapEditor\imgui\imgui_tables.cpp
; File H:\Paul\switchemulator\Zelda TotK\MapEditorV4\OldVersion\MapEditor\imgui\imgui.cpp
; File H:\Paul\switchemulator\Zelda TotK\MapEditorV4\OldVersion\MapEditor\imgui\imgui.h
; File H:\Paul\switchemulator\Zelda TotK\MapEditorV4\OldVersion\MapEditor\imgui\imgui_tables.cpp
; File H:\Paul\switchemulator\Zelda TotK\MapEditorV4\OldVersion\MapEditor\imgui\imgui.h
; File H:\Paul\switchemulator\Zelda TotK\MapEditorV4\OldVersion\MapEditor\imgui\imgui_tables.cpp
; File H:\Paul\switchemulator\Zelda TotK\MapEditorV4\OldVersion\MapEditor\imgui\imgui.h
; File H:\Paul\switchemulator\Zelda TotK\MapEditorV4\OldVersion\MapEditor\imgui\imgui_tables.cpp
; File H:\Paul\switchemulator\Zelda TotK\MapEditorV4\OldVersion\MapEditor\UIProperties.cpp
; File H:\Paul\switchemulator\Zelda TotK\MapEditorV4\OldVersion\MapEditor\imgui\imgui.h
; File H:\Paul\switchemulator\Zelda TotK\MapEditorV4\OldVersion\MapEditor\UIProperties.cpp
; File C:\Program Files\Microsoft Visual Studio\2022\Community\VC\Tools\MSVC\14.37.32822\include\xutility
; File H:\Paul\switchemulator\Zelda TotK\MapEditorV4\OldVersion\MapEditor\UIProperties.cpp
; File C:\Program Files\Microsoft Visual Studio\2022\Community\VC\Tools\MSVC\14.37.32822\include\vector
; File C:\Program Files\Microsoft Visual Studio\2022\Community\VC\Tools\MSVC\14.37.32822\include\xutility
; File H:\Paul\switchemulator\Zelda TotK\MapEditorV4\OldVersion\MapEditor\UIProperties.cpp
; File C:\Program Files\Microsoft Visual Studio\2022\Community\VC\Tools\MSVC\14.37.32822\include\xutility
; File C:\Program Files\Microsoft Visual Studio\2022\Community\VC\Tools\MSVC\14.37.32822\include\xmemory
; File H:\Paul\switchemulator\Zelda TotK\MapEditorV4\OldVersion\MapEditor\UIProperties.cpp
; File C:\Program Files\Microsoft Visual Studio\2022\Community\VC\Tools\MSVC\14.37.32822\include\xmemory
; File C:\Program Files\Microsoft Visual Studio\2022\Community\VC\Tools\MSVC\14.37.32822\include\vector
; File C:\Program Files\Microsoft Visual Studio\2022\Community\VC\Tools\MSVC\14.37.32822\include\xmemory
; File C:\Program Files\Microsoft Visual Studio\2022\Community\VC\Tools\MSVC\14.37.32822\include\vector
; File C:\Program Files\Microsoft Visual Studio\2022\Community\VC\Tools\MSVC\14.37.32822\include\xstring
; File C:\Program Files\Microsoft Visual Studio\2022\Community\VC\Tools\MSVC\14.37.32822\include\xmemory
; File C:\Program Files\Microsoft Visual Studio\2022\Community\VC\Tools\MSVC\14.37.32822\include\vector
; File H:\Paul\switchemulator\Zelda TotK\MapEditorV4\OldVersion\MapEditor\UIProperties.cpp
; File H:\Paul\switchemulator\Zelda TotK\MapEditorV4\OldVersion\MapEditor\imgui\imgui.cpp
; File H:\Paul\switchemulator\Zelda TotK\MapEditorV4\OldVersion\MapEditor\imgui\imgui.h
; File H:\Paul\switchemulator\Zelda TotK\MapEditorV4\OldVersion\MapEditor\imgui\imgui.cpp
; File H:\Paul\switchemulator\Zelda TotK\MapEditorV4\OldVersion\MapEditor\imgui\imgui_internal.h
; File H:\Paul\switchemulator\Zelda TotK\MapEditorV4\OldVersion\MapEditor\imgui\imgui_tables.cpp
; File H:\Paul\switchemulator\Zelda TotK\MapEditorV4\OldVersion\MapEditor\UIProperties.cpp
; File H:\Paul\switchemulator\Zelda TotK\MapEditorV4\OldVersion\MapEditor\imgui\imgui_internal.h
; File H:\Paul\switchemulator\Zelda TotK\MapEditorV4\OldVersion\MapEditor\imgui\imgui.cpp
; File H:\Paul\switchemulator\Zelda TotK\MapEditorV4\OldVersion\MapEditor\UIProperties.cpp
; File H:\Paul\switchemulator\Zelda TotK\MapEditorV4\OldVersion\MapEditor\imgui\imgui.cpp
; File H:\Paul\switchemulator\Zelda TotK\MapEditorV4\OldVersion\MapEditor\UIProperties.cpp
; File H:\Paul\switchemulator\Zelda TotK\MapEditorV4\OldVersion\MapEditor\imgui\imgui.h
; File H:\Paul\switchemulator\Zelda TotK\MapEditorV4\OldVersion\MapEditor\imgui\imgui_widgets.cpp
; File H:\Paul\switchemulator\Zelda TotK\MapEditorV4\OldVersion\MapEditor\UIProperties.cpp
; File H:\Paul\switchemulator\Zelda TotK\MapEditorV4\OldVersion\MapEditor\imgui\imgui.cpp
; File H:\Paul\switchemulator\Zelda TotK\MapEditorV4\OldVersion\MapEditor\imgui\imgui.h
; File H:\Paul\switchemulator\Zelda TotK\MapEditorV4\OldVersion\MapEditor\imgui\imgui.cpp
; File H:\Paul\switchemulator\Zelda TotK\MapEditorV4\OldVersion\MapEditor\imgui\imgui_internal.h
; File H:\Paul\switchemulator\Zelda TotK\MapEditorV4\OldVersion\MapEditor\imgui\imgui_tables.cpp
; File H:\Paul\switchemulator\Zelda TotK\MapEditorV4\OldVersion\MapEditor\imgui\imgui_internal.h
; File H:\Paul\switchemulator\Zelda TotK\MapEditorV4\OldVersion\MapEditor\imgui\imgui_widgets.cpp
; File H:\Paul\switchemulator\Zelda TotK\MapEditorV4\OldVersion\MapEditor\imgui\imgui_internal.h
; File H:\Paul\switchemulator\Zelda TotK\MapEditorV4\OldVersion\MapEditor\imgui\imgui_widgets.cpp
; File H:\Paul\switchemulator\Zelda TotK\MapEditorV4\OldVersion\MapEditor\imgui\imgui_internal.h
; File H:\Paul\switchemulator\Zelda TotK\MapEditorV4\OldVersion\MapEditor\imgui\imgui_widgets.cpp
; File H:\Paul\switchemulator\Zelda TotK\MapEditorV4\OldVersion\MapEditor\UIProperties.cpp
; File H:\Paul\switchemulator\Zelda TotK\MapEditorV4\OldVersion\MapEditor\imgui\imgui.h
; File H:\Paul\switchemulator\Zelda TotK\MapEditorV4\OldVersion\MapEditor\imgui\imgui.cpp
; File H:\Paul\switchemulator\Zelda TotK\MapEditorV4\OldVersion\MapEditor\UIProperties.cpp
; File H:\Paul\switchemulator\Zelda TotK\MapEditorV4\OldVersion\MapEditor\imgui\imgui.cpp
; File H:\Paul\switchemulator\Zelda TotK\MapEditorV4\OldVersion\MapEditor\UIProperties.cpp
; File H:\Paul\switchemulator\Zelda TotK\MapEditorV4\OldVersion\MapEditor\imgui\imgui.cpp
; File C:\Program Files\Microsoft Visual Studio\2022\Community\VC\Tools\MSVC\14.37.32822\include\xstring
; File H:\Paul\switchemulator\Zelda TotK\MapEditorV4\OldVersion\MapEditor\imgui\imgui.h
; File H:\Paul\switchemulator\Zelda TotK\MapEditorV4\OldVersion\MapEditor\imgui\imgui.cpp
; File H:\Paul\switchemulator\Zelda TotK\MapEditorV4\OldVersion\MapEditor\imgui\imgui.h
; File H:\Paul\switchemulator\Zelda TotK\MapEditorV4\OldVersion\MapEditor\imgui\imgui_internal.h
; File H:\Paul\switchemulator\Zelda TotK\MapEditorV4\OldVersion\MapEditor\imgui\imgui_tables.cpp
; File H:\Paul\switchemulator\Zelda TotK\MapEditorV4\OldVersion\MapEditor\UIProperties.cpp
; File C:\Program Files\Microsoft Visual Studio\2022\Community\VC\Tools\MSVC\14.37.32822\include\xstring
; File H:\Paul\switchemulator\Zelda TotK\MapEditorV4\OldVersion\MapEditor\UIProperties.cpp
;	COMDAT ?DrawPropertiesWindow@UIProperties@@YAXXZ
_TEXT	SEGMENT
FoundFarActor$1$ = 64
$T6 = 72
$T7 = 72
$T8 = 72
$T9 = 72
$T10 = 72
$T11 = 72
$T12 = 80
$T13 = 88
$T14 = 88
$T15 = 88
$T16 = 88
$T17 = 88
$T18 = 88
$T19 = 88
$T20 = 88
$T21 = 88
$T22 = 88
$T23 = 88
$T24 = 88
$T25 = 88
$T26 = 88
$T27 = 88
$T28 = 88
$T29 = 88
$T30 = 88
$T31 = 88
$T32 = 88
$T33 = 88
$T34 = 88
$T35 = 88
$T36 = 88
$T37 = 120
$T38 = 120
$T39 = 120
$T40 = 120
$T41 = 120
$T42 = 120
$T43 = 120
$T44 = 120
$T45 = 120
$T46 = 120
$T47 = 120
$T48 = 120
$T49 = 120
$T50 = 120
$T51 = 120
$T52 = 120
$T53 = 120
$T54 = 120
$T55 = 152
$T56 = 152
$T57 = 152
$T58 = 152
$T59 = 152
$T60 = 152
$T61 = 152
$T62 = 152
$T63 = 152
$T64 = 152
$T65 = 152
$T66 = 152
$T67 = 152
$T68 = 152
$T69 = 152
$T70 = 152
$T71 = 152
$T72 = 152
$T73 = 152
$T74 = 152
$T75 = 152
$T76 = 184
$T77 = 184
$T78 = 184
$T79 = 184
$T80 = 184
$T81 = 184
$T82 = 184
$T83 = 208
$T84 = 208
$T85 = 208
$T86 = 208
$T87 = 208
$T88 = 208
$T89 = 208
$T90 = 208
$T91 = 240
$T92 = 240
$T93 = 240
$T94 = 240
$T95 = 240
$T96 = 240
$T97 = 240
$T98 = 256
$T99 = 256
$T100 = 256
$T101 = 256
$T102 = 256
$T103 = 256
$T104 = 288
$T105 = 288
$T106 = 288
$T107 = 288
$T108 = 288
$T109 = 320
$T110 = 320
$T111 = 352
$T112 = 352
$T113 = 384
$T114 = 384
$T115 = 384
backup$116 = 464
backup$117 = 464
$T118 = 464
$T119 = 464
$T120 = 488
$T121 = 520
$T122 = 552
$T123 = 584
$T124 = 616
$T125 = 648
$T126 = 680
$T127 = 712
$T128 = 744
$T129 = 776
$T130 = 776
$T131 = 808
$T132 = 840
$T133 = 872
$T134 = 904
LinkedFarActor$1$ = 944
$T135 = 944
$T136 = 944
$T137 = 944
$T138 = 944
$T139 = 944
$T140 = 944
$T141 = 944
$T142 = 944
$T143 = 944
Iter$144 = 944
$T145 = 944
Iter$146 = 944
$T147 = 944
$T148 = 944
$T149 = 944
$T150 = 944
$T151 = 944
$T152 = 944
$T153 = 944
$T154 = 944
$T155 = 944
$T156 = 944
$T157 = 944
$T158 = 960
$T159 = 960
$T160 = 960
$T161 = 960
$T162 = 960
NewActor$163 = 960
NewActor$164 = 960
SelectedActorCopy$165 = 1840
SelectedActorCopy$166 = 1840
OldActor$167 = 1840
ParentActor$168 = 1840
$T169 = 1840
TypeDropdownItems$170 = 2720
_Buff$171 = 2744
_Buff$172 = 2768
_Buff$173 = 2792
_Buff$174 = 2816
__$ArrayPad$ = 2840
?DrawPropertiesWindow@UIProperties@@YAXXZ PROC		; UIProperties::DrawPropertiesWindow, COMDAT

; 42   : {

$LN2355:
	mov	rax, rsp
	mov	QWORD PTR [rax+8], rbx
	mov	QWORD PTR [rax+16], rsi
	mov	QWORD PTR [rax+24], rdi
	push	rbp
	push	r12
	push	r13
	push	r14
	push	r15
	lea	rbp, QWORD PTR [rax-2760]
	sub	rsp, 2976				; 00000ba0H
	movaps	XMMWORD PTR [rax-56], xmm6
	movaps	XMMWORD PTR [rax-72], xmm7
	movaps	XMMWORD PTR [rax-88], xmm8
	movaps	XMMWORD PTR [rax-104], xmm9
	movaps	XMMWORD PTR [rax-120], xmm10
	movaps	XMMWORD PTR [rax-136], xmm11
	movaps	XMMWORD PTR [rax-152], xmm12
	movaps	XMMWORD PTR [rax-168], xmm13
	mov	rax, QWORD PTR __security_cookie
	xor	rax, rsp
	mov	QWORD PTR __$ArrayPad$[rbp-256], rax
	xor	r13d, r13d
	mov	r15d, r13d
	mov	DWORD PTR $T6[rsp], r13d
	mov	DWORD PTR $T76[rbp-256], r13d

; 43   : 	if (!Open) return;

	cmp	BYTE PTR ?Open@UIProperties@@3_NA, r13b	; UIProperties::Open
	je	$LN1@DrawProper

; 44   : 
; 45   : 	ImGui::Begin("Properties", &Open);

	xor	r8d, r8d
	lea	rdx, OFFSET FLAT:?Open@UIProperties@@3_NA ; UIProperties::Open
	lea	rcx, OFFSET FLAT:??_C@_0L@KOOGALIH@Properties@
	call	?Begin@ImGui@@YA_NPEBDPEA_NH@Z		; ImGui::Begin

; 46   : 
; 47   : 	if (UIMapView::Focused)

	cmp	BYTE PTR ?Focused@UIMapView@@3_NA, r13b	; UIMapView::Focused
	je	$LN32@DrawProper

; 48   : 	{
; 49   : 		if (UIOutliner::SelectedActor != nullptr)

	cmp	QWORD PTR ?SelectedActor@UIOutliner@@3PEAUActor@@EA, r13 ; UIOutliner::SelectedActor
	je	$LN124@DrawProper

; 50   : 		{
; 51   : 			ImGui::Columns(2, "General");

	lea	rdx, OFFSET FLAT:??_C@_07ECEMPDJM@General@
	lea	ecx, QWORD PTR [r13+2]
	call	?Columns@ImGui@@YAXHPEBD_N@Z		; ImGui::Columns

; 52   : 			ImGui::AlignTextToFramePadding();

	call	?AlignTextToFramePadding@ImGui@@YAXXZ	; ImGui::AlignTextToFramePadding

; 53   : 
; 54   : 			ImGui::Text("Actor Gyml");

	lea	rcx, OFFSET FLAT:??_C@_0L@BEBCMECC@Actor?5Gyml@
	call	?Text@ImGui@@YAXPEBDZZ			; ImGui::Text

; 55   : 			ImGui::NextColumn();

	call	?NextColumn@ImGui@@YAXXZ		; ImGui::NextColumn

; 56   : 			ImGui::PushItemWidth(ImGui::GetColumnWidth() - ImGui::GetStyle().ScrollbarSize);

	lea	ecx, QWORD PTR [r13-1]
	call	?GetColumnWidth@ImGui@@YAMH@Z		; ImGui::GetColumnWidth
	mov	rax, QWORD PTR ?GImGui@@3PEAUImGuiContext@@EA ; GImGui
	subss	xmm0, DWORD PTR [rax+14668]
	call	?PushItemWidth@ImGui@@YAXM@Z		; ImGui::PushItemWidth

; 57   : 			if (ImGui::InputText("##Actor Gyml", &UIOutliner::SelectedActor->Gyml))

	mov	rdx, QWORD PTR ?SelectedActor@UIOutliner@@3PEAUActor@@EA ; UIOutliner::SelectedActor
	add	rdx, 8
	lea	rcx, OFFSET FLAT:??_C@_0N@BBPKBNHP@?$CD?$CDActor?5Gyml@
	call	?InputText@ImGui@@YA_NPEBDPEAV?$basic_string@DU?$char_traits@D@std@@V?$allocator@D@2@@std@@HP6AHPEAUImGuiInputTextCallbackData@@@ZPEAX@Z ; ImGui::InputText
	test	al, al
	je	SHORT $LN36@DrawProper

; 59   : 				if (Util::FileExists(Editor::GetRomFSFile("Pack/Actor/" + UIOutliner::SelectedActor->Gyml + ".pack.zs")))

	mov	r8, QWORD PTR ?SelectedActor@UIOutliner@@3PEAUActor@@EA ; UIOutliner::SelectedActor
	add	r8, 8
	lea	rdx, OFFSET FLAT:??_C@_0M@KLNJNMKE@Pack?1Actor?1@
	lea	rcx, QWORD PTR $T54[rsp]
	call	??$?HDU?$char_traits@D@std@@V?$allocator@D@1@@std@@YA?AV?$basic_string@DU?$char_traits@D@std@@V?$allocator@D@2@@0@QEBDAEBV10@@Z ; std::operator+<char,std::char_traits<char>,std::allocator<char> >
	npad	1
	lea	r8, OFFSET FLAT:??_C@_08KPEPEALH@?4pack?4zs@
	mov	rdx, rax
	lea	rcx, QWORD PTR $T75[rbp-256]
	call	??$?HDU?$char_traits@D@std@@V?$allocator@D@1@@std@@YA?AV?$basic_string@DU?$char_traits@D@std@@V?$allocator@D@2@@0@$$QEAV10@QEBD@Z ; std::operator+<char,std::char_traits<char>,std::allocator<char> >
	mov	r8b, 1
	mov	rdx, rax
	lea	rcx, QWORD PTR $T36[rsp]
	call	?GetRomFSFile@Editor@@YA?AV?$basic_string@DU?$char_traits@D@std@@V?$allocator@D@2@@std@@V23@_N@Z ; Editor::GetRomFSFile
	mov	rcx, rax
	call	?FileExists@Util@@YA_NV?$basic_string@DU?$char_traits@D@std@@V?$allocator@D@2@@std@@@Z ; Util::FileExists
	movzx	ebx, al
; File C:\Program Files\Microsoft Visual Studio\2022\Community\VC\Tools\MSVC\14.37.32822\include\xstring

; 3119 :         _Tidy_deallocate();

	lea	rcx, QWORD PTR $T54[rsp]
	call	?_Tidy_deallocate@?$basic_string@DU?$char_traits@D@std@@V?$allocator@D@2@@std@@AEAAXXZ ; std::basic_string<char,std::char_traits<char>,std::allocator<char> >::_Tidy_deallocate
; File H:\Paul\switchemulator\Zelda TotK\MapEditorV4\OldVersion\MapEditor\UIProperties.cpp

; 59   : 				if (Util::FileExists(Editor::GetRomFSFile("Pack/Actor/" + UIOutliner::SelectedActor->Gyml + ".pack.zs")))

	test	bl, bl
	je	SHORT $LN36@DrawProper

; 60   : 				{
; 61   : 					ActorMgr::UpdateModel(UIOutliner::SelectedActor);

	call	?UpdateModel@ActorMgr@@YAXPEAUActor@@@Z	; ActorMgr::UpdateModel

; 62   : 					ActorMgr::UpdateModelOrder();

	call	?UpdateModelOrder@ActorMgr@@YAXXZ	; ActorMgr::UpdateModelOrder
$LN36@DrawProper:

; 63   : 				}
; 64   : 			}
; 65   : 			ImGui::PopItemWidth();

	call	?PopItemWidth@ImGui@@YAXXZ		; ImGui::PopItemWidth

; 66   : 			ImGui::NextColumn();

	call	?NextColumn@ImGui@@YAXXZ		; ImGui::NextColumn

; 67   : 
; 68   : 			ImGui::Text("Actor Hash");

	lea	rcx, OFFSET FLAT:??_C@_0L@HBDLGHPN@Actor?5Hash@
	call	?Text@ImGui@@YAXPEBDZZ			; ImGui::Text

; 69   : 			ImGui::NextColumn();

	call	?NextColumn@ImGui@@YAXXZ		; ImGui::NextColumn

; 70   : 			ImGui::PushItemWidth(ImGui::GetColumnWidth() - ImGui::GetStyle().ScrollbarSize);

	mov	ecx, -1
	call	?GetColumnWidth@ImGui@@YAMH@Z		; ImGui::GetColumnWidth
	mov	rax, QWORD PTR ?GImGui@@3PEAUImGuiContext@@EA ; GImGui
	subss	xmm0, DWORD PTR [rax+14668]
	call	?PushItemWidth@ImGui@@YAXM@Z		; ImGui::PushItemWidth

; 71   : 			ImGui::InputScalar("##Actor Hash", ImGuiDataType_::ImGuiDataType_U64, &UIOutliner::SelectedActor->Hash);

	mov	r8, QWORD PTR ?SelectedActor@UIOutliner@@3PEAUActor@@EA ; UIOutliner::SelectedActor
	add	r8, 40					; 00000028H
	mov	DWORD PTR [rsp+48], r13d
	mov	QWORD PTR [rsp+40], r13
	mov	QWORD PTR [rsp+32], r13
	xor	r9d, r9d
	lea	edx, QWORD PTR [r9+7]
	lea	rcx, OFFSET FLAT:??_C@_0N@HENDLOKA@?$CD?$CDActor?5Hash@
	call	?InputScalar@ImGui@@YA_NPEBDHPEAXPEBX20H@Z ; ImGui::InputScalar

; 72   : 			ImGui::PopItemWidth();

	call	?PopItemWidth@ImGui@@YAXXZ		; ImGui::PopItemWidth

; 73   : 			ImGui::NextColumn();

	call	?NextColumn@ImGui@@YAXXZ		; ImGui::NextColumn

; 74   : 
; 75   : 			ImGui::Text("Actor SRTHash");

	lea	rcx, OFFSET FLAT:??_C@_0O@DNJANLEO@Actor?5SRTHash@
	call	?Text@ImGui@@YAXPEBDZZ			; ImGui::Text

; 76   : 			ImGui::NextColumn();

	call	?NextColumn@ImGui@@YAXXZ		; ImGui::NextColumn

; 77   : 			ImGui::PushItemWidth(ImGui::GetColumnWidth() - ImGui::GetStyle().ScrollbarSize);

	mov	ecx, -1
	call	?GetColumnWidth@ImGui@@YAMH@Z		; ImGui::GetColumnWidth
	mov	rax, QWORD PTR ?GImGui@@3PEAUImGuiContext@@EA ; GImGui
	subss	xmm0, DWORD PTR [rax+14668]
	call	?PushItemWidth@ImGui@@YAXM@Z		; ImGui::PushItemWidth

; 78   : 			ImGui::InputScalar("##Actor SRTHash", ImGuiDataType_::ImGuiDataType_U32, &UIOutliner::SelectedActor->SRTHash);

	mov	r8, QWORD PTR ?SelectedActor@UIOutliner@@3PEAUActor@@EA ; UIOutliner::SelectedActor
	add	r8, 48					; 00000030H
	mov	DWORD PTR [rsp+48], r13d
	mov	QWORD PTR [rsp+40], r13
	mov	QWORD PTR [rsp+32], r13
	xor	r9d, r9d
	lea	edx, QWORD PTR [r9+5]
	lea	rcx, OFFSET FLAT:??_C@_0BA@KHNPHCLE@?$CD?$CDActor?5SRTHash@
	call	?InputScalar@ImGui@@YA_NPEBDHPEAXPEBX20H@Z ; ImGui::InputScalar

; 79   : 			ImGui::PopItemWidth();

	call	?PopItemWidth@ImGui@@YAXXZ		; ImGui::PopItemWidth

; 80   : 			ImGui::NextColumn();

	call	?NextColumn@ImGui@@YAXXZ		; ImGui::NextColumn

; 81   : 
; 82   : 			ImGui::Separator();

	call	?Separator@ImGui@@YAXXZ			; ImGui::Separator

; 83   : 			ImGui::Columns(2);

	xor	edx, edx
	lea	ecx, QWORD PTR [rdx+2]
	call	?Columns@ImGui@@YAXHPEBD_N@Z		; ImGui::Columns

; 84   : 			ImGui::AlignTextToFramePadding();

	call	?AlignTextToFramePadding@ImGui@@YAXXZ	; ImGui::AlignTextToFramePadding

; 85   : 
; 86   : 			ImGui::Text("Name");

	lea	rcx, OFFSET FLAT:??_C@_04FABLJDN@Name@
	call	?Text@ImGui@@YAXPEBDZZ			; ImGui::Text

; 87   : 			ImGui::NextColumn();

	call	?NextColumn@ImGui@@YAXXZ		; ImGui::NextColumn

; 88   : 			ImGui::PushItemWidth(ImGui::GetColumnWidth() - ImGui::GetStyle().ScrollbarSize);

	mov	ecx, -1
	call	?GetColumnWidth@ImGui@@YAMH@Z		; ImGui::GetColumnWidth
	mov	rax, QWORD PTR ?GImGui@@3PEAUImGuiContext@@EA ; GImGui
	subss	xmm0, DWORD PTR [rax+14668]
	call	?PushItemWidth@ImGui@@YAXM@Z		; ImGui::PushItemWidth

; 89   : 			ImGui::InputText("##Name", &UIOutliner::SelectedActor->Name);

	mov	rdx, QWORD PTR ?SelectedActor@UIOutliner@@3PEAUActor@@EA ; UIOutliner::SelectedActor
	add	rdx, 88					; 00000058H
	lea	rcx, OFFSET FLAT:??_C@_06CBCCMFMH@?$CD?$CDName@
	call	?InputText@ImGui@@YA_NPEBDPEAV?$basic_string@DU?$char_traits@D@std@@V?$allocator@D@2@@std@@HP6AHPEAUImGuiInputTextCallbackData@@@ZPEAX@Z ; ImGui::InputText

; 90   : 			ImGui::PopItemWidth();

	call	?PopItemWidth@ImGui@@YAXXZ		; ImGui::PopItemWidth

; 91   : 			ImGui::NextColumn();

	call	?NextColumn@ImGui@@YAXXZ		; ImGui::NextColumn

; 92   : 
; 93   : 			ImGui::Text("Type");

	lea	rcx, OFFSET FLAT:??_C@_04KOACHJEN@Type@
	call	?Text@ImGui@@YAXPEBDZZ			; ImGui::Text

; 94   : 			ImGui::NextColumn();

	call	?NextColumn@ImGui@@YAXXZ		; ImGui::NextColumn

; 95   : 			ImGui::PushItemWidth(ImGui::GetColumnWidth() - ImGui::GetStyle().ScrollbarSize);

	mov	ecx, -1
	call	?GetColumnWidth@ImGui@@YAMH@Z		; ImGui::GetColumnWidth
	mov	rax, QWORD PTR ?GImGui@@3PEAUImGuiContext@@EA ; GImGui
	subss	xmm0, DWORD PTR [rax+14668]
	call	?PushItemWidth@ImGui@@YAXM@Z		; ImGui::PushItemWidth

; 96   : 			const char* TypeDropdownItems[] = { "Static", "Dynamic", "Merged" };

	lea	rax, OFFSET FLAT:??_C@_06KJMEDNIB@Static@
	mov	QWORD PTR TypeDropdownItems$170[rbp-256], rax
	lea	rsi, OFFSET FLAT:??_C@_07BIMMKOLL@Dynamic@
	mov	QWORD PTR TypeDropdownItems$170[rbp-248], rsi
	lea	rax, OFFSET FLAT:??_C@_06HFBIHBKM@Merged@
	mov	QWORD PTR TypeDropdownItems$170[rbp-240], rax

; 97   : 			ImGui::Combo("##Actor Type", reinterpret_cast<int*>(&UIOutliner::SelectedActor->ActorType), TypeDropdownItems, IM_ARRAYSIZE(TypeDropdownItems));

	mov	r9d, 3
	lea	r8, QWORD PTR TypeDropdownItems$170[rbp-256]
	mov	rdx, QWORD PTR ?SelectedActor@UIOutliner@@3PEAUActor@@EA ; UIOutliner::SelectedActor
	lea	rcx, OFFSET FLAT:??_C@_0N@PDIGHLEH@?$CD?$CDActor?5Type@
	call	?Combo@ImGui@@YA_NPEBDPEAHQEBQEBDHH@Z	; ImGui::Combo

; 98   : 			ImGui::PopItemWidth();

	call	?PopItemWidth@ImGui@@YAXXZ		; ImGui::PopItemWidth

; 99   : 			ImGui::NextColumn();

	call	?NextColumn@ImGui@@YAXXZ		; ImGui::NextColumn

; 100  : 
; 101  : 			if (UIOutliner::SelectedActor->ActorType == Actor::Type::Merged && UIOutliner::SelectedActor->MergedActorParent != nullptr)

	mov	rbx, QWORD PTR ?SelectedActor@UIOutliner@@3PEAUActor@@EA ; UIOutliner::SelectedActor
	cmp	DWORD PTR [rbx], 2
	jne	$LN39@DrawProper
	mov	rbx, QWORD PTR [rbx+680]
	test	rbx, rbx
	je	$LN39@DrawProper

; 103  : 				if (UIOutliner::SelectedActor->MergedActorParent->Dynamic.count("BancPath"))

	lea	rdx, OFFSET FLAT:??_C@_08OFGPFEDH@BancPath@
	lea	rcx, QWORD PTR $T35[rsp]
	call	??0?$basic_string@DU?$char_traits@D@std@@V?$allocator@D@2@@std@@QEAA@QEBD@Z ; std::basic_string<char,std::char_traits<char>,std::allocator<char> >::basic_string<char,std::char_traits<char>,std::allocator<char> >
	lea	rdx, QWORD PTR $T35[rsp]
	lea	rcx, QWORD PTR [rbx+408]
	call	?count@?$_Tree@V?$_Tmap_traits@V?$basic_string@DU?$char_traits@D@std@@V?$allocator@D@2@@std@@UDynamicData@Actor@@U?$less@V?$basic_string@DU?$char_traits@D@std@@V?$allocator@D@2@@std@@@2@V?$allocator@U?$pair@$$CBV?$basic_string@DU?$char_traits@D@std@@V?$allocator@D@2@@std@@UDynamicData@Actor@@@std@@@2@$0A@@std@@@std@@QEBA_KAEBV?$basic_string@DU?$char_traits@D@std@@V?$allocator@D@2@@2@@Z ; std::_Tree<std::_Tmap_traits<std::basic_string<char,std::char_traits<char>,std::allocator<char> >,Actor::DynamicData,std::less<std::basic_string<char,std::char_traits<char>,std::allocator<char> > >,std::allocator<std::pair<std::basic_string<char,std::char_traits<char>,std::allocator<char> > const ,Actor::DynamicData> >,0> >::count
	mov	rbx, rax
; File C:\Program Files\Microsoft Visual Studio\2022\Community\VC\Tools\MSVC\14.37.32822\include\xstring

; 3119 :         _Tidy_deallocate();

	lea	rcx, QWORD PTR $T35[rsp]
	call	?_Tidy_deallocate@?$basic_string@DU?$char_traits@D@std@@V?$allocator@D@2@@std@@AEAAXXZ ; std::basic_string<char,std::char_traits<char>,std::allocator<char> >::_Tidy_deallocate
; File H:\Paul\switchemulator\Zelda TotK\MapEditorV4\OldVersion\MapEditor\UIProperties.cpp

; 103  : 				if (UIOutliner::SelectedActor->MergedActorParent->Dynamic.count("BancPath"))

	test	rbx, rbx
	je	$LN39@DrawProper

; 105  : 					if (UIOutliner::SelectedActor->MergedActorParent->Dynamic["BancPath"].Type == BymlFile::Type::StringIndex)

	mov	rax, QWORD PTR ?SelectedActor@UIOutliner@@3PEAUActor@@EA ; UIOutliner::SelectedActor
	mov	rbx, QWORD PTR [rax+680]
	lea	rdx, OFFSET FLAT:??_C@_08OFGPFEDH@BancPath@
	lea	rcx, QWORD PTR $T34[rsp]
	call	??0?$basic_string@DU?$char_traits@D@std@@V?$allocator@D@2@@std@@QEAA@QEBD@Z ; std::basic_string<char,std::char_traits<char>,std::allocator<char> >::basic_string<char,std::char_traits<char>,std::allocator<char> >
	npad	1
	lea	rdx, QWORD PTR $T34[rsp]
	lea	rcx, QWORD PTR [rbx+408]
	call	??A?$map@V?$basic_string@DU?$char_traits@D@std@@V?$allocator@D@2@@std@@UDynamicData@Actor@@U?$less@V?$basic_string@DU?$char_traits@D@std@@V?$allocator@D@2@@std@@@2@V?$allocator@U?$pair@$$CBV?$basic_string@DU?$char_traits@D@std@@V?$allocator@D@2@@std@@UDynamicData@Actor@@@std@@@2@@std@@QEAAAEAUDynamicData@Actor@@$$QEAV?$basic_string@DU?$char_traits@D@std@@V?$allocator@D@2@@1@@Z ; std::map<std::basic_string<char,std::char_traits<char>,std::allocator<char> >,Actor::DynamicData,std::less<std::basic_string<char,std::char_traits<char>,std::allocator<char> > >,std::allocator<std::pair<std::basic_string<char,std::char_traits<char>,std::allocator<char> > const ,Actor::DynamicData> > >::operator[]
	movzx	ebx, BYTE PTR [rax+40]
; File C:\Program Files\Microsoft Visual Studio\2022\Community\VC\Tools\MSVC\14.37.32822\include\xstring

; 3119 :         _Tidy_deallocate();

	lea	rcx, QWORD PTR $T34[rsp]
	call	?_Tidy_deallocate@?$basic_string@DU?$char_traits@D@std@@V?$allocator@D@2@@std@@AEAAXXZ ; std::basic_string<char,std::char_traits<char>,std::allocator<char> >::_Tidy_deallocate
; File H:\Paul\switchemulator\Zelda TotK\MapEditorV4\OldVersion\MapEditor\UIProperties.cpp

; 105  : 					if (UIOutliner::SelectedActor->MergedActorParent->Dynamic["BancPath"].Type == BymlFile::Type::StringIndex)

	cmp	bl, 160					; 000000a0H
	jne	SHORT $LN39@DrawProper

; 106  : 					{
; 107  : 						ImGui::Text("Parent actor");

	lea	rcx, OFFSET FLAT:??_C@_0N@PJFAHGN@Parent?5actor@
	call	?Text@ImGui@@YAXPEBDZZ			; ImGui::Text

; 108  : 						ImGui::NextColumn();

	call	?NextColumn@ImGui@@YAXXZ		; ImGui::NextColumn

; 109  : 						ImGui::TextWrapped(std::get<std::string>(UIOutliner::SelectedActor->MergedActorParent->Dynamic["BancPath"].Data).c_str());

	mov	rax, QWORD PTR ?SelectedActor@UIOutliner@@3PEAUActor@@EA ; UIOutliner::SelectedActor
	mov	rbx, QWORD PTR [rax+680]
	lea	rdx, OFFSET FLAT:??_C@_08OFGPFEDH@BancPath@
	lea	rcx, QWORD PTR $T33[rsp]
	call	??0?$basic_string@DU?$char_traits@D@std@@V?$allocator@D@2@@std@@QEAA@QEBD@Z ; std::basic_string<char,std::char_traits<char>,std::allocator<char> >::basic_string<char,std::char_traits<char>,std::allocator<char> >
	npad	1
	lea	rdx, QWORD PTR $T33[rsp]
	lea	rcx, QWORD PTR [rbx+408]
	call	??A?$map@V?$basic_string@DU?$char_traits@D@std@@V?$allocator@D@2@@std@@UDynamicData@Actor@@U?$less@V?$basic_string@DU?$char_traits@D@std@@V?$allocator@D@2@@std@@@2@V?$allocator@U?$pair@$$CBV?$basic_string@DU?$char_traits@D@std@@V?$allocator@D@2@@std@@UDynamicData@Actor@@@std@@@2@@std@@QEAAAEAUDynamicData@Actor@@$$QEAV?$basic_string@DU?$char_traits@D@std@@V?$allocator@D@2@@1@@Z ; std::map<std::basic_string<char,std::char_traits<char>,std::allocator<char> >,Actor::DynamicData,std::less<std::basic_string<char,std::char_traits<char>,std::allocator<char> > >,std::allocator<std::pair<std::basic_string<char,std::char_traits<char>,std::allocator<char> > const ,Actor::DynamicData> > >::operator[]
	mov	rcx, rax
	call	??$get@V?$basic_string@DU?$char_traits@D@std@@V?$allocator@D@2@@std@@V12@_NH_JI_KMVVector3F@@@std@@YA?A_TAEAV?$variant@V?$basic_string@DU?$char_traits@D@std@@V?$allocator@D@2@@std@@_NH_JI_KMVVector3F@@@0@@Z ; std::get<std::basic_string<char,std::char_traits<char>,std::allocator<char> >,std::basic_string<char,std::char_traits<char>,std::allocator<char> >,bool,int,__int64,unsigned int,unsigned __int64,float,Vector3F>
	mov	rcx, rax
	call	?c_str@?$basic_string@DU?$char_traits@D@std@@V?$allocator@D@2@@std@@QEBAPEBDXZ ; std::basic_string<char,std::char_traits<char>,std::allocator<char> >::c_str
	mov	rcx, rax
	call	?TextWrapped@ImGui@@YAXPEBDZZ		; ImGui::TextWrapped
	npad	1
; File C:\Program Files\Microsoft Visual Studio\2022\Community\VC\Tools\MSVC\14.37.32822\include\xstring

; 3119 :         _Tidy_deallocate();

	lea	rcx, QWORD PTR $T33[rsp]
	call	?_Tidy_deallocate@?$basic_string@DU?$char_traits@D@std@@V?$allocator@D@2@@std@@AEAAXXZ ; std::basic_string<char,std::char_traits<char>,std::allocator<char> >::_Tidy_deallocate
; File H:\Paul\switchemulator\Zelda TotK\MapEditorV4\OldVersion\MapEditor\UIProperties.cpp

; 110  : 						ImGui::NextColumn();

	call	?NextColumn@ImGui@@YAXXZ		; ImGui::NextColumn
$LN39@DrawProper:

; 111  : 					}
; 112  : 				}
; 113  : 			}
; 114  : 
; 115  : 			ImGui::Separator();

	call	?Separator@ImGui@@YAXXZ			; ImGui::Separator

; 116  : 			ImGui::Columns(2);

	xor	edx, edx
	lea	ecx, QWORD PTR [rdx+2]
	call	?Columns@ImGui@@YAXHPEBD_N@Z		; ImGui::Columns

; 117  : 			ImGui::AlignTextToFramePadding();

	call	?AlignTextToFramePadding@ImGui@@YAXXZ	; ImGui::AlignTextToFramePadding

; 118  : 			if (ImGui::Button("Duplicate", ImVec2(ImGui::GetColumnWidth() - ImGui::GetStyle().ScrollbarSize, 0)))

	mov	ecx, -1
	call	?GetColumnWidth@ImGui@@YAMH@Z		; ImGui::GetColumnWidth
	mov	rax, QWORD PTR ?GImGui@@3PEAUImGuiContext@@EA ; GImGui
	subss	xmm0, DWORD PTR [rax+14668]
; File H:\Paul\switchemulator\Zelda TotK\MapEditorV4\OldVersion\MapEditor\imgui\imgui.h

; 270  :     constexpr ImVec2(float _x, float _y)    : x(_x), y(_y) { }

	movss	DWORD PTR $T157[rbp-256], xmm0
	xorps	xmm9, xmm9
	mov	DWORD PTR $T157[rbp-252], 0
; File H:\Paul\switchemulator\Zelda TotK\MapEditorV4\OldVersion\MapEditor\UIProperties.cpp

; 118  : 			if (ImGui::Button("Duplicate", ImVec2(ImGui::GetColumnWidth() - ImGui::GetStyle().ScrollbarSize, 0)))

	lea	rdx, QWORD PTR $T157[rbp-256]
	lea	rcx, OFFSET FLAT:??_C@_09OINHJNMP@Duplicate@
	call	?Button@ImGui@@YA_NPEBDAEBUImVec2@@@Z	; ImGui::Button
	test	al, al
	je	$LN40@DrawProper

; 119  : 			{
; 120  : 				//UIOutliner::SelectedActor = &ActorMgr::AddActor(*UIOutliner::SelectedActor);
; 121  : 
; 122  : 				if (UIOutliner::SelectedActor->MergedActorParent == nullptr)

	mov	rax, QWORD PTR ?SelectedActor@UIOutliner@@3PEAUActor@@EA ; UIOutliner::SelectedActor
	mov	rdx, QWORD PTR [rax+680]
	test	rdx, rdx
	jne	$LN41@DrawProper

; 123  : 				{
; 124  : 					Actor NewActor = *UIOutliner::SelectedActor;

	mov	rdx, rax
	lea	rcx, QWORD PTR NewActor$164[rbp-256]
	call	??0Actor@@QEAA@AEBU0@@Z
	npad	1

; 125  : 
; 126  : 					if (!NewActor.Gyml.ends_with("_Far") && !NewActor.Links.empty())

	lea	rdx, OFFSET FLAT:??_C@_04GJPNONHK@_Far@
	lea	rcx, QWORD PTR NewActor$164[rbp-248]
	call	?ends_with@?$basic_string@DU?$char_traits@D@std@@V?$allocator@D@2@@std@@QEBA_NQEBD@Z ; std::basic_string<char,std::char_traits<char>,std::allocator<char> >::ends_with
	test	al, al
	jne	SHORT $LN43@DrawProper
	mov	rdx, QWORD PTR NewActor$164[rbp-120]
	mov	rbx, QWORD PTR NewActor$164[rbp-112]
	cmp	rdx, rbx
	je	SHORT $LN43@DrawProper

; 128  : 						NewActor.Links.erase(std::remove_if(NewActor.Links.begin(), NewActor.Links.end(), [](const Actor::Link& Link)

	mov	r8, rbx
	lea	rcx, QWORD PTR $T156[rbp-256]
	call	??$remove_if@V?$_Vector_iterator@V?$_Vector_val@U?$_Simple_types@ULink@Actor@@@std@@@std@@@std@@V<lambda_1>@?CC@??DrawPropertiesWindow@UIProperties@@YAXXZ@@std@@YA?AV?$_Vector_iterator@V?$_Vector_val@U?$_Simple_types@ULink@Actor@@@std@@@std@@@0@V10@V10@V<lambda_1>@?CC@??DrawPropertiesWindow@UIProperties@@YAXXZ@@Z ; std::remove_if<std::_Vector_iterator<std::_Vector_val<std::_Simple_types<Actor::Link> > >,`UIProperties::DrawPropertiesWindow'::`34'::<lambda_1> >
; File C:\Program Files\Microsoft Visual Studio\2022\Community\VC\Tools\MSVC\14.37.32822\include\vector

; 43   :     _CONSTEXPR20 _Vector_const_iterator(_Tptr _Parg, const _Container_base* _Pvector) noexcept : _Ptr(_Parg) {

	mov	r9, rbx
; File H:\Paul\switchemulator\Zelda TotK\MapEditorV4\OldVersion\MapEditor\UIProperties.cpp

; 128  : 						NewActor.Links.erase(std::remove_if(NewActor.Links.begin(), NewActor.Links.end(), [](const Actor::Link& Link)

	mov	r8, QWORD PTR [rax]
	lea	rdx, QWORD PTR $T11[rsp]
	lea	rcx, QWORD PTR NewActor$164[rbp-120]
	call	?erase@?$vector@ULink@Actor@@V?$allocator@ULink@Actor@@@std@@@std@@QEAA?AV?$_Vector_iterator@V?$_Vector_val@U?$_Simple_types@ULink@Actor@@@std@@@std@@@2@V?$_Vector_const_iterator@V?$_Vector_val@U?$_Simple_types@ULink@Actor@@@std@@@std@@@2@0@Z ; std::vector<Actor::Link,std::allocator<Actor::Link> >::erase
$LN43@DrawProper:

; 129  : 							{
; 130  : 								for (Actor& PossibleFarActor : ActorMgr::GetActors())
; 131  : 								{
; 132  : 									if (PossibleFarActor.Hash == Link.Dest)
; 133  : 									{
; 134  : 										return PossibleFarActor.Gyml.ends_with("_Far");
; 135  : 									}
; 136  : 								}
; 137  : 								return false;
; 138  : 							}),
; 139  : 							NewActor.Links.end());
; 140  : 					}
; 141  : 
; 142  : 					UIOutliner::SelectedActor = &ActorMgr::AddActor(NewActor);

	lea	rdx, QWORD PTR NewActor$164[rbp-256]
	lea	rcx, QWORD PTR $T169[rbp-256]
	call	??0Actor@@QEAA@AEBU0@@Z
	mov	rcx, rax
	call	?AddActor@ActorMgr@@YAAEAUActor@@U2@_N@Z ; ActorMgr::AddActor
	mov	QWORD PTR ?SelectedActor@UIOutliner@@3PEAUActor@@EA, rax ; UIOutliner::SelectedActor

; 143  : 				}

	lea	rcx, QWORD PTR NewActor$164[rbp-256]
	call	??1Actor@@QEAA@XZ
	jmp	$LN124@DrawProper
$LN41@DrawProper:

; 144  : 				else
; 145  : 				{
; 146  : 					Actor ParentActor = *UIOutliner::SelectedActor->MergedActorParent;

	lea	rcx, QWORD PTR ParentActor$168[rbp-256]
	call	??0Actor@@QEAA@AEBU0@@Z
	npad	1

; 147  : 					if (ParentActor.Dynamic.empty()) goto DupEnd;

	cmp	QWORD PTR ParentActor$168[rbp+160], 0
	je	$LN2346@DrawProper

; 148  : 
; 149  : 					Actor NewActor = *UIOutliner::SelectedActor;

	mov	rdx, QWORD PTR ?SelectedActor@UIOutliner@@3PEAUActor@@EA ; UIOutliner::SelectedActor
	lea	rcx, QWORD PTR NewActor$163[rbp-256]
	call	??0Actor@@QEAA@AEBU0@@Z
	npad	1

; 150  : 					HashMgr::Hash Hash = HashMgr::GetHash();

	lea	rcx, QWORD PTR $T103[rbp-256]
	call	?GetHash@HashMgr@@YA?AUHash@1@XZ	; HashMgr::GetHash
	movups	xmm0, XMMWORD PTR [rax]

; 151  : 					NewActor.Hash = Hash.Hash;

	movq	QWORD PTR NewActor$163[rbp-216], xmm0

; 152  : 					NewActor.SRTHash = Hash.SRTHash;

	psrldq	xmm0, 8
	movd	DWORD PTR NewActor$163[rbp-208], xmm0

; 153  : 					NewActor.ActorType = Actor::Type::Merged;

	mov	DWORD PTR NewActor$163[rbp-256], 2

; 154  : 					UIOutliner::SelectedActor->MergedActorParent->MergedActorContent.push_back(NewActor);

	mov	rax, QWORD PTR ?SelectedActor@UIOutliner@@3PEAUActor@@EA ; UIOutliner::SelectedActor
	mov	rcx, QWORD PTR [rax+680]
	add	rcx, 432				; 000001b0H
	lea	rdx, QWORD PTR NewActor$163[rbp-256]
	call	?push_back@?$vector@UActor@@V?$allocator@UActor@@@std@@@std@@QEAAXAEBUActor@@@Z ; std::vector<Actor,std::allocator<Actor> >::push_back

; 155  : 
; 156  : 					for (Actor& PossibleParent : ActorMgr::GetActors())

	mov	rsi, QWORD PTR ?Actors@ActorMgr@@3V?$vector@UActor@@V?$allocator@UActor@@@std@@@std@@A
	mov	r14, QWORD PTR ?Actors@ActorMgr@@3V?$vector@UActor@@V?$allocator@UActor@@@std@@@std@@A+8
	cmp	rsi, r14
	je	$LN3@DrawProper

; 148  : 
; 149  : 					Actor NewActor = *UIOutliner::SelectedActor;

	lea	rdi, QWORD PTR [rsi+408]
	npad	9
$LL4@DrawProper:

; 157  : 					{
; 158  : 						if (PossibleParent.Dynamic.empty()) continue;

	cmp	QWORD PTR [rdi+8], 0
	je	$LN2@DrawProper

; 159  : 						if (PossibleParent.Dynamic.count("BancPath"))

	lea	rdx, OFFSET FLAT:??_C@_08OFGPFEDH@BancPath@
	lea	rcx, QWORD PTR $T32[rsp]
	call	??0?$basic_string@DU?$char_traits@D@std@@V?$allocator@D@2@@std@@QEAA@QEBD@Z ; std::basic_string<char,std::char_traits<char>,std::allocator<char> >::basic_string<char,std::char_traits<char>,std::allocator<char> >
	lea	rdx, QWORD PTR $T32[rsp]
	mov	rcx, rdi
	call	?count@?$_Tree@V?$_Tmap_traits@V?$basic_string@DU?$char_traits@D@std@@V?$allocator@D@2@@std@@UDynamicData@Actor@@U?$less@V?$basic_string@DU?$char_traits@D@std@@V?$allocator@D@2@@std@@@2@V?$allocator@U?$pair@$$CBV?$basic_string@DU?$char_traits@D@std@@V?$allocator@D@2@@std@@UDynamicData@Actor@@@std@@@2@$0A@@std@@@std@@QEBA_KAEBV?$basic_string@DU?$char_traits@D@std@@V?$allocator@D@2@@2@@Z ; std::_Tree<std::_Tmap_traits<std::basic_string<char,std::char_traits<char>,std::allocator<char> >,Actor::DynamicData,std::less<std::basic_string<char,std::char_traits<char>,std::allocator<char> > >,std::allocator<std::pair<std::basic_string<char,std::char_traits<char>,std::allocator<char> > const ,Actor::DynamicData> >,0> >::count
	mov	rbx, rax
; File C:\Program Files\Microsoft Visual Studio\2022\Community\VC\Tools\MSVC\14.37.32822\include\xstring

; 3119 :         _Tidy_deallocate();

	lea	rcx, QWORD PTR $T32[rsp]
	call	?_Tidy_deallocate@?$basic_string@DU?$char_traits@D@std@@V?$allocator@D@2@@std@@AEAAXXZ ; std::basic_string<char,std::char_traits<char>,std::allocator<char> >::_Tidy_deallocate
; File H:\Paul\switchemulator\Zelda TotK\MapEditorV4\OldVersion\MapEditor\UIProperties.cpp

; 159  : 						if (PossibleParent.Dynamic.count("BancPath"))

	test	rbx, rbx
	je	$LN2@DrawProper

; 161  : 							if (PossibleParent.Dynamic["BancPath"].Type == BymlFile::Type::StringIndex && ParentActor.Dynamic["BancPath"].Type == BymlFile::Type::StringIndex)

	lea	rdx, OFFSET FLAT:??_C@_08OFGPFEDH@BancPath@
	lea	rcx, QWORD PTR $T53[rsp]
	call	??0?$basic_string@DU?$char_traits@D@std@@V?$allocator@D@2@@std@@QEAA@QEBD@Z ; std::basic_string<char,std::char_traits<char>,std::allocator<char> >::basic_string<char,std::char_traits<char>,std::allocator<char> >
	npad	1
	or	r15d, 1
	mov	DWORD PTR $T76[rbp-256], r15d
	lea	rdx, QWORD PTR $T53[rsp]
	mov	rcx, rdi
	call	??A?$map@V?$basic_string@DU?$char_traits@D@std@@V?$allocator@D@2@@std@@UDynamicData@Actor@@U?$less@V?$basic_string@DU?$char_traits@D@std@@V?$allocator@D@2@@std@@@2@V?$allocator@U?$pair@$$CBV?$basic_string@DU?$char_traits@D@std@@V?$allocator@D@2@@std@@UDynamicData@Actor@@@std@@@2@@std@@QEAAAEAUDynamicData@Actor@@$$QEAV?$basic_string@DU?$char_traits@D@std@@V?$allocator@D@2@@1@@Z ; std::map<std::basic_string<char,std::char_traits<char>,std::allocator<char> >,Actor::DynamicData,std::less<std::basic_string<char,std::char_traits<char>,std::allocator<char> > >,std::allocator<std::pair<std::basic_string<char,std::char_traits<char>,std::allocator<char> > const ,Actor::DynamicData> > >::operator[]
	cmp	BYTE PTR [rax+40], 160			; 000000a0H
	jne	SHORT $LN126@DrawProper
	lea	rdx, OFFSET FLAT:??_C@_08OFGPFEDH@BancPath@
	lea	rcx, QWORD PTR $T31[rsp]
	call	??0?$basic_string@DU?$char_traits@D@std@@V?$allocator@D@2@@std@@QEAA@QEBD@Z ; std::basic_string<char,std::char_traits<char>,std::allocator<char> >::basic_string<char,std::char_traits<char>,std::allocator<char> >
	npad	1
	or	r15d, 2
	mov	DWORD PTR $T76[rbp-256], r15d
	lea	rdx, QWORD PTR $T31[rsp]
	lea	rcx, QWORD PTR ParentActor$168[rbp+152]
	call	??A?$map@V?$basic_string@DU?$char_traits@D@std@@V?$allocator@D@2@@std@@UDynamicData@Actor@@U?$less@V?$basic_string@DU?$char_traits@D@std@@V?$allocator@D@2@@std@@@2@V?$allocator@U?$pair@$$CBV?$basic_string@DU?$char_traits@D@std@@V?$allocator@D@2@@std@@UDynamicData@Actor@@@std@@@2@@std@@QEAAAEAUDynamicData@Actor@@$$QEAV?$basic_string@DU?$char_traits@D@std@@V?$allocator@D@2@@1@@Z ; std::map<std::basic_string<char,std::char_traits<char>,std::allocator<char> >,Actor::DynamicData,std::less<std::basic_string<char,std::char_traits<char>,std::allocator<char> > >,std::allocator<std::pair<std::basic_string<char,std::char_traits<char>,std::allocator<char> > const ,Actor::DynamicData> > >::operator[]
	cmp	BYTE PTR [rax+40], 160			; 000000a0H
	jne	SHORT $LN126@DrawProper
	mov	bl, 1
	jmp	SHORT $LN127@DrawProper
$LN126@DrawProper:
	xor	bl, bl
$LN127@DrawProper:
	test	r15b, 2
	je	SHORT $LN1899@DrawProper
	and	r15d, -3
; File C:\Program Files\Microsoft Visual Studio\2022\Community\VC\Tools\MSVC\14.37.32822\include\xstring

; 3119 :         _Tidy_deallocate();

	lea	rcx, QWORD PTR $T31[rsp]
	call	?_Tidy_deallocate@?$basic_string@DU?$char_traits@D@std@@V?$allocator@D@2@@std@@AEAAXXZ ; std::basic_string<char,std::char_traits<char>,std::allocator<char> >::_Tidy_deallocate
	npad	1
$LN1899@DrawProper:
; File H:\Paul\switchemulator\Zelda TotK\MapEditorV4\OldVersion\MapEditor\UIProperties.cpp

; 161  : 							if (PossibleParent.Dynamic["BancPath"].Type == BymlFile::Type::StringIndex && ParentActor.Dynamic["BancPath"].Type == BymlFile::Type::StringIndex)

	test	r15b, 1
	je	SHORT $LN1896@DrawProper
	and	r15d, -2
; File C:\Program Files\Microsoft Visual Studio\2022\Community\VC\Tools\MSVC\14.37.32822\include\xstring

; 3119 :         _Tidy_deallocate();

	lea	rcx, QWORD PTR $T53[rsp]
	call	?_Tidy_deallocate@?$basic_string@DU?$char_traits@D@std@@V?$allocator@D@2@@std@@AEAAXXZ ; std::basic_string<char,std::char_traits<char>,std::allocator<char> >::_Tidy_deallocate
$LN1896@DrawProper:
; File H:\Paul\switchemulator\Zelda TotK\MapEditorV4\OldVersion\MapEditor\UIProperties.cpp

; 161  : 							if (PossibleParent.Dynamic["BancPath"].Type == BymlFile::Type::StringIndex && ParentActor.Dynamic["BancPath"].Type == BymlFile::Type::StringIndex)

	test	bl, bl
	je	$LN2@DrawProper

; 163  : 								if (std::get<std::string>(PossibleParent.Dynamic["BancPath"].Data) == std::get<std::string>(ParentActor.Dynamic["BancPath"].Data))

	lea	rdx, OFFSET FLAT:??_C@_08OFGPFEDH@BancPath@
	lea	rcx, QWORD PTR $T52[rsp]
	call	??0?$basic_string@DU?$char_traits@D@std@@V?$allocator@D@2@@std@@QEAA@QEBD@Z ; std::basic_string<char,std::char_traits<char>,std::allocator<char> >::basic_string<char,std::char_traits<char>,std::allocator<char> >
	npad	1
	lea	rdx, QWORD PTR $T52[rsp]
	lea	rcx, QWORD PTR ParentActor$168[rbp+152]
	call	??A?$map@V?$basic_string@DU?$char_traits@D@std@@V?$allocator@D@2@@std@@UDynamicData@Actor@@U?$less@V?$basic_string@DU?$char_traits@D@std@@V?$allocator@D@2@@std@@@2@V?$allocator@U?$pair@$$CBV?$basic_string@DU?$char_traits@D@std@@V?$allocator@D@2@@std@@UDynamicData@Actor@@@std@@@2@@std@@QEAAAEAUDynamicData@Actor@@$$QEAV?$basic_string@DU?$char_traits@D@std@@V?$allocator@D@2@@1@@Z ; std::map<std::basic_string<char,std::char_traits<char>,std::allocator<char> >,Actor::DynamicData,std::less<std::basic_string<char,std::char_traits<char>,std::allocator<char> > >,std::allocator<std::pair<std::basic_string<char,std::char_traits<char>,std::allocator<char> > const ,Actor::DynamicData> > >::operator[]
	mov	rcx, rax
	call	??$get@V?$basic_string@DU?$char_traits@D@std@@V?$allocator@D@2@@std@@V12@_NH_JI_KMVVector3F@@@std@@YA?A_TAEAV?$variant@V?$basic_string@DU?$char_traits@D@std@@V?$allocator@D@2@@std@@_NH_JI_KMVVector3F@@@0@@Z ; std::get<std::basic_string<char,std::char_traits<char>,std::allocator<char> >,std::basic_string<char,std::char_traits<char>,std::allocator<char> >,bool,int,__int64,unsigned int,unsigned __int64,float,Vector3F>
	mov	rbx, rax
	lea	rdx, OFFSET FLAT:??_C@_08OFGPFEDH@BancPath@
	lea	rcx, QWORD PTR $T30[rsp]
	call	??0?$basic_string@DU?$char_traits@D@std@@V?$allocator@D@2@@std@@QEAA@QEBD@Z ; std::basic_string<char,std::char_traits<char>,std::allocator<char> >::basic_string<char,std::char_traits<char>,std::allocator<char> >
	npad	1
	lea	rdx, QWORD PTR $T30[rsp]
	mov	rcx, rdi
	call	??A?$map@V?$basic_string@DU?$char_traits@D@std@@V?$allocator@D@2@@std@@UDynamicData@Actor@@U?$less@V?$basic_string@DU?$char_traits@D@std@@V?$allocator@D@2@@std@@@2@V?$allocator@U?$pair@$$CBV?$basic_string@DU?$char_traits@D@std@@V?$allocator@D@2@@std@@UDynamicData@Actor@@@std@@@2@@std@@QEAAAEAUDynamicData@Actor@@$$QEAV?$basic_string@DU?$char_traits@D@std@@V?$allocator@D@2@@1@@Z ; std::map<std::basic_string<char,std::char_traits<char>,std::allocator<char> >,Actor::DynamicData,std::less<std::basic_string<char,std::char_traits<char>,std::allocator<char> > >,std::allocator<std::pair<std::basic_string<char,std::char_traits<char>,std::allocator<char> > const ,Actor::DynamicData> > >::operator[]
	mov	rcx, rax
	call	??$get@V?$basic_string@DU?$char_traits@D@std@@V?$allocator@D@2@@std@@V12@_NH_JI_KMVVector3F@@@std@@YA?A_TAEAV?$variant@V?$basic_string@DU?$char_traits@D@std@@V?$allocator@D@2@@std@@_NH_JI_KMVVector3F@@@0@@Z ; std::get<std::basic_string<char,std::char_traits<char>,std::allocator<char> >,std::basic_string<char,std::char_traits<char>,std::allocator<char> >,bool,int,__int64,unsigned int,unsigned __int64,float,Vector3F>
	mov	rdx, rbx
	mov	rcx, rax
	call	??$?8DU?$char_traits@D@std@@V?$allocator@D@1@@std@@YA_NAEBV?$basic_string@DU?$char_traits@D@std@@V?$allocator@D@2@@0@0@Z ; std::operator==<char,std::char_traits<char>,std::allocator<char> >
	movzx	ebx, al
; File C:\Program Files\Microsoft Visual Studio\2022\Community\VC\Tools\MSVC\14.37.32822\include\xstring

; 3119 :         _Tidy_deallocate();

	lea	rcx, QWORD PTR $T30[rsp]
	call	?_Tidy_deallocate@?$basic_string@DU?$char_traits@D@std@@V?$allocator@D@2@@std@@AEAAXXZ ; std::basic_string<char,std::char_traits<char>,std::allocator<char> >::_Tidy_deallocate
	npad	1
	lea	rcx, QWORD PTR $T52[rsp]
	call	?_Tidy_deallocate@?$basic_string@DU?$char_traits@D@std@@V?$allocator@D@2@@std@@AEAAXXZ ; std::basic_string<char,std::char_traits<char>,std::allocator<char> >::_Tidy_deallocate
; File H:\Paul\switchemulator\Zelda TotK\MapEditorV4\OldVersion\MapEditor\UIProperties.cpp

; 163  : 								if (std::get<std::string>(PossibleParent.Dynamic["BancPath"].Data) == std::get<std::string>(ParentActor.Dynamic["BancPath"].Data))

	test	bl, bl
	je	SHORT $LN2@DrawProper
; File C:\Program Files\Microsoft Visual Studio\2022\Community\VC\Tools\MSVC\14.37.32822\include\vector

; 1944 :         return _My_data._Mylast[-1];

	mov	rax, QWORD PTR [rdi+32]
	sub	rax, 872				; 00000368H
; File H:\Paul\switchemulator\Zelda TotK\MapEditorV4\OldVersion\MapEditor\UIProperties.cpp

; 165  : 									UIOutliner::SelectedActor = &PossibleParent.MergedActorContent.back();

	mov	QWORD PTR ?SelectedActor@UIOutliner@@3PEAUActor@@EA, rax ; UIOutliner::SelectedActor
$LN2@DrawProper:

; 155  : 
; 156  : 					for (Actor& PossibleParent : ActorMgr::GetActors())

	add	rsi, 872				; 00000368H
	add	rdi, 872				; 00000368H
	cmp	rsi, r14
	jne	$LL4@DrawProper
$LN3@DrawProper:

; 166  : 								}
; 167  : 							}
; 168  : 						}
; 169  : 					}
; 170  : 
; 171  : 					ActorMgr::UpdateModelOrder();

	call	?UpdateModelOrder@ActorMgr@@YAXXZ	; ActorMgr::UpdateModelOrder
	npad	1

; 172  : 				}

	lea	rcx, QWORD PTR NewActor$163[rbp-256]
	call	??1Actor@@QEAA@XZ
	npad	1
$LN2346@DrawProper:

; 187  : 			{
; 188  : 				ImGui::End();

	lea	rcx, QWORD PTR ParentActor$168[rbp-256]
	call	??1Actor@@QEAA@XZ
	jmp	$LN124@DrawProper
$LN40@DrawProper:

; 173  : 			DupEnd:
; 174  : 				ImGui::End();
; 175  : 				return;
; 176  : 			}
; 177  : 			ImGui::NextColumn();

	call	?NextColumn@ImGui@@YAXXZ		; ImGui::NextColumn

; 178  : 			if (StarImGui::ButtonDelete("Delete", ImVec2(ImGui::GetColumnWidth() - ImGui::GetStyle().ScrollbarSize, 0)))

	mov	ecx, -1
	call	?GetColumnWidth@ImGui@@YAMH@Z		; ImGui::GetColumnWidth
	mov	rax, QWORD PTR ?GImGui@@3PEAUImGuiContext@@EA ; GImGui
	subss	xmm0, DWORD PTR [rax+14668]
; File H:\Paul\switchemulator\Zelda TotK\MapEditorV4\OldVersion\MapEditor\imgui\imgui.h

; 270  :     constexpr ImVec2(float _x, float _y)    : x(_x), y(_y) { }

	movss	DWORD PTR $T155[rbp-256], xmm0
	mov	DWORD PTR $T155[rbp-252], 0
; File H:\Paul\switchemulator\Zelda TotK\MapEditorV4\OldVersion\MapEditor\UIProperties.cpp

; 178  : 			if (StarImGui::ButtonDelete("Delete", ImVec2(ImGui::GetColumnWidth() - ImGui::GetStyle().ScrollbarSize, 0)))

	lea	rdx, QWORD PTR $T155[rbp-256]
	lea	rcx, OFFSET FLAT:??_C@_06JBKGCNBB@Delete@
	call	?ButtonDelete@StarImGui@@YA_NPEBDAEBUImVec2@@@Z ; StarImGui::ButtonDelete
	test	al, al
	je	SHORT $LN50@DrawProper

; 179  : 			{
; 180  : 				PopupGeneralConfirm::Open("Do you really want to delete the actor?", []()

	lea	rdx, OFFSET FLAT:??_C@_0CI@GLLDHLII@Do?5you?5really?5want?5to?5delete?5th@
	lea	rcx, QWORD PTR $T74[rbp-256]
	call	??0?$basic_string@DU?$char_traits@D@std@@V?$allocator@D@2@@std@@QEAA@QEBD@Z ; std::basic_string<char,std::char_traits<char>,std::allocator<char> >::basic_string<char,std::char_traits<char>,std::allocator<char> >
	lea	rdx, OFFSET FLAT:?<lambda_invoker_cdecl>@<lambda_2>@?DI@??DrawPropertiesWindow@UIProperties@@YAXXZ@SA@XZ ; `UIProperties::DrawPropertiesWindow'::`56'::<lambda_2>::<lambda_invoker_cdecl>
	mov	rcx, rax
	call	?Open@PopupGeneralConfirm@@YAXV?$basic_string@DU?$char_traits@D@std@@V?$allocator@D@2@@std@@P6AXXZ@Z ; PopupGeneralConfirm::Open
$LN50@DrawProper:

; 181  : 					{
; 182  : 						ActorMgr::DeleteActor(UIOutliner::SelectedActor->Hash, UIOutliner::SelectedActor->SRTHash);
; 183  : 						UIOutliner::SelectedActor = nullptr;
; 184  : 					});
; 185  : 			}
; 186  : 			if (UIOutliner::SelectedActor == nullptr)

	mov	rax, QWORD PTR ?SelectedActor@UIOutliner@@3PEAUActor@@EA ; UIOutliner::SelectedActor
	test	rax, rax
	je	$LN124@DrawProper

; 189  : 				return;
; 190  : 			}
; 191  : 			if (UIOutliner::SelectedActor->MergedActorParent == nullptr)

	cmp	QWORD PTR [rax+680], 0
	jne	$LN52@DrawProper

; 192  : 			{
; 193  : 				ImGui::Columns();

	xor	edx, edx
	lea	ecx, QWORD PTR [rdx+1]
	call	?Columns@ImGui@@YAXHPEBD_N@Z		; ImGui::Columns

; 194  : 				ImGui::SetCursorPosX(ImGui::GetStyle().ItemSpacing.x);

	mov	r8, QWORD PTR ?GImGui@@3PEAUImGuiContext@@EA ; GImGui
	movss	xmm0, DWORD PTR [r8+14628]
	call	?SetCursorPosX@ImGui@@YAXM@Z		; ImGui::SetCursorPosX
; File H:\Paul\switchemulator\Zelda TotK\MapEditorV4\OldVersion\MapEditor\imgui\imgui.cpp

; 8006 :     ImGuiWindow* window = GetCurrentWindowRead();

	mov	rdx, QWORD PTR [r8+16408]

; 8007 :     return window->Size;

	movss	xmm2, DWORD PTR [rdx+88]
; File H:\Paul\switchemulator\Zelda TotK\MapEditorV4\OldVersion\MapEditor\UIProperties.cpp

; 195  : 				if (ImGui::Button("Add to parent", ImVec2(ImGui::GetWindowSize().x - ImGui::GetStyle().ScrollbarSize, 0)))

	subss	xmm2, DWORD PTR [r8+14668]
; File H:\Paul\switchemulator\Zelda TotK\MapEditorV4\OldVersion\MapEditor\imgui\imgui.h

; 270  :     constexpr ImVec2(float _x, float _y)    : x(_x), y(_y) { }

	movss	DWORD PTR $T154[rbp-256], xmm2
	mov	DWORD PTR $T154[rbp-252], 0
; File H:\Paul\switchemulator\Zelda TotK\MapEditorV4\OldVersion\MapEditor\UIProperties.cpp

; 195  : 				if (ImGui::Button("Add to parent", ImVec2(ImGui::GetWindowSize().x - ImGui::GetStyle().ScrollbarSize, 0)))

	lea	rdx, QWORD PTR $T154[rbp-256]
	lea	rcx, OFFSET FLAT:??_C@_0O@LNEOBDIE@Add?5to?5parent@
	call	?Button@ImGui@@YA_NPEBDAEBUImVec2@@@Z	; ImGui::Button
	test	al, al
	je	$LN53@DrawProper

; 196  : 				{
; 197  : 					PopupGeneralInputString::Open("Add to parent", "Merged actor path (e.g. Banc/MainField/Merged/xyz.bcett.byml)", "Merge", [](std::string Path)

	lea	rax, QWORD PTR $T73[rbp-256]
	mov	QWORD PTR $T153[rbp-256], rax
	lea	rdx, OFFSET FLAT:??_C@_05DIANJFID@Merge@
	lea	rcx, QWORD PTR $T73[rbp-256]
	call	??0?$basic_string@DU?$char_traits@D@std@@V?$allocator@D@2@@std@@QEAA@QEBD@Z ; std::basic_string<char,std::char_traits<char>,std::allocator<char> >::basic_string<char,std::char_traits<char>,std::allocator<char> >
	mov	rdi, rax
	lea	rax, QWORD PTR $T29[rsp]
	mov	QWORD PTR $T82[rbp-256], rax
	lea	rdx, OFFSET FLAT:??_C@_0DO@LGHDJFJE@Merged?5actor?5path?5?$CIe?4g?4?5Banc?1Ma@
	lea	rcx, QWORD PTR $T29[rsp]
	call	??0?$basic_string@DU?$char_traits@D@std@@V?$allocator@D@2@@std@@QEAA@QEBD@Z ; std::basic_string<char,std::char_traits<char>,std::allocator<char> >::basic_string<char,std::char_traits<char>,std::allocator<char> >
	mov	rbx, rax
	lea	rdx, OFFSET FLAT:??_C@_0O@LNEOBDIE@Add?5to?5parent@
	lea	rcx, QWORD PTR $T51[rsp]
	call	??0?$basic_string@DU?$char_traits@D@std@@V?$allocator@D@2@@std@@QEAA@QEBD@Z ; std::basic_string<char,std::char_traits<char>,std::allocator<char> >::basic_string<char,std::char_traits<char>,std::allocator<char> >
	npad	1
	lea	r9, OFFSET FLAT:?<lambda_invoker_cdecl>@<lambda_3>@?EB@??DrawPropertiesWindow@UIProperties@@YAXXZ@SA@V?$basic_string@DU?$char_traits@D@std@@V?$allocator@D@2@@std@@@Z ; `UIProperties::DrawPropertiesWindow'::`65'::<lambda_3>::<lambda_invoker_cdecl>
	mov	r8, rdi
	mov	rdx, rbx
	mov	rcx, rax
	call	?Open@PopupGeneralInputString@@YAXV?$basic_string@DU?$char_traits@D@std@@V?$allocator@D@2@@std@@00P6AX0@Z@Z ; PopupGeneralInputString::Open

; 198  : 						{
; 199  : 							for (Actor& Merged : ActorMgr::GetActors())
; 200  : 							{
; 201  : 								if (Merged.Dynamic.empty()) continue;
; 202  : 								if (Merged.Dynamic.count("BancPath"))
; 203  : 								{
; 204  : 									if (Merged.Dynamic["BancPath"].Type == BymlFile::Type::StringIndex)
; 205  : 									{
; 206  : 										if (std::get<std::string>(Merged.Dynamic["BancPath"].Data) == Path)
; 207  : 										{
; 208  : 											UIOutliner::SelectedActor->ActorType = Actor::Type::Merged;
; 209  : 											Merged.MergedActorContent.push_back(*UIOutliner::SelectedActor);
; 210  : 
; 211  : 											Actor CompareActor = *UIOutliner::SelectedActor;
; 212  : 
; 213  : 											UIOutliner::SelectedActor = &Merged.MergedActorContent.back();
; 214  : 
; 215  : 											ActorMgr::GetActors().erase(
; 216  : 												std::remove_if(ActorMgr::GetActors().begin(), ActorMgr::GetActors().end(), [&](Actor const& Actor) {
; 217  : 													return Actor == CompareActor;
; 218  : 													}),
; 219  : 												ActorMgr::GetActors().end());
; 220  : 											ActorMgr::UpdateModelOrder();
; 221  : 										}
; 222  : 									}
; 223  : 								}
; 224  : 							}
; 225  : 						});
; 226  : 				}
; 227  : 			}

	jmp	$LN53@DrawProper
$LN52@DrawProper:

; 228  : 			else
; 229  : 			{
; 230  : 				ImGui::NextColumn();

	call	?NextColumn@ImGui@@YAXXZ		; ImGui::NextColumn

; 231  : 				if (ImGui::Button("Remove from parent", ImVec2(ImGui::GetColumnWidth() - ImGui::GetStyle().ScrollbarSize, 0)))

	mov	ecx, -1
	call	?GetColumnWidth@ImGui@@YAMH@Z		; ImGui::GetColumnWidth
	mov	rax, QWORD PTR ?GImGui@@3PEAUImGuiContext@@EA ; GImGui
	subss	xmm0, DWORD PTR [rax+14668]
; File H:\Paul\switchemulator\Zelda TotK\MapEditorV4\OldVersion\MapEditor\imgui\imgui.h

; 270  :     constexpr ImVec2(float _x, float _y)    : x(_x), y(_y) { }

	movss	DWORD PTR $T152[rbp-256], xmm0
	mov	DWORD PTR $T152[rbp-252], 0
; File H:\Paul\switchemulator\Zelda TotK\MapEditorV4\OldVersion\MapEditor\UIProperties.cpp

; 231  : 				if (ImGui::Button("Remove from parent", ImVec2(ImGui::GetColumnWidth() - ImGui::GetStyle().ScrollbarSize, 0)))

	lea	rdx, QWORD PTR $T152[rbp-256]
	lea	rcx, OFFSET FLAT:??_C@_0BD@PJMJGPKK@Remove?5from?5parent@
	call	?Button@ImGui@@YA_NPEBDAEBUImVec2@@@Z	; ImGui::Button
	test	al, al
	je	$LN55@DrawProper

; 232  : 				{
; 233  : 					UIOutliner::SelectedActor->ActorType = Actor::Type::Static;

	mov	rdx, QWORD PTR ?SelectedActor@UIOutliner@@3PEAUActor@@EA ; UIOutliner::SelectedActor
	mov	DWORD PTR [rdx], r13d

; 234  : 					ActorMgr::GetActors().push_back(*UIOutliner::SelectedActor);

	lea	rcx, OFFSET FLAT:?Actors@ActorMgr@@3V?$vector@UActor@@V?$allocator@UActor@@@std@@@std@@A ; ActorMgr::Actors
	call	?push_back@?$vector@UActor@@V?$allocator@UActor@@@std@@@std@@QEAAXAEBUActor@@@Z ; std::vector<Actor,std::allocator<Actor> >::push_back

; 235  : 					UIOutliner::SelectedActor->MergedActorParent->MergedActorContent.erase(

	mov	rax, QWORD PTR ?SelectedActor@UIOutliner@@3PEAUActor@@EA ; UIOutliner::SelectedActor
	mov	rcx, QWORD PTR [rax+680]
	lea	rdi, QWORD PTR [rcx+432]
; File C:\Program Files\Microsoft Visual Studio\2022\Community\VC\Tools\MSVC\14.37.32822\include\vector

; 43   :     _CONSTEXPR20 _Vector_const_iterator(_Tptr _Parg, const _Container_base* _Pvector) noexcept : _Ptr(_Parg) {

	mov	rbx, QWORD PTR [rcx+440]
	mov	rdx, QWORD PTR [rdi]
; File H:\Paul\switchemulator\Zelda TotK\MapEditorV4\OldVersion\MapEditor\UIProperties.cpp

; 235  : 					UIOutliner::SelectedActor->MergedActorParent->MergedActorContent.erase(

	mov	r8, rbx
	lea	rcx, QWORD PTR $T90[rbp-256]
	call	??$remove_if@V?$_Vector_iterator@V?$_Vector_val@U?$_Simple_types@UActor@@@std@@@std@@@std@@V<lambda_4>@?EG@??DrawPropertiesWindow@UIProperties@@YAXXZ@@std@@YA?AV?$_Vector_iterator@V?$_Vector_val@U?$_Simple_types@UActor@@@std@@@std@@@0@V10@V10@V<lambda_4>@?EG@??DrawPropertiesWindow@UIProperties@@YAXXZ@@Z ; std::remove_if<std::_Vector_iterator<std::_Vector_val<std::_Simple_types<Actor> > >,`UIProperties::DrawPropertiesWindow'::`70'::<lambda_4> >
; File C:\Program Files\Microsoft Visual Studio\2022\Community\VC\Tools\MSVC\14.37.32822\include\vector

; 43   :     _CONSTEXPR20 _Vector_const_iterator(_Tptr _Parg, const _Container_base* _Pvector) noexcept : _Ptr(_Parg) {

	mov	r9, rbx
; File H:\Paul\switchemulator\Zelda TotK\MapEditorV4\OldVersion\MapEditor\UIProperties.cpp

; 235  : 					UIOutliner::SelectedActor->MergedActorParent->MergedActorContent.erase(

	mov	r8, QWORD PTR [rax]
	lea	rdx, QWORD PTR $T151[rbp-256]
	mov	rcx, rdi
	call	?erase@?$vector@UActor@@V?$allocator@UActor@@@std@@@std@@QEAA?AV?$_Vector_iterator@V?$_Vector_val@U?$_Simple_types@UActor@@@std@@@std@@@2@V?$_Vector_const_iterator@V?$_Vector_val@U?$_Simple_types@UActor@@@std@@@std@@@2@0@Z ; std::vector<Actor,std::allocator<Actor> >::erase
; File C:\Program Files\Microsoft Visual Studio\2022\Community\VC\Tools\MSVC\14.37.32822\include\vector

; 1944 :         return _My_data._Mylast[-1];

	mov	rax, QWORD PTR ?Actors@ActorMgr@@3V?$vector@UActor@@V?$allocator@UActor@@@std@@@std@@A+8
; File H:\Paul\switchemulator\Zelda TotK\MapEditorV4\OldVersion\MapEditor\UIProperties.cpp

; 240  : 					ActorMgr::GetActors().back().MergedActorParent = nullptr;

	mov	QWORD PTR [rax-192], r13

; 241  : 					ActorMgr::UpdateModelOrder();

	call	?UpdateModelOrder@ActorMgr@@YAXXZ	; ActorMgr::UpdateModelOrder
; File C:\Program Files\Microsoft Visual Studio\2022\Community\VC\Tools\MSVC\14.37.32822\include\vector

; 1944 :         return _My_data._Mylast[-1];

	mov	rax, QWORD PTR ?Actors@ActorMgr@@3V?$vector@UActor@@V?$allocator@UActor@@@std@@@std@@A+8
	add	rax, -872				; fffffffffffffc98H
	mov	QWORD PTR ?SelectedActor@UIOutliner@@3PEAUActor@@EA, rax ; UIOutliner::SelectedActor
$LN55@DrawProper:
