; Listing generated by Microsoft (R) Optimizing Compiler Version 19.37.32822.0 

include listing.inc

INCLUDELIB OLDNAMES

PUBLIC	?Open@UITools@@3_NA				; UITools::Open
PUBLIC	??_C@_0N@BOJIGJLG@ActorStacker@			; `string'
PUBLIC	??_C@_0CF@HIHBIGIN@Could?5not?5find?5base?5actor?5with?5@ ; `string'
PUBLIC	??_C@_0P@KHDBJKCM@Visible?5actors@		; `string'
PUBLIC	??_C@_06EPLDPNDB@Render@			; `string'
PUBLIC	??_C@_0N@DNFKIBNP@SkyAntiZonau@			; `string'
PUBLIC	??_C@_0BF@PMELGHKF@StartPos?5to?5selected@	; `string'
PUBLIC	??_C@_07BHIPFKL@NavMesh@			; `string'
PUBLIC	??_C@_0BB@KGNBKLMN@Generate?5NavMesh@		; `string'
PUBLIC	??_C@_03LHGHNHCF@Rot@				; `string'
PUBLIC	??_C@_05EINELICJ@Areas@				; `string'
PUBLIC	??_C@_0BB@BEPLMMON@Invisible?5actors@		; `string'
PUBLIC	??_C@_04GDNNPIME@NPCs@				; `string'
PUBLIC	??_C@_0L@CMFCHGAA@Far?5actors@			; `string'
PUBLIC	??_C@_0BD@KNBDJGLP@Save?1Phive?1NavMesh@	; `string'
PUBLIC	??_C@_0CN@NAICAGED@Phive?1NavMesh?1Dungeon136?4Nin_NX@ ; `string'
PUBLIC	??_C@_0BL@GNBFNKIE@Save?1Phive?1NavMesh?1Dungeon@ ; `string'
;	COMDAT ??_C@_0BL@GNBFNKIE@Save?1Phive?1NavMesh?1Dungeon@
CONST	SEGMENT
??_C@_0BL@GNBFNKIE@Save?1Phive?1NavMesh?1Dungeon@ DB 'Save/Phive/NavMesh/'
	DB	'Dungeon', 00H				; `string'
CONST	ENDS
;	COMDAT ??_C@_0CN@NAICAGED@Phive?1NavMesh?1Dungeon136?4Nin_NX@
CONST	SEGMENT
??_C@_0CN@NAICAGED@Phive?1NavMesh?1Dungeon136?4Nin_NX@ DB 'Phive/NavMesh/'
	DB	'Dungeon136.Nin_NX_NVN.bphnm.zs', 00H	; `string'
CONST	ENDS
;	COMDAT ??_C@_0BD@KNBDJGLP@Save?1Phive?1NavMesh@
CONST	SEGMENT
??_C@_0BD@KNBDJGLP@Save?1Phive?1NavMesh@ DB 'Save/Phive/NavMesh', 00H ; `string'
CONST	ENDS
;	COMDAT ??_C@_0L@CMFCHGAA@Far?5actors@
CONST	SEGMENT
??_C@_0L@CMFCHGAA@Far?5actors@ DB 'Far actors', 00H	; `string'
CONST	ENDS
;	COMDAT ??_C@_04GDNNPIME@NPCs@
CONST	SEGMENT
??_C@_04GDNNPIME@NPCs@ DB 'NPCs', 00H			; `string'
CONST	ENDS
;	COMDAT ??_C@_0BB@BEPLMMON@Invisible?5actors@
CONST	SEGMENT
??_C@_0BB@BEPLMMON@Invisible?5actors@ DB 'Invisible actors', 00H ; `string'
CONST	ENDS
;	COMDAT ??_C@_05EINELICJ@Areas@
CONST	SEGMENT
??_C@_05EINELICJ@Areas@ DB 'Areas', 00H			; `string'
CONST	ENDS
;	COMDAT ??_C@_03LHGHNHCF@Rot@
CONST	SEGMENT
??_C@_03LHGHNHCF@Rot@ DB 'Rot', 00H			; `string'
CONST	ENDS
;	COMDAT ??_C@_0BB@KGNBKLMN@Generate?5NavMesh@
CONST	SEGMENT
??_C@_0BB@KGNBKLMN@Generate?5NavMesh@ DB 'Generate NavMesh', 00H ; `string'
CONST	ENDS
;	COMDAT ??_C@_07BHIPFKL@NavMesh@
CONST	SEGMENT
??_C@_07BHIPFKL@NavMesh@ DB 'NavMesh', 00H		; `string'
CONST	ENDS
;	COMDAT ??_C@_0BF@PMELGHKF@StartPos?5to?5selected@
CONST	SEGMENT
??_C@_0BF@PMELGHKF@StartPos?5to?5selected@ DB 'StartPos to selected', 00H ; `string'
CONST	ENDS
;	COMDAT ??_C@_0N@DNFKIBNP@SkyAntiZonau@
CONST	SEGMENT
??_C@_0N@DNFKIBNP@SkyAntiZonau@ DB 'SkyAntiZonau', 00H	; `string'
CONST	ENDS
;	COMDAT ??_C@_06EPLDPNDB@Render@
CONST	SEGMENT
??_C@_06EPLDPNDB@Render@ DB 'Render', 00H		; `string'
CONST	ENDS
;	COMDAT ??_C@_0P@KHDBJKCM@Visible?5actors@
CONST	SEGMENT
??_C@_0P@KHDBJKCM@Visible?5actors@ DB 'Visible actors', 00H ; `string'
CONST	ENDS
;	COMDAT ??_C@_0CF@HIHBIGIN@Could?5not?5find?5base?5actor?5with?5@
CONST	SEGMENT
??_C@_0CF@HIHBIGIN@Could?5not?5find?5base?5actor?5with?5@ DB 'Could not f'
	DB	'ind base actor with hash ', 00H		; `string'
CONST	ENDS
;	COMDAT ??_C@_0N@BOJIGJLG@ActorStacker@
CONST	SEGMENT
??_C@_0N@BOJIGJLG@ActorStacker@ DB 'ActorStacker', 00H	; `string'
?Open@UITools@@3_NA DB 01H				; UITools::Open
PUBLIC	??$_Copy_n_unchecked4@PEAUNode@RailData@PhiveData@Actor@@_KPEAU1234@@std@@YAPEAUNode@RailData@PhiveData@Actor@@PEAU1234@_K0@Z ; std::_Copy_n_unchecked4<Actor::PhiveData::RailData::Node *,unsigned __int64,Actor::PhiveData::RailData::Node *>
PUBLIC	??$_Uninitialized_copy_n@PEAUNode@RailData@PhiveData@Actor@@V?$allocator@UNode@RailData@PhiveData@Actor@@@std@@@std@@YAPEAUNode@RailData@PhiveData@Actor@@PEAU1234@_K0AEAV?$allocator@UNode@RailData@PhiveData@Actor@@@0@@Z ; std::_Uninitialized_copy_n<Actor::PhiveData::RailData::Node *,std::allocator<Actor::PhiveData::RailData::Node> >
PUBLIC	??$_Get_unwrapped@PEAUNode@RailData@PhiveData@Actor@@@std@@YA?A_T$$QEAPEAUNode@RailData@PhiveData@Actor@@@Z ; std::_Get_unwrapped<Actor::PhiveData::RailData::Node *>
PUBLIC	?_Clear_and_reserve_geometric@?$vector@UNode@RailData@PhiveData@Actor@@V?$allocator@UNode@RailData@PhiveData@Actor@@@std@@@std@@AEAAX_K@Z ; std::vector<Actor::PhiveData::RailData::Node,std::allocator<Actor::PhiveData::RailData::Node> >::_Clear_and_reserve_geometric
PUBLIC	??4Node@RailData@PhiveData@Actor@@QEAAAEAU0123@AEBU0123@@Z ; Actor::PhiveData::RailData::Node::operator=
PUBLIC	??$_Pocca@V?$allocator@U?$_Tree_node@U?$pair@$$CBV?$basic_string@DU?$char_traits@D@std@@V?$allocator@D@2@@std@@V?$variant@IH_K_JM_NNV?$basic_string@DU?$char_traits@D@std@@V?$allocator@D@2@@std@@VNode@BymlFile@@@2@@std@@PEAX@std@@@std@@@std@@YAXAEAV?$allocator@U?$_Tree_node@U?$pair@$$CBV?$basic_string@DU?$char_traits@D@std@@V?$allocator@D@2@@std@@V?$variant@IH_K_JM_NNV?$basic_string@DU?$char_traits@D@std@@V?$allocator@D@2@@std@@VNode@BymlFile@@@2@@std@@PEAX@std@@@0@AEBV10@@Z ; std::_Pocca<std::allocator<std::_Tree_node<std::pair<std::basic_string<char,std::char_traits<char>,std::allocator<char> > const ,std::variant<unsigned int,int,unsigned __int64,__int64,float,bool,double,std::basic_string<char,std::char_traits<char>,std::allocator<char> >,BymlFile::Node> >,void *> > >
PUBLIC	??$addressof@$$CBV?$_Tree@V?$_Tmap_traits@V?$basic_string@DU?$char_traits@D@std@@V?$allocator@D@2@@std@@V?$variant@IH_K_JM_NNV?$basic_string@DU?$char_traits@D@std@@V?$allocator@D@2@@std@@VNode@BymlFile@@@2@U?$less@V?$basic_string@DU?$char_traits@D@std@@V?$allocator@D@2@@std@@@2@V?$allocator@U?$pair@$$CBV?$basic_string@DU?$char_traits@D@std@@V?$allocator@D@2@@std@@V?$variant@IH_K_JM_NNV?$basic_string@DU?$char_traits@D@std@@V?$allocator@D@2@@std@@VNode@BymlFile@@@2@@std@@@2@$0A@@std@@@std@@@std@@YAPEBV?$_Tree@V?$_Tmap_traits@V?$basic_string@DU?$char_traits@D@std@@V?$allocator@D@2@@std@@V?$variant@IH_K_JM_NNV?$basic_string@DU?$char_traits@D@std@@V?$allocator@D@2@@std@@VNode@BymlFile@@@2@U?$less@V?$basic_string@DU?$char_traits@D@std@@V?$allocator@D@2@@std@@@2@V?$allocator@U?$pair@$$CBV?$basic_string@DU?$char_traits@D@std@@V?$allocator@D@2@@std@@V?$variant@IH_K_JM_NNV?$basic_string@DU?$char_traits@D@std@@V?$allocator@D@2@@std@@VNode@BymlFile@@@2@@std@@@2@$0A@@std@@@0@AEBV10@@Z ; std::addressof<std::_Tree<std::_Tmap_traits<std::basic_string<char,std::char_traits<char>,std::allocator<char> >,std::variant<unsigned int,int,unsigned __int64,__int64,float,bool,double,std::basic_string<char,std::char_traits<char>,std::allocator<char> >,BymlFile::Node>,std::less<std::basic_string<char,std::char_traits<char>,std::allocator<char> > >,std::allocator<std::pair<std::basic_string<char,std::char_traits<char>,std::allocator<char> > const ,std::variant<unsigned int,int,unsigned __int64,__int64,float,bool,double,std::basic_string<char,std::char_traits<char>,std::allocator<char> >,BymlFile::Node> > >,0> > const >
PUBLIC	??$_Assign_counted_range@PEAUNode@RailData@PhiveData@Actor@@@?$vector@UNode@RailData@PhiveData@Actor@@V?$allocator@UNode@RailData@PhiveData@Actor@@@std@@@std@@AEAAXPEAUNode@RailData@PhiveData@Actor@@_K@Z ; std::vector<Actor::PhiveData::RailData::Node,std::allocator<Actor::PhiveData::RailData::Node> >::_Assign_counted_range<Actor::PhiveData::RailData::Node *>
PUBLIC	??$_Pocca@V?$allocator@UNode@RailData@PhiveData@Actor@@@std@@@std@@YAXAEAV?$allocator@UNode@RailData@PhiveData@Actor@@@0@AEBV10@@Z ; std::_Pocca<std::allocator<Actor::PhiveData::RailData::Node> >
PUBLIC	??$addressof@$$CBV?$vector@UNode@RailData@PhiveData@Actor@@V?$allocator@UNode@RailData@PhiveData@Actor@@@std@@@std@@@std@@YAPEBV?$vector@UNode@RailData@PhiveData@Actor@@V?$allocator@UNode@RailData@PhiveData@Actor@@@std@@@0@AEBV10@@Z ; std::addressof<std::vector<Actor::PhiveData::RailData::Node,std::allocator<Actor::PhiveData::RailData::Node> > const >
PUBLIC	??$_Copy_n_unchecked4@PEAUOwnerData@ConstraintLinkData@PhiveData@Actor@@_KPEAU1234@@std@@YAPEAUOwnerData@ConstraintLinkData@PhiveData@Actor@@PEAU1234@_K0@Z ; std::_Copy_n_unchecked4<Actor::PhiveData::ConstraintLinkData::OwnerData *,unsigned __int64,Actor::PhiveData::ConstraintLinkData::OwnerData *>
PUBLIC	??$_Uninitialized_copy_n@PEAUOwnerData@ConstraintLinkData@PhiveData@Actor@@V?$allocator@UOwnerData@ConstraintLinkData@PhiveData@Actor@@@std@@@std@@YAPEAUOwnerData@ConstraintLinkData@PhiveData@Actor@@PEAU1234@_K0AEAV?$allocator@UOwnerData@ConstraintLinkData@PhiveData@Actor@@@0@@Z ; std::_Uninitialized_copy_n<Actor::PhiveData::ConstraintLinkData::OwnerData *,std::allocator<Actor::PhiveData::ConstraintLinkData::OwnerData> >
PUBLIC	??$_Get_unwrapped@PEAUOwnerData@ConstraintLinkData@PhiveData@Actor@@@std@@YA?A_T$$QEAPEAUOwnerData@ConstraintLinkData@PhiveData@Actor@@@Z ; std::_Get_unwrapped<Actor::PhiveData::ConstraintLinkData::OwnerData *>
PUBLIC	??$_Copy_n_unchecked4@PEAUReferData@ConstraintLinkData@PhiveData@Actor@@_KPEAU1234@@std@@YAPEAUReferData@ConstraintLinkData@PhiveData@Actor@@PEAU1234@_K0@Z ; std::_Copy_n_unchecked4<Actor::PhiveData::ConstraintLinkData::ReferData *,unsigned __int64,Actor::PhiveData::ConstraintLinkData::ReferData *>
PUBLIC	??$_Uninitialized_copy_n@PEAUReferData@ConstraintLinkData@PhiveData@Actor@@V?$allocator@UReferData@ConstraintLinkData@PhiveData@Actor@@@std@@@std@@YAPEAUReferData@ConstraintLinkData@PhiveData@Actor@@PEAU1234@_K0AEAV?$allocator@UReferData@ConstraintLinkData@PhiveData@Actor@@@0@@Z ; std::_Uninitialized_copy_n<Actor::PhiveData::ConstraintLinkData::ReferData *,std::allocator<Actor::PhiveData::ConstraintLinkData::ReferData> >
PUBLIC	??$_Get_unwrapped@PEAUReferData@ConstraintLinkData@PhiveData@Actor@@@std@@YA?A_T$$QEAPEAUReferData@ConstraintLinkData@PhiveData@Actor@@@Z ; std::_Get_unwrapped<Actor::PhiveData::ConstraintLinkData::ReferData *>
PUBLIC	??$_Copy_n_unchecked4@PEA_K_KPEA_K@std@@YAPEA_KPEA_K_K0@Z ; std::_Copy_n_unchecked4<unsigned __int64 *,unsigned __int64,unsigned __int64 *>
PUBLIC	??$_Copy_memmove_n@PEA_KPEA_K@std@@YAPEA_KPEA_K_K0@Z ; std::_Copy_memmove_n<unsigned __int64 *,unsigned __int64 *>
PUBLIC	??$_Uninitialized_copy_n@PEA_KV?$allocator@_K@std@@@std@@YAPEA_KPEA_K_K0AEAV?$allocator@_K@0@@Z ; std::_Uninitialized_copy_n<unsigned __int64 *,std::allocator<unsigned __int64> >
PUBLIC	??$_Get_unwrapped@PEA_K@std@@YA?A_T$$QEAPEA_K@Z	; std::_Get_unwrapped<unsigned __int64 *>
PUBLIC	??$_Copy_n_unchecked4@PEAURailData@PhiveData@Actor@@_KPEAU123@@std@@YAPEAURailData@PhiveData@Actor@@PEAU123@_K0@Z ; std::_Copy_n_unchecked4<Actor::PhiveData::RailData *,unsigned __int64,Actor::PhiveData::RailData *>
PUBLIC	??$_Uninitialized_copy_n@PEAURailData@PhiveData@Actor@@V?$allocator@URailData@PhiveData@Actor@@@std@@@std@@YAPEAURailData@PhiveData@Actor@@PEAU123@_K0AEAV?$allocator@URailData@PhiveData@Actor@@@0@@Z ; std::_Uninitialized_copy_n<Actor::PhiveData::RailData *,std::allocator<Actor::PhiveData::RailData> >
PUBLIC	??$_Get_unwrapped@PEAURailData@PhiveData@Actor@@@std@@YA?A_T$$QEAPEAURailData@PhiveData@Actor@@@Z ; std::_Get_unwrapped<Actor::PhiveData::RailData *>
PUBLIC	??$_Copy_n_unchecked4@PEAULink@Actor@@_KPEAU12@@std@@YAPEAULink@Actor@@PEAU12@_K0@Z ; std::_Copy_n_unchecked4<Actor::Link *,unsigned __int64,Actor::Link *>
PUBLIC	??$_Uninitialized_copy_n@PEAULink@Actor@@V?$allocator@ULink@Actor@@@std@@@std@@YAPEAULink@Actor@@PEAU12@_K0AEAV?$allocator@ULink@Actor@@@0@@Z ; std::_Uninitialized_copy_n<Actor::Link *,std::allocator<Actor::Link> >
PUBLIC	??$_Get_unwrapped@PEAULink@Actor@@@std@@YA?A_T$$QEAPEAULink@Actor@@@Z ; std::_Get_unwrapped<Actor::Link *>
PUBLIC	??$_Copy_n_unchecked4@PEAURail@Actor@@_KPEAU12@@std@@YAPEAURail@Actor@@PEAU12@_K0@Z ; std::_Copy_n_unchecked4<Actor::Rail *,unsigned __int64,Actor::Rail *>
PUBLIC	??$_Uninitialized_copy_n@PEAURail@Actor@@V?$allocator@URail@Actor@@@std@@@std@@YAPEAURail@Actor@@PEAU12@_K0AEAV?$allocator@URail@Actor@@@0@@Z ; std::_Uninitialized_copy_n<Actor::Rail *,std::allocator<Actor::Rail> >
PUBLIC	??$_Get_unwrapped@PEAURail@Actor@@@std@@YA?A_T$$QEAPEAURail@Actor@@@Z ; std::_Get_unwrapped<Actor::Rail *>
PUBLIC	??$_Copy_n_unchecked4@PEAUActor@@_KPEAU1@@std@@YAPEAUActor@@PEAU1@_K0@Z ; std::_Copy_n_unchecked4<Actor *,unsigned __int64,Actor *>
PUBLIC	??$_Uninitialized_copy_n@PEAUActor@@V?$allocator@UActor@@@std@@@std@@YAPEAUActor@@PEAU1@_K0AEAV?$allocator@UActor@@@0@@Z ; std::_Uninitialized_copy_n<Actor *,std::allocator<Actor> >
PUBLIC	??$_Get_unwrapped@PEAUActor@@@std@@YA?A_T$$QEAPEAUActor@@@Z ; std::_Get_unwrapped<Actor *>
PUBLIC	?_Get_first@?$_Compressed_pair@U?$less@V?$basic_string@DU?$char_traits@D@std@@V?$allocator@D@2@@std@@@std@@V?$_Compressed_pair@V?$allocator@U?$_Tree_node@U?$pair@$$CBV?$basic_string@DU?$char_traits@D@std@@V?$allocator@D@2@@std@@V?$variant@IH_K_JM_NNV?$basic_string@DU?$char_traits@D@std@@V?$allocator@D@2@@std@@VNode@BymlFile@@@2@@std@@PEAX@std@@@std@@V?$_Tree_val@U?$_Tree_simple_types@U?$pair@$$CBV?$basic_string@DU?$char_traits@D@std@@V?$allocator@D@2@@std@@V?$variant@IH_K_JM_NNV?$basic_string@DU?$char_traits@D@std@@V?$allocator@D@2@@std@@VNode@BymlFile@@@2@@std@@@std@@@2@$00@2@$00@std@@QEAAAEAU?$less@V?$basic_string@DU?$char_traits@D@std@@V?$allocator@D@2@@std@@@2@XZ ; std::_Compressed_pair<std::less<std::basic_string<char,std::char_traits<char>,std::allocator<char> > >,std::_Compressed_pair<std::allocator<std::_Tree_node<std::pair<std::basic_string<char,std::char_traits<char>,std::allocator<char> > const ,std::variant<unsigned int,int,unsigned __int64,__int64,float,bool,double,std::basic_string<char,std::char_traits<char>,std::allocator<char> >,BymlFile::Node> >,void *> >,std::_Tree_val<std::_Tree_simple_types<std::pair<std::basic_string<char,std::char_traits<char>,std::allocator<char> > const ,std::variant<unsigned int,int,unsigned __int64,__int64,float,bool,double,std::basic_string<char,std::char_traits<char>,std::allocator<char> >,BymlFile::Node> > > >,1>,1>::_Get_first
PUBLIC	?clear@?$_Tree@V?$_Tmap_traits@V?$basic_string@DU?$char_traits@D@std@@V?$allocator@D@2@@std@@V?$variant@IH_K_JM_NNV?$basic_string@DU?$char_traits@D@std@@V?$allocator@D@2@@std@@VNode@BymlFile@@@2@U?$less@V?$basic_string@DU?$char_traits@D@std@@V?$allocator@D@2@@std@@@2@V?$allocator@U?$pair@$$CBV?$basic_string@DU?$char_traits@D@std@@V?$allocator@D@2@@std@@V?$variant@IH_K_JM_NNV?$basic_string@DU?$char_traits@D@std@@V?$allocator@D@2@@std@@VNode@BymlFile@@@2@@std@@@2@$0A@@std@@@std@@QEAAXXZ ; std::_Tree<std::_Tmap_traits<std::basic_string<char,std::char_traits<char>,std::allocator<char> >,std::variant<unsigned int,int,unsigned __int64,__int64,float,bool,double,std::basic_string<char,std::char_traits<char>,std::allocator<char> >,BymlFile::Node>,std::less<std::basic_string<char,std::char_traits<char>,std::allocator<char> > >,std::allocator<std::pair<std::basic_string<char,std::char_traits<char>,std::allocator<char> > const ,std::variant<unsigned int,int,unsigned __int64,__int64,float,bool,double,std::basic_string<char,std::char_traits<char>,std::allocator<char> >,BymlFile::Node> > >,0> >::clear
PUBLIC	?_Getcomp@?$_Tree@V?$_Tmap_traits@V?$basic_string@DU?$char_traits@D@std@@V?$allocator@D@2@@std@@V?$variant@IH_K_JM_NNV?$basic_string@DU?$char_traits@D@std@@V?$allocator@D@2@@std@@VNode@BymlFile@@@2@U?$less@V?$basic_string@DU?$char_traits@D@std@@V?$allocator@D@2@@std@@@2@V?$allocator@U?$pair@$$CBV?$basic_string@DU?$char_traits@D@std@@V?$allocator@D@2@@std@@V?$variant@IH_K_JM_NNV?$basic_string@DU?$char_traits@D@std@@V?$allocator@D@2@@std@@VNode@BymlFile@@@2@@std@@@2@$0A@@std@@@std@@IEAAAEAU?$less@V?$basic_string@DU?$char_traits@D@std@@V?$allocator@D@2@@std@@@2@XZ ; std::_Tree<std::_Tmap_traits<std::basic_string<char,std::char_traits<char>,std::allocator<char> >,std::variant<unsigned int,int,unsigned __int64,__int64,float,bool,double,std::basic_string<char,std::char_traits<char>,std::allocator<char> >,BymlFile::Node>,std::less<std::basic_string<char,std::char_traits<char>,std::allocator<char> > >,std::allocator<std::pair<std::basic_string<char,std::char_traits<char>,std::allocator<char> > const ,std::variant<unsigned int,int,unsigned __int64,__int64,float,bool,double,std::basic_string<char,std::char_traits<char>,std::allocator<char> >,BymlFile::Node> > >,0> >::_Getcomp
PUBLIC	??4?$_Tree@V?$_Tmap_traits@V?$basic_string@DU?$char_traits@D@std@@V?$allocator@D@2@@std@@V?$variant@IH_K_JM_NNV?$basic_string@DU?$char_traits@D@std@@V?$allocator@D@2@@std@@VNode@BymlFile@@@2@U?$less@V?$basic_string@DU?$char_traits@D@std@@V?$allocator@D@2@@std@@@2@V?$allocator@U?$pair@$$CBV?$basic_string@DU?$char_traits@D@std@@V?$allocator@D@2@@std@@V?$variant@IH_K_JM_NNV?$basic_string@DU?$char_traits@D@std@@V?$allocator@D@2@@std@@VNode@BymlFile@@@2@@std@@@2@$0A@@std@@@std@@QEAAAEAV01@AEBV01@@Z ; std::_Tree<std::_Tmap_traits<std::basic_string<char,std::char_traits<char>,std::allocator<char> >,std::variant<unsigned int,int,unsigned __int64,__int64,float,bool,double,std::basic_string<char,std::char_traits<char>,std::allocator<char> >,BymlFile::Node>,std::less<std::basic_string<char,std::char_traits<char>,std::allocator<char> > >,std::allocator<std::pair<std::basic_string<char,std::char_traits<char>,std::allocator<char> > const ,std::variant<unsigned int,int,unsigned __int64,__int64,float,bool,double,std::basic_string<char,std::char_traits<char>,std::allocator<char> >,BymlFile::Node> > >,0> >::operator=
PUBLIC	??4?$map@V?$basic_string@DU?$char_traits@D@std@@V?$allocator@D@2@@std@@V?$variant@IH_K_JM_NNV?$basic_string@DU?$char_traits@D@std@@V?$allocator@D@2@@std@@VNode@BymlFile@@@2@U?$less@V?$basic_string@DU?$char_traits@D@std@@V?$allocator@D@2@@std@@@2@V?$allocator@U?$pair@$$CBV?$basic_string@DU?$char_traits@D@std@@V?$allocator@D@2@@std@@V?$variant@IH_K_JM_NNV?$basic_string@DU?$char_traits@D@std@@V?$allocator@D@2@@std@@VNode@BymlFile@@@2@@std@@@2@@std@@QEAAAEAV01@AEBV01@@Z ; std::map<std::basic_string<char,std::char_traits<char>,std::allocator<char> >,std::variant<unsigned int,int,unsigned __int64,__int64,float,bool,double,std::basic_string<char,std::char_traits<char>,std::allocator<char> >,BymlFile::Node>,std::less<std::basic_string<char,std::char_traits<char>,std::allocator<char> > >,std::allocator<std::pair<std::basic_string<char,std::char_traits<char>,std::allocator<char> > const ,std::variant<unsigned int,int,unsigned __int64,__int64,float,bool,double,std::basic_string<char,std::char_traits<char>,std::allocator<char> >,BymlFile::Node> > > >::operator=
PUBLIC	?_Clear_and_reserve_geometric@?$vector@UOwnerData@ConstraintLinkData@PhiveData@Actor@@V?$allocator@UOwnerData@ConstraintLinkData@PhiveData@Actor@@@std@@@std@@AEAAX_K@Z ; std::vector<Actor::PhiveData::ConstraintLinkData::OwnerData,std::allocator<Actor::PhiveData::ConstraintLinkData::OwnerData> >::_Clear_and_reserve_geometric
PUBLIC	?_Clear_and_reserve_geometric@?$vector@UReferData@ConstraintLinkData@PhiveData@Actor@@V?$allocator@UReferData@ConstraintLinkData@PhiveData@Actor@@@std@@@std@@AEAAX_K@Z ; std::vector<Actor::PhiveData::ConstraintLinkData::ReferData,std::allocator<Actor::PhiveData::ConstraintLinkData::ReferData> >::_Clear_and_reserve_geometric
PUBLIC	?_Clear_and_reserve_geometric@?$vector@_KV?$allocator@_K@std@@@std@@AEAAX_K@Z ; std::vector<unsigned __int64,std::allocator<unsigned __int64> >::_Clear_and_reserve_geometric
PUBLIC	??4?$vector@UNode@RailData@PhiveData@Actor@@V?$allocator@UNode@RailData@PhiveData@Actor@@@std@@@std@@QEAAAEAV01@AEBV01@@Z ; std::vector<Actor::PhiveData::RailData::Node,std::allocator<Actor::PhiveData::RailData::Node> >::operator=
PUBLIC	?_Clear_and_reserve_geometric@?$vector@URailData@PhiveData@Actor@@V?$allocator@URailData@PhiveData@Actor@@@std@@@std@@AEAAX_K@Z ; std::vector<Actor::PhiveData::RailData,std::allocator<Actor::PhiveData::RailData> >::_Clear_and_reserve_geometric
PUBLIC	?_Clear_and_reserve_geometric@?$vector@ULink@Actor@@V?$allocator@ULink@Actor@@@std@@@std@@AEAAX_K@Z ; std::vector<Actor::Link,std::allocator<Actor::Link> >::_Clear_and_reserve_geometric
PUBLIC	?_Clear_and_reserve_geometric@?$vector@URail@Actor@@V?$allocator@URail@Actor@@@std@@@std@@AEAAX_K@Z ; std::vector<Actor::Rail,std::allocator<Actor::Rail> >::_Clear_and_reserve_geometric
PUBLIC	?_Clear_and_reserve_geometric@?$vector@UActor@@V?$allocator@UActor@@@std@@@std@@AEAAX_K@Z ; std::vector<Actor,std::allocator<Actor> >::_Clear_and_reserve_geometric
PUBLIC	??4OwnerData@ConstraintLinkData@PhiveData@Actor@@QEAAAEAU0123@AEBU0123@@Z ; Actor::PhiveData::ConstraintLinkData::OwnerData::operator=
PUBLIC	??4ReferData@ConstraintLinkData@PhiveData@Actor@@QEAAAEAU0123@AEBU0123@@Z ; Actor::PhiveData::ConstraintLinkData::ReferData::operator=
PUBLIC	??4RailData@PhiveData@Actor@@QEAAAEAU012@AEBU012@@Z ; Actor::PhiveData::RailData::operator=
PUBLIC	??4Link@Actor@@QEAAAEAU01@AEBU01@@Z		; Actor::Link::operator=
PUBLIC	??4Rail@Actor@@QEAAAEAU01@AEBU01@@Z		; Actor::Rail::operator=
PUBLIC	??$_Pocca@V?$allocator@U?$_Tree_node@U?$pair@$$CBV?$basic_string@DU?$char_traits@D@std@@V?$allocator@D@2@@std@@V12@@std@@PEAX@std@@@std@@@std@@YAXAEAV?$allocator@U?$_Tree_node@U?$pair@$$CBV?$basic_string@DU?$char_traits@D@std@@V?$allocator@D@2@@std@@V12@@std@@PEAX@std@@@0@AEBV10@@Z ; std::_Pocca<std::allocator<std::_Tree_node<std::pair<std::basic_string<char,std::char_traits<char>,std::allocator<char> > const ,std::basic_string<char,std::char_traits<char>,std::allocator<char> > >,void *> > >
PUBLIC	??$addressof@$$CBV?$_Tree@V?$_Tmap_traits@V?$basic_string@DU?$char_traits@D@std@@V?$allocator@D@2@@std@@V12@U?$less@V?$basic_string@DU?$char_traits@D@std@@V?$allocator@D@2@@std@@@2@V?$allocator@U?$pair@$$CBV?$basic_string@DU?$char_traits@D@std@@V?$allocator@D@2@@std@@V12@@std@@@2@$0A@@std@@@std@@@std@@YAPEBV?$_Tree@V?$_Tmap_traits@V?$basic_string@DU?$char_traits@D@std@@V?$allocator@D@2@@std@@V12@U?$less@V?$basic_string@DU?$char_traits@D@std@@V?$allocator@D@2@@std@@@2@V?$allocator@U?$pair@$$CBV?$basic_string@DU?$char_traits@D@std@@V?$allocator@D@2@@std@@V12@@std@@@2@$0A@@std@@@0@AEBV10@@Z ; std::addressof<std::_Tree<std::_Tmap_traits<std::basic_string<char,std::char_traits<char>,std::allocator<char> >,std::basic_string<char,std::char_traits<char>,std::allocator<char> >,std::less<std::basic_string<char,std::char_traits<char>,std::allocator<char> > >,std::allocator<std::pair<std::basic_string<char,std::char_traits<char>,std::allocator<char> > const ,std::basic_string<char,std::char_traits<char>,std::allocator<char> > > >,0> > const >
PUBLIC	??$_Pocca@V?$allocator@U?$_Tree_node@U?$pair@$$CBV?$basic_string@DU?$char_traits@D@std@@V?$allocator@D@2@@std@@UDynamicData@Actor@@@std@@PEAX@std@@@std@@@std@@YAXAEAV?$allocator@U?$_Tree_node@U?$pair@$$CBV?$basic_string@DU?$char_traits@D@std@@V?$allocator@D@2@@std@@UDynamicData@Actor@@@std@@PEAX@std@@@0@AEBV10@@Z ; std::_Pocca<std::allocator<std::_Tree_node<std::pair<std::basic_string<char,std::char_traits<char>,std::allocator<char> > const ,Actor::DynamicData>,void *> > >
PUBLIC	??$addressof@$$CBV?$_Tree@V?$_Tmap_traits@V?$basic_string@DU?$char_traits@D@std@@V?$allocator@D@2@@std@@UDynamicData@Actor@@U?$less@V?$basic_string@DU?$char_traits@D@std@@V?$allocator@D@2@@std@@@2@V?$allocator@U?$pair@$$CBV?$basic_string@DU?$char_traits@D@std@@V?$allocator@D@2@@std@@UDynamicData@Actor@@@std@@@2@$0A@@std@@@std@@@std@@YAPEBV?$_Tree@V?$_Tmap_traits@V?$basic_string@DU?$char_traits@D@std@@V?$allocator@D@2@@std@@UDynamicData@Actor@@U?$less@V?$basic_string@DU?$char_traits@D@std@@V?$allocator@D@2@@std@@@2@V?$allocator@U?$pair@$$CBV?$basic_string@DU?$char_traits@D@std@@V?$allocator@D@2@@std@@UDynamicData@Actor@@@std@@@2@$0A@@std@@@0@AEBV10@@Z ; std::addressof<std::_Tree<std::_Tmap_traits<std::basic_string<char,std::char_traits<char>,std::allocator<char> >,Actor::DynamicData,std::less<std::basic_string<char,std::char_traits<char>,std::allocator<char> > >,std::allocator<std::pair<std::basic_string<char,std::char_traits<char>,std::allocator<char> > const ,Actor::DynamicData> >,0> > const >
PUBLIC	??$_Assign_counted_range@PEAUOwnerData@ConstraintLinkData@PhiveData@Actor@@@?$vector@UOwnerData@ConstraintLinkData@PhiveData@Actor@@V?$allocator@UOwnerData@ConstraintLinkData@PhiveData@Actor@@@std@@@std@@AEAAXPEAUOwnerData@ConstraintLinkData@PhiveData@Actor@@_K@Z ; std::vector<Actor::PhiveData::ConstraintLinkData::OwnerData,std::allocator<Actor::PhiveData::ConstraintLinkData::OwnerData> >::_Assign_counted_range<Actor::PhiveData::ConstraintLinkData::OwnerData *>
PUBLIC	??$_Pocca@V?$allocator@UOwnerData@ConstraintLinkData@PhiveData@Actor@@@std@@@std@@YAXAEAV?$allocator@UOwnerData@ConstraintLinkData@PhiveData@Actor@@@0@AEBV10@@Z ; std::_Pocca<std::allocator<Actor::PhiveData::ConstraintLinkData::OwnerData> >
PUBLIC	??$addressof@$$CBV?$vector@UOwnerData@ConstraintLinkData@PhiveData@Actor@@V?$allocator@UOwnerData@ConstraintLinkData@PhiveData@Actor@@@std@@@std@@@std@@YAPEBV?$vector@UOwnerData@ConstraintLinkData@PhiveData@Actor@@V?$allocator@UOwnerData@ConstraintLinkData@PhiveData@Actor@@@std@@@0@AEBV10@@Z ; std::addressof<std::vector<Actor::PhiveData::ConstraintLinkData::OwnerData,std::allocator<Actor::PhiveData::ConstraintLinkData::OwnerData> > const >
PUBLIC	??$_Assign_counted_range@PEAUReferData@ConstraintLinkData@PhiveData@Actor@@@?$vector@UReferData@ConstraintLinkData@PhiveData@Actor@@V?$allocator@UReferData@ConstraintLinkData@PhiveData@Actor@@@std@@@std@@AEAAXPEAUReferData@ConstraintLinkData@PhiveData@Actor@@_K@Z ; std::vector<Actor::PhiveData::ConstraintLinkData::ReferData,std::allocator<Actor::PhiveData::ConstraintLinkData::ReferData> >::_Assign_counted_range<Actor::PhiveData::ConstraintLinkData::ReferData *>
PUBLIC	??$_Pocca@V?$allocator@UReferData@ConstraintLinkData@PhiveData@Actor@@@std@@@std@@YAXAEAV?$allocator@UReferData@ConstraintLinkData@PhiveData@Actor@@@0@AEBV10@@Z ; std::_Pocca<std::allocator<Actor::PhiveData::ConstraintLinkData::ReferData> >
PUBLIC	??$addressof@$$CBV?$vector@UReferData@ConstraintLinkData@PhiveData@Actor@@V?$allocator@UReferData@ConstraintLinkData@PhiveData@Actor@@@std@@@std@@@std@@YAPEBV?$vector@UReferData@ConstraintLinkData@PhiveData@Actor@@V?$allocator@UReferData@ConstraintLinkData@PhiveData@Actor@@@std@@@0@AEBV10@@Z ; std::addressof<std::vector<Actor::PhiveData::ConstraintLinkData::ReferData,std::allocator<Actor::PhiveData::ConstraintLinkData::ReferData> > const >
PUBLIC	??$_Assign_counted_range@PEA_K@?$vector@_KV?$allocator@_K@std@@@std@@AEAAXPEA_K_K@Z ; std::vector<unsigned __int64,std::allocator<unsigned __int64> >::_Assign_counted_range<unsigned __int64 *>
PUBLIC	??$_Pocca@V?$allocator@_K@std@@@std@@YAXAEAV?$allocator@_K@0@AEBV10@@Z ; std::_Pocca<std::allocator<unsigned __int64> >
PUBLIC	??$addressof@$$CBV?$vector@_KV?$allocator@_K@std@@@std@@@std@@YAPEBV?$vector@_KV?$allocator@_K@std@@@0@AEBV10@@Z ; std::addressof<std::vector<unsigned __int64,std::allocator<unsigned __int64> > const >
PUBLIC	??$_Assign_counted_range@PEAURailData@PhiveData@Actor@@@?$vector@URailData@PhiveData@Actor@@V?$allocator@URailData@PhiveData@Actor@@@std@@@std@@AEAAXPEAURailData@PhiveData@Actor@@_K@Z ; std::vector<Actor::PhiveData::RailData,std::allocator<Actor::PhiveData::RailData> >::_Assign_counted_range<Actor::PhiveData::RailData *>
PUBLIC	??$_Pocca@V?$allocator@URailData@PhiveData@Actor@@@std@@@std@@YAXAEAV?$allocator@URailData@PhiveData@Actor@@@0@AEBV10@@Z ; std::_Pocca<std::allocator<Actor::PhiveData::RailData> >
PUBLIC	??$addressof@$$CBV?$vector@URailData@PhiveData@Actor@@V?$allocator@URailData@PhiveData@Actor@@@std@@@std@@@std@@YAPEBV?$vector@URailData@PhiveData@Actor@@V?$allocator@URailData@PhiveData@Actor@@@std@@@0@AEBV10@@Z ; std::addressof<std::vector<Actor::PhiveData::RailData,std::allocator<Actor::PhiveData::RailData> > const >
PUBLIC	??$_Assign_counted_range@PEAULink@Actor@@@?$vector@ULink@Actor@@V?$allocator@ULink@Actor@@@std@@@std@@AEAAXPEAULink@Actor@@_K@Z ; std::vector<Actor::Link,std::allocator<Actor::Link> >::_Assign_counted_range<Actor::Link *>
PUBLIC	??$_Pocca@V?$allocator@ULink@Actor@@@std@@@std@@YAXAEAV?$allocator@ULink@Actor@@@0@AEBV10@@Z ; std::_Pocca<std::allocator<Actor::Link> >
PUBLIC	??$addressof@$$CBV?$vector@ULink@Actor@@V?$allocator@ULink@Actor@@@std@@@std@@@std@@YAPEBV?$vector@ULink@Actor@@V?$allocator@ULink@Actor@@@std@@@0@AEBV10@@Z ; std::addressof<std::vector<Actor::Link,std::allocator<Actor::Link> > const >
PUBLIC	??$_Assign_counted_range@PEAURail@Actor@@@?$vector@URail@Actor@@V?$allocator@URail@Actor@@@std@@@std@@AEAAXPEAURail@Actor@@_K@Z ; std::vector<Actor::Rail,std::allocator<Actor::Rail> >::_Assign_counted_range<Actor::Rail *>
PUBLIC	??$_Pocca@V?$allocator@URail@Actor@@@std@@@std@@YAXAEAV?$allocator@URail@Actor@@@0@AEBV10@@Z ; std::_Pocca<std::allocator<Actor::Rail> >
PUBLIC	??$addressof@$$CBV?$vector@URail@Actor@@V?$allocator@URail@Actor@@@std@@@std@@@std@@YAPEBV?$vector@URail@Actor@@V?$allocator@URail@Actor@@@std@@@0@AEBV10@@Z ; std::addressof<std::vector<Actor::Rail,std::allocator<Actor::Rail> > const >
PUBLIC	??$_Assign_counted_range@PEAUActor@@@?$vector@UActor@@V?$allocator@UActor@@@std@@@std@@AEAAXPEAUActor@@_K@Z ; std::vector<Actor,std::allocator<Actor> >::_Assign_counted_range<Actor *>
PUBLIC	??$_Pocca@V?$allocator@UActor@@@std@@@std@@YAXAEAV?$allocator@UActor@@@0@AEBV10@@Z ; std::_Pocca<std::allocator<Actor> >
PUBLIC	??$addressof@$$CBV?$vector@UActor@@V?$allocator@UActor@@@std@@@std@@@std@@YAPEBV?$vector@UActor@@V?$allocator@UActor@@@std@@@0@AEBV10@@Z ; std::addressof<std::vector<Actor,std::allocator<Actor> > const >
PUBLIC	??4?$_Tree@V?$_Tmap_traits@V?$basic_string@DU?$char_traits@D@std@@V?$allocator@D@2@@std@@V12@U?$less@V?$basic_string@DU?$char_traits@D@std@@V?$allocator@D@2@@std@@@2@V?$allocator@U?$pair@$$CBV?$basic_string@DU?$char_traits@D@std@@V?$allocator@D@2@@std@@V12@@std@@@2@$0A@@std@@@std@@QEAAAEAV01@AEBV01@@Z ; std::_Tree<std::_Tmap_traits<std::basic_string<char,std::char_traits<char>,std::allocator<char> >,std::basic_string<char,std::char_traits<char>,std::allocator<char> >,std::less<std::basic_string<char,std::char_traits<char>,std::allocator<char> > >,std::allocator<std::pair<std::basic_string<char,std::char_traits<char>,std::allocator<char> > const ,std::basic_string<char,std::char_traits<char>,std::allocator<char> > > >,0> >::operator=
PUBLIC	??4?$_Tree@V?$_Tmap_traits@V?$basic_string@DU?$char_traits@D@std@@V?$allocator@D@2@@std@@UDynamicData@Actor@@U?$less@V?$basic_string@DU?$char_traits@D@std@@V?$allocator@D@2@@std@@@2@V?$allocator@U?$pair@$$CBV?$basic_string@DU?$char_traits@D@std@@V?$allocator@D@2@@std@@UDynamicData@Actor@@@std@@@2@$0A@@std@@@std@@QEAAAEAV01@AEBV01@@Z ; std::_Tree<std::_Tmap_traits<std::basic_string<char,std::char_traits<char>,std::allocator<char> >,Actor::DynamicData,std::less<std::basic_string<char,std::char_traits<char>,std::allocator<char> > >,std::allocator<std::pair<std::basic_string<char,std::char_traits<char>,std::allocator<char> > const ,Actor::DynamicData> >,0> >::operator=
PUBLIC	??4?$map@V?$basic_string@DU?$char_traits@D@std@@V?$allocator@D@2@@std@@V12@U?$less@V?$basic_string@DU?$char_traits@D@std@@V?$allocator@D@2@@std@@@2@V?$allocator@U?$pair@$$CBV?$basic_string@DU?$char_traits@D@std@@V?$allocator@D@2@@std@@V12@@std@@@2@@std@@QEAAAEAV01@AEBV01@@Z ; std::map<std::basic_string<char,std::char_traits<char>,std::allocator<char> >,std::basic_string<char,std::char_traits<char>,std::allocator<char> >,std::less<std::basic_string<char,std::char_traits<char>,std::allocator<char> > >,std::allocator<std::pair<std::basic_string<char,std::char_traits<char>,std::allocator<char> > const ,std::basic_string<char,std::char_traits<char>,std::allocator<char> > > > >::operator=
PUBLIC	??4?$vector@UOwnerData@ConstraintLinkData@PhiveData@Actor@@V?$allocator@UOwnerData@ConstraintLinkData@PhiveData@Actor@@@std@@@std@@QEAAAEAV01@AEBV01@@Z ; std::vector<Actor::PhiveData::ConstraintLinkData::OwnerData,std::allocator<Actor::PhiveData::ConstraintLinkData::OwnerData> >::operator=
PUBLIC	??4?$vector@UReferData@ConstraintLinkData@PhiveData@Actor@@V?$allocator@UReferData@ConstraintLinkData@PhiveData@Actor@@@std@@@std@@QEAAAEAV01@AEBV01@@Z ; std::vector<Actor::PhiveData::ConstraintLinkData::ReferData,std::allocator<Actor::PhiveData::ConstraintLinkData::ReferData> >::operator=
PUBLIC	??4?$vector@_KV?$allocator@_K@std@@@std@@QEAAAEAV01@AEBV01@@Z ; std::vector<unsigned __int64,std::allocator<unsigned __int64> >::operator=
PUBLIC	??4?$vector@URailData@PhiveData@Actor@@V?$allocator@URailData@PhiveData@Actor@@@std@@@std@@QEAAAEAV01@AEBV01@@Z ; std::vector<Actor::PhiveData::RailData,std::allocator<Actor::PhiveData::RailData> >::operator=
PUBLIC	??4?$vector@ULink@Actor@@V?$allocator@ULink@Actor@@@std@@@std@@QEAAAEAV01@AEBV01@@Z ; std::vector<Actor::Link,std::allocator<Actor::Link> >::operator=
PUBLIC	??4?$vector@URail@Actor@@V?$allocator@URail@Actor@@@std@@@std@@QEAAAEAV01@AEBV01@@Z ; std::vector<Actor::Rail,std::allocator<Actor::Rail> >::operator=
PUBLIC	??4?$map@V?$basic_string@DU?$char_traits@D@std@@V?$allocator@D@2@@std@@UDynamicData@Actor@@U?$less@V?$basic_string@DU?$char_traits@D@std@@V?$allocator@D@2@@std@@@2@V?$allocator@U?$pair@$$CBV?$basic_string@DU?$char_traits@D@std@@V?$allocator@D@2@@std@@UDynamicData@Actor@@@std@@@2@@std@@QEAAAEAV01@AEBV01@@Z ; std::map<std::basic_string<char,std::char_traits<char>,std::allocator<char> >,Actor::DynamicData,std::less<std::basic_string<char,std::char_traits<char>,std::allocator<char> > >,std::allocator<std::pair<std::basic_string<char,std::char_traits<char>,std::allocator<char> > const ,Actor::DynamicData> > >::operator=
PUBLIC	??4?$vector@UActor@@V?$allocator@UActor@@@std@@@std@@QEAAAEAV01@AEBV01@@Z ; std::vector<Actor,std::allocator<Actor> >::operator=
PUBLIC	??4RopeLinkData@PhiveData@Actor@@QEAAAEAU012@AEBU012@@Z ; Actor::PhiveData::RopeLinkData::operator=
PUBLIC	??4ConstraintLinkData@PhiveData@Actor@@QEAAAEAU012@AEBU012@@Z ; Actor::PhiveData::ConstraintLinkData::operator=
PUBLIC	??4PhiveData@Actor@@QEAAAEAU01@AEBU01@@Z	; Actor::PhiveData::operator=
PUBLIC	??4Actor@@QEAAAEAU0@AEBU0@@Z			; Actor::operator=
PUBLIC	?DrawToolsWindow@UITools@@YAXXZ			; UITools::DrawToolsWindow
;	COMDAT pdata
pdata	SEGMENT
$pdata$??$_Copy_n_unchecked4@PEAUNode@RailData@PhiveData@Actor@@_KPEAU1234@@std@@YAPEAUNode@RailData@PhiveData@Actor@@PEAU1234@_K0@Z DD imagerel $LN28
	DD	imagerel $LN28+111
	DD	imagerel $unwind$??$_Copy_n_unchecked4@PEAUNode@RailData@PhiveData@Actor@@_KPEAU1234@@std@@YAPEAUNode@RailData@PhiveData@Actor@@PEAU1234@_K0@Z
pdata	ENDS
;	COMDAT pdata
pdata	SEGMENT
$pdata$??$_Uninitialized_copy_n@PEAUNode@RailData@PhiveData@Actor@@V?$allocator@UNode@RailData@PhiveData@Actor@@@std@@@std@@YAPEAUNode@RailData@PhiveData@Actor@@PEAU1234@_K0AEAV?$allocator@UNode@RailData@PhiveData@Actor@@@0@@Z DD imagerel $LN53
	DD	imagerel $LN53+145
	DD	imagerel $unwind$??$_Uninitialized_copy_n@PEAUNode@RailData@PhiveData@Actor@@V?$allocator@UNode@RailData@PhiveData@Actor@@@std@@@std@@YAPEAUNode@RailData@PhiveData@Actor@@PEAU1234@_K0AEAV?$allocator@UNode@RailData@PhiveData@Actor@@@0@@Z
pdata	ENDS
;	COMDAT pdata
pdata	SEGMENT
$pdata$?_Clear_and_reserve_geometric@?$vector@UNode@RailData@PhiveData@Actor@@V?$allocator@UNode@RailData@PhiveData@Actor@@@std@@@std@@AEAAX_K@Z DD imagerel $LN67
	DD	imagerel $LN67+30
	DD	imagerel $unwind$?_Clear_and_reserve_geometric@?$vector@UNode@RailData@PhiveData@Actor@@V?$allocator@UNode@RailData@PhiveData@Actor@@@std@@@std@@AEAAX_K@Z
pdata	ENDS
;	COMDAT pdata
pdata	SEGMENT
$pdata$1$?_Clear_and_reserve_geometric@?$vector@UNode@RailData@PhiveData@Actor@@V?$allocator@UNode@RailData@PhiveData@Actor@@@std@@@std@@AEAAX_K@Z DD imagerel $LN67+30
	DD	imagerel $LN67+101
	DD	imagerel $chain$1$?_Clear_and_reserve_geometric@?$vector@UNode@RailData@PhiveData@Actor@@V?$allocator@UNode@RailData@PhiveData@Actor@@@std@@@std@@AEAAX_K@Z
pdata	ENDS
;	COMDAT pdata
pdata	SEGMENT
$pdata$2$?_Clear_and_reserve_geometric@?$vector@UNode@RailData@PhiveData@Actor@@V?$allocator@UNode@RailData@PhiveData@Actor@@@std@@@std@@AEAAX_K@Z DD imagerel $LN67+101
	DD	imagerel $LN67+172
	DD	imagerel $chain$2$?_Clear_and_reserve_geometric@?$vector@UNode@RailData@PhiveData@Actor@@V?$allocator@UNode@RailData@PhiveData@Actor@@@std@@@std@@AEAAX_K@Z
pdata	ENDS
;	COMDAT pdata
pdata	SEGMENT
$pdata$3$?_Clear_and_reserve_geometric@?$vector@UNode@RailData@PhiveData@Actor@@V?$allocator@UNode@RailData@PhiveData@Actor@@@std@@@std@@AEAAX_K@Z DD imagerel $LN67+172
	DD	imagerel $LN67+262
	DD	imagerel $chain$3$?_Clear_and_reserve_geometric@?$vector@UNode@RailData@PhiveData@Actor@@V?$allocator@UNode@RailData@PhiveData@Actor@@@std@@@std@@AEAAX_K@Z
pdata	ENDS
;	COMDAT pdata
pdata	SEGMENT
$pdata$5$?_Clear_and_reserve_geometric@?$vector@UNode@RailData@PhiveData@Actor@@V?$allocator@UNode@RailData@PhiveData@Actor@@@std@@@std@@AEAAX_K@Z DD imagerel $LN67+262
	DD	imagerel $LN67+269
	DD	imagerel $chain$5$?_Clear_and_reserve_geometric@?$vector@UNode@RailData@PhiveData@Actor@@V?$allocator@UNode@RailData@PhiveData@Actor@@@std@@@std@@AEAAX_K@Z
pdata	ENDS
;	COMDAT pdata
pdata	SEGMENT
$pdata$6$?_Clear_and_reserve_geometric@?$vector@UNode@RailData@PhiveData@Actor@@V?$allocator@UNode@RailData@PhiveData@Actor@@@std@@@std@@AEAAX_K@Z DD imagerel $LN67+269
	DD	imagerel $LN67+275
	DD	imagerel $chain$6$?_Clear_and_reserve_geometric@?$vector@UNode@RailData@PhiveData@Actor@@V?$allocator@UNode@RailData@PhiveData@Actor@@@std@@@std@@AEAAX_K@Z
pdata	ENDS
;	COMDAT pdata
pdata	SEGMENT
$pdata$??4Node@RailData@PhiveData@Actor@@QEAAAEAU0123@AEBU0123@@Z DD imagerel $LN15
	DD	imagerel $LN15+70
	DD	imagerel $unwind$??4Node@RailData@PhiveData@Actor@@QEAAAEAU0123@AEBU0123@@Z
pdata	ENDS
;	COMDAT pdata
pdata	SEGMENT
$pdata$??$_Assign_counted_range@PEAUNode@RailData@PhiveData@Actor@@@?$vector@UNode@RailData@PhiveData@Actor@@V?$allocator@UNode@RailData@PhiveData@Actor@@@std@@@std@@AEAAXPEAUNode@RailData@PhiveData@Actor@@_K@Z DD imagerel $LN145
	DD	imagerel $LN145+60
	DD	imagerel $unwind$??$_Assign_counted_range@PEAUNode@RailData@PhiveData@Actor@@@?$vector@UNode@RailData@PhiveData@Actor@@V?$allocator@UNode@RailData@PhiveData@Actor@@@std@@@std@@AEAAXPEAUNode@RailData@PhiveData@Actor@@_K@Z
pdata	ENDS
;	COMDAT pdata
pdata	SEGMENT
$pdata$0$??$_Assign_counted_range@PEAUNode@RailData@PhiveData@Actor@@@?$vector@UNode@RailData@PhiveData@Actor@@V?$allocator@UNode@RailData@PhiveData@Actor@@@std@@@std@@AEAAXPEAUNode@RailData@PhiveData@Actor@@_K@Z DD imagerel $LN145+60
	DD	imagerel $LN145+292
	DD	imagerel $chain$0$??$_Assign_counted_range@PEAUNode@RailData@PhiveData@Actor@@@?$vector@UNode@RailData@PhiveData@Actor@@V?$allocator@UNode@RailData@PhiveData@Actor@@@std@@@std@@AEAAXPEAUNode@RailData@PhiveData@Actor@@_K@Z
pdata	ENDS
;	COMDAT pdata
pdata	SEGMENT
$pdata$2$??$_Assign_counted_range@PEAUNode@RailData@PhiveData@Actor@@@?$vector@UNode@RailData@PhiveData@Actor@@V?$allocator@UNode@RailData@PhiveData@Actor@@@std@@@std@@AEAAXPEAUNode@RailData@PhiveData@Actor@@_K@Z DD imagerel $LN145+292
	DD	imagerel $LN145+299
	DD	imagerel $chain$2$??$_Assign_counted_range@PEAUNode@RailData@PhiveData@Actor@@@?$vector@UNode@RailData@PhiveData@Actor@@V?$allocator@UNode@RailData@PhiveData@Actor@@@std@@@std@@AEAAXPEAUNode@RailData@PhiveData@Actor@@_K@Z
pdata	ENDS
;	COMDAT pdata
pdata	SEGMENT
$pdata$3$??$_Assign_counted_range@PEAUNode@RailData@PhiveData@Actor@@@?$vector@UNode@RailData@PhiveData@Actor@@V?$allocator@UNode@RailData@PhiveData@Actor@@@std@@@std@@AEAAXPEAUNode@RailData@PhiveData@Actor@@_K@Z DD imagerel $LN145+299
	DD	imagerel $LN145+303
	DD	imagerel $chain$3$??$_Assign_counted_range@PEAUNode@RailData@PhiveData@Actor@@@?$vector@UNode@RailData@PhiveData@Actor@@V?$allocator@UNode@RailData@PhiveData@Actor@@@std@@@std@@AEAAXPEAUNode@RailData@PhiveData@Actor@@_K@Z
pdata	ENDS
;	COMDAT pdata
pdata	SEGMENT
$pdata$4$??$_Assign_counted_range@PEAUNode@RailData@PhiveData@Actor@@@?$vector@UNode@RailData@PhiveData@Actor@@V?$allocator@UNode@RailData@PhiveData@Actor@@@std@@@std@@AEAAXPEAUNode@RailData@PhiveData@Actor@@_K@Z DD imagerel $LN145+303
	DD	imagerel $LN145+442
	DD	imagerel $chain$4$??$_Assign_counted_range@PEAUNode@RailData@PhiveData@Actor@@@?$vector@UNode@RailData@PhiveData@Actor@@V?$allocator@UNode@RailData@PhiveData@Actor@@@std@@@std@@AEAAXPEAUNode@RailData@PhiveData@Actor@@_K@Z
pdata	ENDS
;	COMDAT pdata
pdata	SEGMENT
$pdata$6$??$_Assign_counted_range@PEAUNode@RailData@PhiveData@Actor@@@?$vector@UNode@RailData@PhiveData@Actor@@V?$allocator@UNode@RailData@PhiveData@Actor@@@std@@@std@@AEAAXPEAUNode@RailData@PhiveData@Actor@@_K@Z DD imagerel $LN145+442
	DD	imagerel $LN145+584
	DD	imagerel $chain$6$??$_Assign_counted_range@PEAUNode@RailData@PhiveData@Actor@@@?$vector@UNode@RailData@PhiveData@Actor@@V?$allocator@UNode@RailData@PhiveData@Actor@@@std@@@std@@AEAAXPEAUNode@RailData@PhiveData@Actor@@_K@Z
pdata	ENDS
;	COMDAT pdata
pdata	SEGMENT
$pdata$8$??$_Assign_counted_range@PEAUNode@RailData@PhiveData@Actor@@@?$vector@UNode@RailData@PhiveData@Actor@@V?$allocator@UNode@RailData@PhiveData@Actor@@@std@@@std@@AEAAXPEAUNode@RailData@PhiveData@Actor@@_K@Z DD imagerel $LN145+584
	DD	imagerel $LN145+590
	DD	imagerel $chain$8$??$_Assign_counted_range@PEAUNode@RailData@PhiveData@Actor@@@?$vector@UNode@RailData@PhiveData@Actor@@V?$allocator@UNode@RailData@PhiveData@Actor@@@std@@@std@@AEAAXPEAUNode@RailData@PhiveData@Actor@@_K@Z
pdata	ENDS
;	COMDAT pdata
pdata	SEGMENT
$pdata$??$_Copy_n_unchecked4@PEAUOwnerData@ConstraintLinkData@PhiveData@Actor@@_KPEAU1234@@std@@YAPEAUOwnerData@ConstraintLinkData@PhiveData@Actor@@PEAU1234@_K0@Z DD imagerel $LN61
	DD	imagerel $LN61+23
	DD	imagerel $unwind$??$_Copy_n_unchecked4@PEAUOwnerData@ConstraintLinkData@PhiveData@Actor@@_KPEAU1234@@std@@YAPEAUOwnerData@ConstraintLinkData@PhiveData@Actor@@PEAU1234@_K0@Z
pdata	ENDS
;	COMDAT pdata
pdata	SEGMENT
$pdata$5$??$_Copy_n_unchecked4@PEAUOwnerData@ConstraintLinkData@PhiveData@Actor@@_KPEAU1234@@std@@YAPEAUOwnerData@ConstraintLinkData@PhiveData@Actor@@PEAU1234@_K0@Z DD imagerel $LN61+23
	DD	imagerel $LN61+485
	DD	imagerel $chain$5$??$_Copy_n_unchecked4@PEAUOwnerData@ConstraintLinkData@PhiveData@Actor@@_KPEAU1234@@std@@YAPEAUOwnerData@ConstraintLinkData@PhiveData@Actor@@PEAU1234@_K0@Z
pdata	ENDS
;	COMDAT pdata
pdata	SEGMENT
$pdata$6$??$_Copy_n_unchecked4@PEAUOwnerData@ConstraintLinkData@PhiveData@Actor@@_KPEAU1234@@std@@YAPEAUOwnerData@ConstraintLinkData@PhiveData@Actor@@PEAU1234@_K0@Z DD imagerel $LN61+485
	DD	imagerel $LN61+497
	DD	imagerel $chain$6$??$_Copy_n_unchecked4@PEAUOwnerData@ConstraintLinkData@PhiveData@Actor@@_KPEAU1234@@std@@YAPEAUOwnerData@ConstraintLinkData@PhiveData@Actor@@PEAU1234@_K0@Z
pdata	ENDS
;	COMDAT pdata
pdata	SEGMENT
$pdata$??$_Uninitialized_copy_n@PEAUOwnerData@ConstraintLinkData@PhiveData@Actor@@V?$allocator@UOwnerData@ConstraintLinkData@PhiveData@Actor@@@std@@@std@@YAPEAUOwnerData@ConstraintLinkData@PhiveData@Actor@@PEAU1234@_K0AEAV?$allocator@UOwnerData@ConstraintLinkData@PhiveData@Actor@@@0@@Z DD imagerel $LN44
	DD	imagerel $LN44+135
	DD	imagerel $unwind$??$_Uninitialized_copy_n@PEAUOwnerData@ConstraintLinkData@PhiveData@Actor@@V?$allocator@UOwnerData@ConstraintLinkData@PhiveData@Actor@@@std@@@std@@YAPEAUOwnerData@ConstraintLinkData@PhiveData@Actor@@PEAU1234@_K0AEAV?$allocator@UOwnerData@ConstraintLinkData@PhiveData@Actor@@@0@@Z
pdata	ENDS
;	COMDAT pdata
pdata	SEGMENT
$pdata$??$_Copy_n_unchecked4@PEAUReferData@ConstraintLinkData@PhiveData@Actor@@_KPEAU1234@@std@@YAPEAUReferData@ConstraintLinkData@PhiveData@Actor@@PEAU1234@_K0@Z DD imagerel $LN27
	DD	imagerel $LN27+21
	DD	imagerel $unwind$??$_Copy_n_unchecked4@PEAUReferData@ConstraintLinkData@PhiveData@Actor@@_KPEAU1234@@std@@YAPEAUReferData@ConstraintLinkData@PhiveData@Actor@@PEAU1234@_K0@Z
pdata	ENDS
;	COMDAT pdata
pdata	SEGMENT
$pdata$1$??$_Copy_n_unchecked4@PEAUReferData@ConstraintLinkData@PhiveData@Actor@@_KPEAU1234@@std@@YAPEAUReferData@ConstraintLinkData@PhiveData@Actor@@PEAU1234@_K0@Z DD imagerel $LN27+21
	DD	imagerel $LN27+113
	DD	imagerel $chain$1$??$_Copy_n_unchecked4@PEAUReferData@ConstraintLinkData@PhiveData@Actor@@_KPEAU1234@@std@@YAPEAUReferData@ConstraintLinkData@PhiveData@Actor@@PEAU1234@_K0@Z
pdata	ENDS
;	COMDAT pdata
pdata	SEGMENT
$pdata$2$??$_Copy_n_unchecked4@PEAUReferData@ConstraintLinkData@PhiveData@Actor@@_KPEAU1234@@std@@YAPEAUReferData@ConstraintLinkData@PhiveData@Actor@@PEAU1234@_K0@Z DD imagerel $LN27+113
	DD	imagerel $LN27+127
	DD	imagerel $chain$2$??$_Copy_n_unchecked4@PEAUReferData@ConstraintLinkData@PhiveData@Actor@@_KPEAU1234@@std@@YAPEAUReferData@ConstraintLinkData@PhiveData@Actor@@PEAU1234@_K0@Z
pdata	ENDS
;	COMDAT pdata
pdata	SEGMENT
$pdata$??$_Uninitialized_copy_n@PEAUReferData@ConstraintLinkData@PhiveData@Actor@@V?$allocator@UReferData@ConstraintLinkData@PhiveData@Actor@@@std@@@std@@YAPEAUReferData@ConstraintLinkData@PhiveData@Actor@@PEAU1234@_K0AEAV?$allocator@UReferData@ConstraintLinkData@PhiveData@Actor@@@0@@Z DD imagerel $LN53
	DD	imagerel $LN53+150
	DD	imagerel $unwind$??$_Uninitialized_copy_n@PEAUReferData@ConstraintLinkData@PhiveData@Actor@@V?$allocator@UReferData@ConstraintLinkData@PhiveData@Actor@@@std@@@std@@YAPEAUReferData@ConstraintLinkData@PhiveData@Actor@@PEAU1234@_K0AEAV?$allocator@UReferData@ConstraintLinkData@PhiveData@Actor@@@0@@Z
pdata	ENDS
;	COMDAT pdata
pdata	SEGMENT
$pdata$??$_Copy_n_unchecked4@PEA_K_KPEA_K@std@@YAPEA_KPEA_K_K0@Z DD imagerel $LN16
	DD	imagerel $LN16+50
	DD	imagerel $unwind$??$_Copy_n_unchecked4@PEA_K_KPEA_K@std@@YAPEA_KPEA_K_K0@Z
pdata	ENDS
;	COMDAT pdata
pdata	SEGMENT
$pdata$??$_Copy_memmove_n@PEA_KPEA_K@std@@YAPEA_KPEA_K_K0@Z DD imagerel $LN6
	DD	imagerel $LN6+50
	DD	imagerel $unwind$??$_Copy_memmove_n@PEA_KPEA_K@std@@YAPEA_KPEA_K_K0@Z
pdata	ENDS
;	COMDAT pdata
pdata	SEGMENT
$pdata$??$_Uninitialized_copy_n@PEA_KV?$allocator@_K@std@@@std@@YAPEA_KPEA_K_K0AEAV?$allocator@_K@0@@Z DD imagerel $LN25
	DD	imagerel $LN25+50
	DD	imagerel $unwind$??$_Uninitialized_copy_n@PEA_KV?$allocator@_K@std@@@std@@YAPEA_KPEA_K_K0AEAV?$allocator@_K@0@@Z
pdata	ENDS
;	COMDAT pdata
pdata	SEGMENT
$pdata$??$_Copy_n_unchecked4@PEAURailData@PhiveData@Actor@@_KPEAU123@@std@@YAPEAURailData@PhiveData@Actor@@PEAU123@_K0@Z DD imagerel $LN31
	DD	imagerel $LN31+25
	DD	imagerel $unwind$??$_Copy_n_unchecked4@PEAURailData@PhiveData@Actor@@_KPEAU123@@std@@YAPEAURailData@PhiveData@Actor@@PEAU123@_K0@Z
pdata	ENDS
;	COMDAT pdata
pdata	SEGMENT
$pdata$2$??$_Copy_n_unchecked4@PEAURailData@PhiveData@Actor@@_KPEAU123@@std@@YAPEAURailData@PhiveData@Actor@@PEAU123@_K0@Z DD imagerel $LN31+25
	DD	imagerel $LN31+169
	DD	imagerel $chain$2$??$_Copy_n_unchecked4@PEAURailData@PhiveData@Actor@@_KPEAU123@@std@@YAPEAURailData@PhiveData@Actor@@PEAU123@_K0@Z
pdata	ENDS
;	COMDAT pdata
pdata	SEGMENT
$pdata$3$??$_Copy_n_unchecked4@PEAURailData@PhiveData@Actor@@_KPEAU123@@std@@YAPEAURailData@PhiveData@Actor@@PEAU123@_K0@Z DD imagerel $LN31+169
	DD	imagerel $LN31+183
	DD	imagerel $chain$3$??$_Copy_n_unchecked4@PEAURailData@PhiveData@Actor@@_KPEAU123@@std@@YAPEAURailData@PhiveData@Actor@@PEAU123@_K0@Z
pdata	ENDS
;	COMDAT pdata
pdata	SEGMENT
$pdata$??$_Uninitialized_copy_n@PEAURailData@PhiveData@Actor@@V?$allocator@URailData@PhiveData@Actor@@@std@@@std@@YAPEAURailData@PhiveData@Actor@@PEAU123@_K0AEAV?$allocator@URailData@PhiveData@Actor@@@0@@Z DD imagerel $LN52
	DD	imagerel $LN52+129
	DD	imagerel $unwind$??$_Uninitialized_copy_n@PEAURailData@PhiveData@Actor@@V?$allocator@URailData@PhiveData@Actor@@@std@@@std@@YAPEAURailData@PhiveData@Actor@@PEAU123@_K0AEAV?$allocator@URailData@PhiveData@Actor@@@0@@Z
pdata	ENDS
;	COMDAT pdata
pdata	SEGMENT
$pdata$??$_Copy_n_unchecked4@PEAULink@Actor@@_KPEAU12@@std@@YAPEAULink@Actor@@PEAU12@_K0@Z DD imagerel $LN37
	DD	imagerel $LN37+25
	DD	imagerel $unwind$??$_Copy_n_unchecked4@PEAULink@Actor@@_KPEAU12@@std@@YAPEAULink@Actor@@PEAU12@_K0@Z
pdata	ENDS
;	COMDAT pdata
pdata	SEGMENT
$pdata$1$??$_Copy_n_unchecked4@PEAULink@Actor@@_KPEAU12@@std@@YAPEAULink@Actor@@PEAU12@_K0@Z DD imagerel $LN37+25
	DD	imagerel $LN37+153
	DD	imagerel $chain$1$??$_Copy_n_unchecked4@PEAULink@Actor@@_KPEAU12@@std@@YAPEAULink@Actor@@PEAU12@_K0@Z
pdata	ENDS
;	COMDAT pdata
pdata	SEGMENT
$pdata$2$??$_Copy_n_unchecked4@PEAULink@Actor@@_KPEAU12@@std@@YAPEAULink@Actor@@PEAU12@_K0@Z DD imagerel $LN37+153
	DD	imagerel $LN37+167
	DD	imagerel $chain$2$??$_Copy_n_unchecked4@PEAULink@Actor@@_KPEAU12@@std@@YAPEAULink@Actor@@PEAU12@_K0@Z
pdata	ENDS
;	COMDAT pdata
pdata	SEGMENT
$pdata$??$_Uninitialized_copy_n@PEAULink@Actor@@V?$allocator@ULink@Actor@@@std@@@std@@YAPEAULink@Actor@@PEAU12@_K0AEAV?$allocator@ULink@Actor@@@0@@Z DD imagerel $LN57
	DD	imagerel $LN57+178
	DD	imagerel $unwind$??$_Uninitialized_copy_n@PEAULink@Actor@@V?$allocator@ULink@Actor@@@std@@@std@@YAPEAULink@Actor@@PEAU12@_K0AEAV?$allocator@ULink@Actor@@@0@@Z
pdata	ENDS
;	COMDAT pdata
pdata	SEGMENT
$pdata$??$_Copy_n_unchecked4@PEAURail@Actor@@_KPEAU12@@std@@YAPEAURail@Actor@@PEAU12@_K0@Z DD imagerel $LN37
	DD	imagerel $LN37+21
	DD	imagerel $unwind$??$_Copy_n_unchecked4@PEAURail@Actor@@_KPEAU12@@std@@YAPEAURail@Actor@@PEAU12@_K0@Z
pdata	ENDS
;	COMDAT pdata
pdata	SEGMENT
$pdata$1$??$_Copy_n_unchecked4@PEAURail@Actor@@_KPEAU12@@std@@YAPEAURail@Actor@@PEAU12@_K0@Z DD imagerel $LN37+21
	DD	imagerel $LN37+145
	DD	imagerel $chain$1$??$_Copy_n_unchecked4@PEAURail@Actor@@_KPEAU12@@std@@YAPEAURail@Actor@@PEAU12@_K0@Z
pdata	ENDS
;	COMDAT pdata
pdata	SEGMENT
$pdata$2$??$_Copy_n_unchecked4@PEAURail@Actor@@_KPEAU12@@std@@YAPEAURail@Actor@@PEAU12@_K0@Z DD imagerel $LN37+145
	DD	imagerel $LN37+159
	DD	imagerel $chain$2$??$_Copy_n_unchecked4@PEAURail@Actor@@_KPEAU12@@std@@YAPEAURail@Actor@@PEAU12@_K0@Z
pdata	ENDS
;	COMDAT pdata
pdata	SEGMENT
$pdata$??$_Uninitialized_copy_n@PEAURail@Actor@@V?$allocator@URail@Actor@@@std@@@std@@YAPEAURail@Actor@@PEAU12@_K0AEAV?$allocator@URail@Actor@@@0@@Z DD imagerel $LN57
	DD	imagerel $LN57+170
	DD	imagerel $unwind$??$_Uninitialized_copy_n@PEAURail@Actor@@V?$allocator@URail@Actor@@@std@@@std@@YAPEAURail@Actor@@PEAU12@_K0AEAV?$allocator@URail@Actor@@@0@@Z
pdata	ENDS
;	COMDAT pdata
pdata	SEGMENT
$pdata$??$_Copy_n_unchecked4@PEAUActor@@_KPEAU1@@std@@YAPEAUActor@@PEAU1@_K0@Z DD imagerel $LN190
	DD	imagerel $LN190+76
	DD	imagerel $unwind$??$_Copy_n_unchecked4@PEAUActor@@_KPEAU1@@std@@YAPEAUActor@@PEAU1@_K0@Z
pdata	ENDS
;	COMDAT pdata
pdata	SEGMENT
$pdata$??$_Uninitialized_copy_n@PEAUActor@@V?$allocator@UActor@@@std@@@std@@YAPEAUActor@@PEAU1@_K0AEAV?$allocator@UActor@@@0@@Z DD imagerel $LN711
	DD	imagerel $LN711+135
	DD	imagerel $unwind$??$_Uninitialized_copy_n@PEAUActor@@V?$allocator@UActor@@@std@@@std@@YAPEAUActor@@PEAU1@_K0AEAV?$allocator@UActor@@@0@@Z
pdata	ENDS
;	COMDAT pdata
pdata	SEGMENT
$pdata$?clear@?$_Tree@V?$_Tmap_traits@V?$basic_string@DU?$char_traits@D@std@@V?$allocator@D@2@@std@@V?$variant@IH_K_JM_NNV?$basic_string@DU?$char_traits@D@std@@V?$allocator@D@2@@std@@VNode@BymlFile@@@2@U?$less@V?$basic_string@DU?$char_traits@D@std@@V?$allocator@D@2@@std@@@2@V?$allocator@U?$pair@$$CBV?$basic_string@DU?$char_traits@D@std@@V?$allocator@D@2@@std@@V?$variant@IH_K_JM_NNV?$basic_string@DU?$char_traits@D@std@@V?$allocator@D@2@@std@@VNode@BymlFile@@@2@@std@@@2@$0A@@std@@@std@@QEAAXXZ DD imagerel $LN5
	DD	imagerel $LN5+58
	DD	imagerel $unwind$?clear@?$_Tree@V?$_Tmap_traits@V?$basic_string@DU?$char_traits@D@std@@V?$allocator@D@2@@std@@V?$variant@IH_K_JM_NNV?$basic_string@DU?$char_traits@D@std@@V?$allocator@D@2@@std@@VNode@BymlFile@@@2@U?$less@V?$basic_string@DU?$char_traits@D@std@@V?$allocator@D@2@@std@@@2@V?$allocator@U?$pair@$$CBV?$basic_string@DU?$char_traits@D@std@@V?$allocator@D@2@@std@@V?$variant@IH_K_JM_NNV?$basic_string@DU?$char_traits@D@std@@V?$allocator@D@2@@std@@VNode@BymlFile@@@2@@std@@@2@$0A@@std@@@std@@QEAAXXZ
pdata	ENDS
;	COMDAT pdata
pdata	SEGMENT
$pdata$??4?$_Tree@V?$_Tmap_traits@V?$basic_string@DU?$char_traits@D@std@@V?$allocator@D@2@@std@@V?$variant@IH_K_JM_NNV?$basic_string@DU?$char_traits@D@std@@V?$allocator@D@2@@std@@VNode@BymlFile@@@2@U?$less@V?$basic_string@DU?$char_traits@D@std@@V?$allocator@D@2@@std@@@2@V?$allocator@U?$pair@$$CBV?$basic_string@DU?$char_traits@D@std@@V?$allocator@D@2@@std@@V?$variant@IH_K_JM_NNV?$basic_string@DU?$char_traits@D@std@@V?$allocator@D@2@@std@@VNode@BymlFile@@@2@@std@@@2@$0A@@std@@@std@@QEAAAEAV01@AEBV01@@Z DD imagerel $LN10
	DD	imagerel $LN10+21
	DD	imagerel $unwind$??4?$_Tree@V?$_Tmap_traits@V?$basic_string@DU?$char_traits@D@std@@V?$allocator@D@2@@std@@V?$variant@IH_K_JM_NNV?$basic_string@DU?$char_traits@D@std@@V?$allocator@D@2@@std@@VNode@BymlFile@@@2@U?$less@V?$basic_string@DU?$char_traits@D@std@@V?$allocator@D@2@@std@@@2@V?$allocator@U?$pair@$$CBV?$basic_string@DU?$char_traits@D@std@@V?$allocator@D@2@@std@@V?$variant@IH_K_JM_NNV?$basic_string@DU?$char_traits@D@std@@V?$allocator@D@2@@std@@VNode@BymlFile@@@2@@std@@@2@$0A@@std@@@std@@QEAAAEAV01@AEBV01@@Z
pdata	ENDS
;	COMDAT pdata
pdata	SEGMENT
$pdata$0$??4?$_Tree@V?$_Tmap_traits@V?$basic_string@DU?$char_traits@D@std@@V?$allocator@D@2@@std@@V?$variant@IH_K_JM_NNV?$basic_string@DU?$char_traits@D@std@@V?$allocator@D@2@@std@@VNode@BymlFile@@@2@U?$less@V?$basic_string@DU?$char_traits@D@std@@V?$allocator@D@2@@std@@@2@V?$allocator@U?$pair@$$CBV?$basic_string@DU?$char_traits@D@std@@V?$allocator@D@2@@std@@V?$variant@IH_K_JM_NNV?$basic_string@DU?$char_traits@D@std@@V?$allocator@D@2@@std@@VNode@BymlFile@@@2@@std@@@2@$0A@@std@@@std@@QEAAAEAV01@AEBV01@@Z DD imagerel $LN10+21
	DD	imagerel $LN10+76
	DD	imagerel $chain$0$??4?$_Tree@V?$_Tmap_traits@V?$basic_string@DU?$char_traits@D@std@@V?$allocator@D@2@@std@@V?$variant@IH_K_JM_NNV?$basic_string@DU?$char_traits@D@std@@V?$allocator@D@2@@std@@VNode@BymlFile@@@2@U?$less@V?$basic_string@DU?$char_traits@D@std@@V?$allocator@D@2@@std@@@2@V?$allocator@U?$pair@$$CBV?$basic_string@DU?$char_traits@D@std@@V?$allocator@D@2@@std@@V?$variant@IH_K_JM_NNV?$basic_string@DU?$char_traits@D@std@@V?$allocator@D@2@@std@@VNode@BymlFile@@@2@@std@@@2@$0A@@std@@@std@@QEAAAEAV01@AEBV01@@Z
pdata	ENDS
;	COMDAT pdata
pdata	SEGMENT
$pdata$1$??4?$_Tree@V?$_Tmap_traits@V?$basic_string@DU?$char_traits@D@std@@V?$allocator@D@2@@std@@V?$variant@IH_K_JM_NNV?$basic_string@DU?$char_traits@D@std@@V?$allocator@D@2@@std@@VNode@BymlFile@@@2@U?$less@V?$basic_string@DU?$char_traits@D@std@@V?$allocator@D@2@@std@@@2@V?$allocator@U?$pair@$$CBV?$basic_string@DU?$char_traits@D@std@@V?$allocator@D@2@@std@@V?$variant@IH_K_JM_NNV?$basic_string@DU?$char_traits@D@std@@V?$allocator@D@2@@std@@VNode@BymlFile@@@2@@std@@@2@$0A@@std@@@std@@QEAAAEAV01@AEBV01@@Z DD imagerel $LN10+76
	DD	imagerel $LN10+90
	DD	imagerel $chain$1$??4?$_Tree@V?$_Tmap_traits@V?$basic_string@DU?$char_traits@D@std@@V?$allocator@D@2@@std@@V?$variant@IH_K_JM_NNV?$basic_string@DU?$char_traits@D@std@@V?$allocator@D@2@@std@@VNode@BymlFile@@@2@U?$less@V?$basic_string@DU?$char_traits@D@std@@V?$allocator@D@2@@std@@@2@V?$allocator@U?$pair@$$CBV?$basic_string@DU?$char_traits@D@std@@V?$allocator@D@2@@std@@V?$variant@IH_K_JM_NNV?$basic_string@DU?$char_traits@D@std@@V?$allocator@D@2@@std@@VNode@BymlFile@@@2@@std@@@2@$0A@@std@@@std@@QEAAAEAV01@AEBV01@@Z
pdata	ENDS
;	COMDAT pdata
pdata	SEGMENT
$pdata$??4?$map@V?$basic_string@DU?$char_traits@D@std@@V?$allocator@D@2@@std@@V?$variant@IH_K_JM_NNV?$basic_string@DU?$char_traits@D@std@@V?$allocator@D@2@@std@@VNode@BymlFile@@@2@U?$less@V?$basic_string@DU?$char_traits@D@std@@V?$allocator@D@2@@std@@@2@V?$allocator@U?$pair@$$CBV?$basic_string@DU?$char_traits@D@std@@V?$allocator@D@2@@std@@V?$variant@IH_K_JM_NNV?$basic_string@DU?$char_traits@D@std@@V?$allocator@D@2@@std@@VNode@BymlFile@@@2@@std@@@2@@std@@QEAAAEAV01@AEBV01@@Z DD imagerel $LN12
	DD	imagerel $LN12+21
	DD	imagerel $unwind$??4?$map@V?$basic_string@DU?$char_traits@D@std@@V?$allocator@D@2@@std@@V?$variant@IH_K_JM_NNV?$basic_string@DU?$char_traits@D@std@@V?$allocator@D@2@@std@@VNode@BymlFile@@@2@U?$less@V?$basic_string@DU?$char_traits@D@std@@V?$allocator@D@2@@std@@@2@V?$allocator@U?$pair@$$CBV?$basic_string@DU?$char_traits@D@std@@V?$allocator@D@2@@std@@V?$variant@IH_K_JM_NNV?$basic_string@DU?$char_traits@D@std@@V?$allocator@D@2@@std@@VNode@BymlFile@@@2@@std@@@2@@std@@QEAAAEAV01@AEBV01@@Z
pdata	ENDS
;	COMDAT pdata
pdata	SEGMENT
$pdata$0$??4?$map@V?$basic_string@DU?$char_traits@D@std@@V?$allocator@D@2@@std@@V?$variant@IH_K_JM_NNV?$basic_string@DU?$char_traits@D@std@@V?$allocator@D@2@@std@@VNode@BymlFile@@@2@U?$less@V?$basic_string@DU?$char_traits@D@std@@V?$allocator@D@2@@std@@@2@V?$allocator@U?$pair@$$CBV?$basic_string@DU?$char_traits@D@std@@V?$allocator@D@2@@std@@V?$variant@IH_K_JM_NNV?$basic_string@DU?$char_traits@D@std@@V?$allocator@D@2@@std@@VNode@BymlFile@@@2@@std@@@2@@std@@QEAAAEAV01@AEBV01@@Z DD imagerel $LN12+21
	DD	imagerel $LN12+76
	DD	imagerel $chain$0$??4?$map@V?$basic_string@DU?$char_traits@D@std@@V?$allocator@D@2@@std@@V?$variant@IH_K_JM_NNV?$basic_string@DU?$char_traits@D@std@@V?$allocator@D@2@@std@@VNode@BymlFile@@@2@U?$less@V?$basic_string@DU?$char_traits@D@std@@V?$allocator@D@2@@std@@@2@V?$allocator@U?$pair@$$CBV?$basic_string@DU?$char_traits@D@std@@V?$allocator@D@2@@std@@V?$variant@IH_K_JM_NNV?$basic_string@DU?$char_traits@D@std@@V?$allocator@D@2@@std@@VNode@BymlFile@@@2@@std@@@2@@std@@QEAAAEAV01@AEBV01@@Z
pdata	ENDS
;	COMDAT pdata
pdata	SEGMENT
$pdata$1$??4?$map@V?$basic_string@DU?$char_traits@D@std@@V?$allocator@D@2@@std@@V?$variant@IH_K_JM_NNV?$basic_string@DU?$char_traits@D@std@@V?$allocator@D@2@@std@@VNode@BymlFile@@@2@U?$less@V?$basic_string@DU?$char_traits@D@std@@V?$allocator@D@2@@std@@@2@V?$allocator@U?$pair@$$CBV?$basic_string@DU?$char_traits@D@std@@V?$allocator@D@2@@std@@V?$variant@IH_K_JM_NNV?$basic_string@DU?$char_traits@D@std@@V?$allocator@D@2@@std@@VNode@BymlFile@@@2@@std@@@2@@std@@QEAAAEAV01@AEBV01@@Z DD imagerel $LN12+76
	DD	imagerel $LN12+90
	DD	imagerel $chain$1$??4?$map@V?$basic_string@DU?$char_traits@D@std@@V?$allocator@D@2@@std@@V?$variant@IH_K_JM_NNV?$basic_string@DU?$char_traits@D@std@@V?$allocator@D@2@@std@@VNode@BymlFile@@@2@U?$less@V?$basic_string@DU?$char_traits@D@std@@V?$allocator@D@2@@std@@@2@V?$allocator@U?$pair@$$CBV?$basic_string@DU?$char_traits@D@std@@V?$allocator@D@2@@std@@V?$variant@IH_K_JM_NNV?$basic_string@DU?$char_traits@D@std@@V?$allocator@D@2@@std@@VNode@BymlFile@@@2@@std@@@2@@std@@QEAAAEAV01@AEBV01@@Z
pdata	ENDS
;	COMDAT pdata
pdata	SEGMENT
$pdata$?_Clear_and_reserve_geometric@?$vector@UOwnerData@ConstraintLinkData@PhiveData@Actor@@V?$allocator@UOwnerData@ConstraintLinkData@PhiveData@Actor@@@std@@@std@@AEAAX_K@Z DD imagerel $LN61
	DD	imagerel $LN61+29
	DD	imagerel $unwind$?_Clear_and_reserve_geometric@?$vector@UOwnerData@ConstraintLinkData@PhiveData@Actor@@V?$allocator@UOwnerData@ConstraintLinkData@PhiveData@Actor@@@std@@@std@@AEAAX_K@Z
pdata	ENDS
;	COMDAT pdata
pdata	SEGMENT
$pdata$1$?_Clear_and_reserve_geometric@?$vector@UOwnerData@ConstraintLinkData@PhiveData@Actor@@V?$allocator@UOwnerData@ConstraintLinkData@PhiveData@Actor@@@std@@@std@@AEAAX_K@Z DD imagerel $LN61+29
	DD	imagerel $LN61+100
	DD	imagerel $chain$1$?_Clear_and_reserve_geometric@?$vector@UOwnerData@ConstraintLinkData@PhiveData@Actor@@V?$allocator@UOwnerData@ConstraintLinkData@PhiveData@Actor@@@std@@@std@@AEAAX_K@Z
pdata	ENDS
;	COMDAT pdata
pdata	SEGMENT
$pdata$2$?_Clear_and_reserve_geometric@?$vector@UOwnerData@ConstraintLinkData@PhiveData@Actor@@V?$allocator@UOwnerData@ConstraintLinkData@PhiveData@Actor@@@std@@@std@@AEAAX_K@Z DD imagerel $LN61+100
	DD	imagerel $LN61+173
	DD	imagerel $chain$2$?_Clear_and_reserve_geometric@?$vector@UOwnerData@ConstraintLinkData@PhiveData@Actor@@V?$allocator@UOwnerData@ConstraintLinkData@PhiveData@Actor@@@std@@@std@@AEAAX_K@Z
pdata	ENDS
;	COMDAT pdata
pdata	SEGMENT
$pdata$3$?_Clear_and_reserve_geometric@?$vector@UOwnerData@ConstraintLinkData@PhiveData@Actor@@V?$allocator@UOwnerData@ConstraintLinkData@PhiveData@Actor@@@std@@@std@@AEAAX_K@Z DD imagerel $LN61+173
	DD	imagerel $LN61+261
	DD	imagerel $chain$3$?_Clear_and_reserve_geometric@?$vector@UOwnerData@ConstraintLinkData@PhiveData@Actor@@V?$allocator@UOwnerData@ConstraintLinkData@PhiveData@Actor@@@std@@@std@@AEAAX_K@Z
pdata	ENDS
;	COMDAT pdata
pdata	SEGMENT
$pdata$5$?_Clear_and_reserve_geometric@?$vector@UOwnerData@ConstraintLinkData@PhiveData@Actor@@V?$allocator@UOwnerData@ConstraintLinkData@PhiveData@Actor@@@std@@@std@@AEAAX_K@Z DD imagerel $LN61+261
	DD	imagerel $LN61+268
	DD	imagerel $chain$5$?_Clear_and_reserve_geometric@?$vector@UOwnerData@ConstraintLinkData@PhiveData@Actor@@V?$allocator@UOwnerData@ConstraintLinkData@PhiveData@Actor@@@std@@@std@@AEAAX_K@Z
pdata	ENDS
;	COMDAT pdata
pdata	SEGMENT
$pdata$6$?_Clear_and_reserve_geometric@?$vector@UOwnerData@ConstraintLinkData@PhiveData@Actor@@V?$allocator@UOwnerData@ConstraintLinkData@PhiveData@Actor@@@std@@@std@@AEAAX_K@Z DD imagerel $LN61+268
	DD	imagerel $LN61+274
	DD	imagerel $chain$6$?_Clear_and_reserve_geometric@?$vector@UOwnerData@ConstraintLinkData@PhiveData@Actor@@V?$allocator@UOwnerData@ConstraintLinkData@PhiveData@Actor@@@std@@@std@@AEAAX_K@Z
pdata	ENDS
;	COMDAT pdata
pdata	SEGMENT
$pdata$?_Clear_and_reserve_geometric@?$vector@UReferData@ConstraintLinkData@PhiveData@Actor@@V?$allocator@UReferData@ConstraintLinkData@PhiveData@Actor@@@std@@@std@@AEAAX_K@Z DD imagerel $LN67
	DD	imagerel $LN67+30
	DD	imagerel $unwind$?_Clear_and_reserve_geometric@?$vector@UReferData@ConstraintLinkData@PhiveData@Actor@@V?$allocator@UReferData@ConstraintLinkData@PhiveData@Actor@@@std@@@std@@AEAAX_K@Z
pdata	ENDS
;	COMDAT pdata
pdata	SEGMENT
$pdata$1$?_Clear_and_reserve_geometric@?$vector@UReferData@ConstraintLinkData@PhiveData@Actor@@V?$allocator@UReferData@ConstraintLinkData@PhiveData@Actor@@@std@@@std@@AEAAX_K@Z DD imagerel $LN67+30
	DD	imagerel $LN67+101
	DD	imagerel $chain$1$?_Clear_and_reserve_geometric@?$vector@UReferData@ConstraintLinkData@PhiveData@Actor@@V?$allocator@UReferData@ConstraintLinkData@PhiveData@Actor@@@std@@@std@@AEAAX_K@Z
pdata	ENDS
;	COMDAT pdata
pdata	SEGMENT
$pdata$2$?_Clear_and_reserve_geometric@?$vector@UReferData@ConstraintLinkData@PhiveData@Actor@@V?$allocator@UReferData@ConstraintLinkData@PhiveData@Actor@@@std@@@std@@AEAAX_K@Z DD imagerel $LN67+101
	DD	imagerel $LN67+173
	DD	imagerel $chain$2$?_Clear_and_reserve_geometric@?$vector@UReferData@ConstraintLinkData@PhiveData@Actor@@V?$allocator@UReferData@ConstraintLinkData@PhiveData@Actor@@@std@@@std@@AEAAX_K@Z
pdata	ENDS
;	COMDAT pdata
pdata	SEGMENT
$pdata$3$?_Clear_and_reserve_geometric@?$vector@UReferData@ConstraintLinkData@PhiveData@Actor@@V?$allocator@UReferData@ConstraintLinkData@PhiveData@Actor@@@std@@@std@@AEAAX_K@Z DD imagerel $LN67+173
	DD	imagerel $LN67+260
	DD	imagerel $chain$3$?_Clear_and_reserve_geometric@?$vector@UReferData@ConstraintLinkData@PhiveData@Actor@@V?$allocator@UReferData@ConstraintLinkData@PhiveData@Actor@@@std@@@std@@AEAAX_K@Z
pdata	ENDS
;	COMDAT pdata
pdata	SEGMENT
$pdata$5$?_Clear_and_reserve_geometric@?$vector@UReferData@ConstraintLinkData@PhiveData@Actor@@V?$allocator@UReferData@ConstraintLinkData@PhiveData@Actor@@@std@@@std@@AEAAX_K@Z DD imagerel $LN67+260
	DD	imagerel $LN67+267
	DD	imagerel $chain$5$?_Clear_and_reserve_geometric@?$vector@UReferData@ConstraintLinkData@PhiveData@Actor@@V?$allocator@UReferData@ConstraintLinkData@PhiveData@Actor@@@std@@@std@@AEAAX_K@Z
pdata	ENDS
;	COMDAT pdata
pdata	SEGMENT
$pdata$6$?_Clear_and_reserve_geometric@?$vector@UReferData@ConstraintLinkData@PhiveData@Actor@@V?$allocator@UReferData@ConstraintLinkData@PhiveData@Actor@@@std@@@std@@AEAAX_K@Z DD imagerel $LN67+267
	DD	imagerel $LN67+273
	DD	imagerel $chain$6$?_Clear_and_reserve_geometric@?$vector@UReferData@ConstraintLinkData@PhiveData@Actor@@V?$allocator@UReferData@ConstraintLinkData@PhiveData@Actor@@@std@@@std@@AEAAX_K@Z
pdata	ENDS
;	COMDAT pdata
pdata	SEGMENT
$pdata$?_Clear_and_reserve_geometric@?$vector@_KV?$allocator@_K@std@@@std@@AEAAX_K@Z DD imagerel $LN42
	DD	imagerel $LN42+188
	DD	imagerel $unwind$?_Clear_and_reserve_geometric@?$vector@_KV?$allocator@_K@std@@@std@@AEAAX_K@Z
pdata	ENDS
;	COMDAT pdata
pdata	SEGMENT
$pdata$??4?$vector@UNode@RailData@PhiveData@Actor@@V?$allocator@UNode@RailData@PhiveData@Actor@@@std@@@std@@QEAAAEAV01@AEBV01@@Z DD imagerel $LN7
	DD	imagerel $LN7+59
	DD	imagerel $unwind$??4?$vector@UNode@RailData@PhiveData@Actor@@V?$allocator@UNode@RailData@PhiveData@Actor@@@std@@@std@@QEAAAEAV01@AEBV01@@Z
pdata	ENDS
;	COMDAT pdata
pdata	SEGMENT
$pdata$?_Clear_and_reserve_geometric@?$vector@URailData@PhiveData@Actor@@V?$allocator@URailData@PhiveData@Actor@@@std@@@std@@AEAAX_K@Z DD imagerel $LN68
	DD	imagerel $LN68+32
	DD	imagerel $unwind$?_Clear_and_reserve_geometric@?$vector@URailData@PhiveData@Actor@@V?$allocator@URailData@PhiveData@Actor@@@std@@@std@@AEAAX_K@Z
pdata	ENDS
;	COMDAT pdata
pdata	SEGMENT
$pdata$0$?_Clear_and_reserve_geometric@?$vector@URailData@PhiveData@Actor@@V?$allocator@URailData@PhiveData@Actor@@@std@@@std@@AEAAX_K@Z DD imagerel $LN68+32
	DD	imagerel $LN68+84
	DD	imagerel $chain$0$?_Clear_and_reserve_geometric@?$vector@URailData@PhiveData@Actor@@V?$allocator@URailData@PhiveData@Actor@@@std@@@std@@AEAAX_K@Z
pdata	ENDS
;	COMDAT pdata
pdata	SEGMENT
$pdata$1$?_Clear_and_reserve_geometric@?$vector@URailData@PhiveData@Actor@@V?$allocator@URailData@PhiveData@Actor@@@std@@@std@@AEAAX_K@Z DD imagerel $LN68+84
	DD	imagerel $LN68+153
	DD	imagerel $chain$1$?_Clear_and_reserve_geometric@?$vector@URailData@PhiveData@Actor@@V?$allocator@URailData@PhiveData@Actor@@@std@@@std@@AEAAX_K@Z
pdata	ENDS
;	COMDAT pdata
pdata	SEGMENT
$pdata$2$?_Clear_and_reserve_geometric@?$vector@URailData@PhiveData@Actor@@V?$allocator@URailData@PhiveData@Actor@@@std@@@std@@AEAAX_K@Z DD imagerel $LN68+153
	DD	imagerel $LN68+233
	DD	imagerel $chain$2$?_Clear_and_reserve_geometric@?$vector@URailData@PhiveData@Actor@@V?$allocator@URailData@PhiveData@Actor@@@std@@@std@@AEAAX_K@Z
pdata	ENDS
;	COMDAT pdata
pdata	SEGMENT
$pdata$4$?_Clear_and_reserve_geometric@?$vector@URailData@PhiveData@Actor@@V?$allocator@URailData@PhiveData@Actor@@@std@@@std@@AEAAX_K@Z DD imagerel $LN68+233
	DD	imagerel $LN68+240
	DD	imagerel $chain$4$?_Clear_and_reserve_geometric@?$vector@URailData@PhiveData@Actor@@V?$allocator@URailData@PhiveData@Actor@@@std@@@std@@AEAAX_K@Z
pdata	ENDS
;	COMDAT pdata
pdata	SEGMENT
$pdata$5$?_Clear_and_reserve_geometric@?$vector@URailData@PhiveData@Actor@@V?$allocator@URailData@PhiveData@Actor@@@std@@@std@@AEAAX_K@Z DD imagerel $LN68+240
	DD	imagerel $LN68+246
	DD	imagerel $chain$5$?_Clear_and_reserve_geometric@?$vector@URailData@PhiveData@Actor@@V?$allocator@URailData@PhiveData@Actor@@@std@@@std@@AEAAX_K@Z
pdata	ENDS
;	COMDAT pdata
pdata	SEGMENT
$pdata$?_Clear_and_reserve_geometric@?$vector@ULink@Actor@@V?$allocator@ULink@Actor@@@std@@@std@@AEAAX_K@Z DD imagerel $LN70
	DD	imagerel $LN70+29
	DD	imagerel $unwind$?_Clear_and_reserve_geometric@?$vector@ULink@Actor@@V?$allocator@ULink@Actor@@@std@@@std@@AEAAX_K@Z
pdata	ENDS
;	COMDAT pdata
pdata	SEGMENT
$pdata$1$?_Clear_and_reserve_geometric@?$vector@ULink@Actor@@V?$allocator@ULink@Actor@@@std@@@std@@AEAAX_K@Z DD imagerel $LN70+29
	DD	imagerel $LN70+100
	DD	imagerel $chain$1$?_Clear_and_reserve_geometric@?$vector@ULink@Actor@@V?$allocator@ULink@Actor@@@std@@@std@@AEAAX_K@Z
pdata	ENDS
;	COMDAT pdata
pdata	SEGMENT
$pdata$2$?_Clear_and_reserve_geometric@?$vector@ULink@Actor@@V?$allocator@ULink@Actor@@@std@@@std@@AEAAX_K@Z DD imagerel $LN70+100
	DD	imagerel $LN70+181
	DD	imagerel $chain$2$?_Clear_and_reserve_geometric@?$vector@ULink@Actor@@V?$allocator@ULink@Actor@@@std@@@std@@AEAAX_K@Z
pdata	ENDS
;	COMDAT pdata
pdata	SEGMENT
$pdata$3$?_Clear_and_reserve_geometric@?$vector@ULink@Actor@@V?$allocator@ULink@Actor@@@std@@@std@@AEAAX_K@Z DD imagerel $LN70+181
	DD	imagerel $LN70+270
	DD	imagerel $chain$3$?_Clear_and_reserve_geometric@?$vector@ULink@Actor@@V?$allocator@ULink@Actor@@@std@@@std@@AEAAX_K@Z
pdata	ENDS
;	COMDAT pdata
pdata	SEGMENT
$pdata$5$?_Clear_and_reserve_geometric@?$vector@ULink@Actor@@V?$allocator@ULink@Actor@@@std@@@std@@AEAAX_K@Z DD imagerel $LN70+270
	DD	imagerel $LN70+277
	DD	imagerel $chain$5$?_Clear_and_reserve_geometric@?$vector@ULink@Actor@@V?$allocator@ULink@Actor@@@std@@@std@@AEAAX_K@Z
pdata	ENDS
;	COMDAT pdata
pdata	SEGMENT
$pdata$6$?_Clear_and_reserve_geometric@?$vector@ULink@Actor@@V?$allocator@ULink@Actor@@@std@@@std@@AEAAX_K@Z DD imagerel $LN70+277
	DD	imagerel $LN70+283
	DD	imagerel $chain$6$?_Clear_and_reserve_geometric@?$vector@ULink@Actor@@V?$allocator@ULink@Actor@@@std@@@std@@AEAAX_K@Z
pdata	ENDS
;	COMDAT pdata
pdata	SEGMENT
$pdata$?_Clear_and_reserve_geometric@?$vector@URail@Actor@@V?$allocator@URail@Actor@@@std@@@std@@AEAAX_K@Z DD imagerel $LN70
	DD	imagerel $LN70+29
	DD	imagerel $unwind$?_Clear_and_reserve_geometric@?$vector@URail@Actor@@V?$allocator@URail@Actor@@@std@@@std@@AEAAX_K@Z
pdata	ENDS
;	COMDAT pdata
pdata	SEGMENT
$pdata$1$?_Clear_and_reserve_geometric@?$vector@URail@Actor@@V?$allocator@URail@Actor@@@std@@@std@@AEAAX_K@Z DD imagerel $LN70+29
	DD	imagerel $LN70+100
	DD	imagerel $chain$1$?_Clear_and_reserve_geometric@?$vector@URail@Actor@@V?$allocator@URail@Actor@@@std@@@std@@AEAAX_K@Z
pdata	ENDS
;	COMDAT pdata
pdata	SEGMENT
$pdata$2$?_Clear_and_reserve_geometric@?$vector@URail@Actor@@V?$allocator@URail@Actor@@@std@@@std@@AEAAX_K@Z DD imagerel $LN70+100
	DD	imagerel $LN70+181
	DD	imagerel $chain$2$?_Clear_and_reserve_geometric@?$vector@URail@Actor@@V?$allocator@URail@Actor@@@std@@@std@@AEAAX_K@Z
pdata	ENDS
;	COMDAT pdata
pdata	SEGMENT
$pdata$3$?_Clear_and_reserve_geometric@?$vector@URail@Actor@@V?$allocator@URail@Actor@@@std@@@std@@AEAAX_K@Z DD imagerel $LN70+181
	DD	imagerel $LN70+267
	DD	imagerel $chain$3$?_Clear_and_reserve_geometric@?$vector@URail@Actor@@V?$allocator@URail@Actor@@@std@@@std@@AEAAX_K@Z
pdata	ENDS
;	COMDAT pdata
pdata	SEGMENT
$pdata$5$?_Clear_and_reserve_geometric@?$vector@URail@Actor@@V?$allocator@URail@Actor@@@std@@@std@@AEAAX_K@Z DD imagerel $LN70+267
	DD	imagerel $LN70+274
	DD	imagerel $chain$5$?_Clear_and_reserve_geometric@?$vector@URail@Actor@@V?$allocator@URail@Actor@@@std@@@std@@AEAAX_K@Z
pdata	ENDS
;	COMDAT pdata
pdata	SEGMENT
$pdata$6$?_Clear_and_reserve_geometric@?$vector@URail@Actor@@V?$allocator@URail@Actor@@@std@@@std@@AEAAX_K@Z DD imagerel $LN70+274
	DD	imagerel $LN70+280
	DD	imagerel $chain$6$?_Clear_and_reserve_geometric@?$vector@URail@Actor@@V?$allocator@URail@Actor@@@std@@@std@@AEAAX_K@Z
pdata	ENDS
;	COMDAT pdata
pdata	SEGMENT
$pdata$?_Clear_and_reserve_geometric@?$vector@UActor@@V?$allocator@UActor@@@std@@@std@@AEAAX_K@Z DD imagerel $LN223
	DD	imagerel $LN223+29
	DD	imagerel $unwind$?_Clear_and_reserve_geometric@?$vector@UActor@@V?$allocator@UActor@@@std@@@std@@AEAAX_K@Z
pdata	ENDS
;	COMDAT pdata
pdata	SEGMENT
$pdata$1$?_Clear_and_reserve_geometric@?$vector@UActor@@V?$allocator@UActor@@@std@@@std@@AEAAX_K@Z DD imagerel $LN223+29
	DD	imagerel $LN223+100
	DD	imagerel $chain$1$?_Clear_and_reserve_geometric@?$vector@UActor@@V?$allocator@UActor@@@std@@@std@@AEAAX_K@Z
pdata	ENDS
;	COMDAT pdata
pdata	SEGMENT
$pdata$2$?_Clear_and_reserve_geometric@?$vector@UActor@@V?$allocator@UActor@@@std@@@std@@AEAAX_K@Z DD imagerel $LN223+100
	DD	imagerel $LN223+173
	DD	imagerel $chain$2$?_Clear_and_reserve_geometric@?$vector@UActor@@V?$allocator@UActor@@@std@@@std@@AEAAX_K@Z
pdata	ENDS
;	COMDAT pdata
pdata	SEGMENT
$pdata$3$?_Clear_and_reserve_geometric@?$vector@UActor@@V?$allocator@UActor@@@std@@@std@@AEAAX_K@Z DD imagerel $LN223+173
	DD	imagerel $LN223+261
	DD	imagerel $chain$3$?_Clear_and_reserve_geometric@?$vector@UActor@@V?$allocator@UActor@@@std@@@std@@AEAAX_K@Z
pdata	ENDS
;	COMDAT pdata
pdata	SEGMENT
$pdata$5$?_Clear_and_reserve_geometric@?$vector@UActor@@V?$allocator@UActor@@@std@@@std@@AEAAX_K@Z DD imagerel $LN223+261
	DD	imagerel $LN223+268
	DD	imagerel $chain$5$?_Clear_and_reserve_geometric@?$vector@UActor@@V?$allocator@UActor@@@std@@@std@@AEAAX_K@Z
pdata	ENDS
;	COMDAT pdata
pdata	SEGMENT
$pdata$6$?_Clear_and_reserve_geometric@?$vector@UActor@@V?$allocator@UActor@@@std@@@std@@AEAAX_K@Z DD imagerel $LN223+268
	DD	imagerel $LN223+274
	DD	imagerel $chain$6$?_Clear_and_reserve_geometric@?$vector@UActor@@V?$allocator@UActor@@@std@@@std@@AEAAX_K@Z
pdata	ENDS
;	COMDAT pdata
pdata	SEGMENT
$pdata$??4OwnerData@ConstraintLinkData@PhiveData@Actor@@QEAAAEAU0123@AEBU0123@@Z DD imagerel $LN48
	DD	imagerel $LN48+21
	DD	imagerel $unwind$??4OwnerData@ConstraintLinkData@PhiveData@Actor@@QEAAAEAU0123@AEBU0123@@Z
pdata	ENDS
;	COMDAT pdata
pdata	SEGMENT
$pdata$0$??4OwnerData@ConstraintLinkData@PhiveData@Actor@@QEAAAEAU0123@AEBU0123@@Z DD imagerel $LN48+21
	DD	imagerel $LN48+296
	DD	imagerel $chain$0$??4OwnerData@ConstraintLinkData@PhiveData@Actor@@QEAAAEAU0123@AEBU0123@@Z
pdata	ENDS
;	COMDAT pdata
pdata	SEGMENT
$pdata$1$??4OwnerData@ConstraintLinkData@PhiveData@Actor@@QEAAAEAU0123@AEBU0123@@Z DD imagerel $LN48+296
	DD	imagerel $LN48+400
	DD	imagerel $chain$1$??4OwnerData@ConstraintLinkData@PhiveData@Actor@@QEAAAEAU0123@AEBU0123@@Z
pdata	ENDS
;	COMDAT pdata
pdata	SEGMENT
$pdata$??4ReferData@ConstraintLinkData@PhiveData@Actor@@QEAAAEAU0123@AEBU0123@@Z DD imagerel $LN16
	DD	imagerel $LN16+56
	DD	imagerel $unwind$??4ReferData@ConstraintLinkData@PhiveData@Actor@@QEAAAEAU0123@AEBU0123@@Z
pdata	ENDS
;	COMDAT pdata
pdata	SEGMENT
$pdata$??4RailData@PhiveData@Actor@@QEAAAEAU012@AEBU012@@Z DD imagerel $LN20
	DD	imagerel $LN20+113
	DD	imagerel $unwind$??4RailData@PhiveData@Actor@@QEAAAEAU012@AEBU012@@Z
pdata	ENDS
;	COMDAT pdata
pdata	SEGMENT
$pdata$??4Link@Actor@@QEAAAEAU01@AEBU01@@Z DD imagerel $LN26
	DD	imagerel $LN26+108
	DD	imagerel $unwind$??4Link@Actor@@QEAAAEAU01@AEBU01@@Z
pdata	ENDS
;	COMDAT pdata
pdata	SEGMENT
$pdata$??4Rail@Actor@@QEAAAEAU01@AEBU01@@Z DD imagerel $LN26
	DD	imagerel $LN26+100
	DD	imagerel $unwind$??4Rail@Actor@@QEAAAEAU01@AEBU01@@Z
pdata	ENDS
;	COMDAT pdata
pdata	SEGMENT
$pdata$??$_Assign_counted_range@PEAUOwnerData@ConstraintLinkData@PhiveData@Actor@@@?$vector@UOwnerData@ConstraintLinkData@PhiveData@Actor@@V?$allocator@UOwnerData@ConstraintLinkData@PhiveData@Actor@@@std@@@std@@AEAAXPEAUOwnerData@ConstraintLinkData@PhiveData@Actor@@_K@Z DD imagerel $LN94
	DD	imagerel $LN94+59
	DD	imagerel $unwind$??$_Assign_counted_range@PEAUOwnerData@ConstraintLinkData@PhiveData@Actor@@@?$vector@UOwnerData@ConstraintLinkData@PhiveData@Actor@@V?$allocator@UOwnerData@ConstraintLinkData@PhiveData@Actor@@@std@@@std@@AEAAXPEAUOwnerData@ConstraintLinkData@PhiveData@Actor@@_K@Z
pdata	ENDS
;	COMDAT pdata
pdata	SEGMENT
$pdata$0$??$_Assign_counted_range@PEAUOwnerData@ConstraintLinkData@PhiveData@Actor@@@?$vector@UOwnerData@ConstraintLinkData@PhiveData@Actor@@V?$allocator@UOwnerData@ConstraintLinkData@PhiveData@Actor@@@std@@@std@@AEAAXPEAUOwnerData@ConstraintLinkData@PhiveData@Actor@@_K@Z DD imagerel $LN94+59
	DD	imagerel $LN94+292
	DD	imagerel $chain$0$??$_Assign_counted_range@PEAUOwnerData@ConstraintLinkData@PhiveData@Actor@@@?$vector@UOwnerData@ConstraintLinkData@PhiveData@Actor@@V?$allocator@UOwnerData@ConstraintLinkData@PhiveData@Actor@@@std@@@std@@AEAAXPEAUOwnerData@ConstraintLinkData@PhiveData@Actor@@_K@Z
pdata	ENDS
;	COMDAT pdata
pdata	SEGMENT
$pdata$2$??$_Assign_counted_range@PEAUOwnerData@ConstraintLinkData@PhiveData@Actor@@@?$vector@UOwnerData@ConstraintLinkData@PhiveData@Actor@@V?$allocator@UOwnerData@ConstraintLinkData@PhiveData@Actor@@@std@@@std@@AEAAXPEAUOwnerData@ConstraintLinkData@PhiveData@Actor@@_K@Z DD imagerel $LN94+292
	DD	imagerel $LN94+299
	DD	imagerel $chain$2$??$_Assign_counted_range@PEAUOwnerData@ConstraintLinkData@PhiveData@Actor@@@?$vector@UOwnerData@ConstraintLinkData@PhiveData@Actor@@V?$allocator@UOwnerData@ConstraintLinkData@PhiveData@Actor@@@std@@@std@@AEAAXPEAUOwnerData@ConstraintLinkData@PhiveData@Actor@@_K@Z
pdata	ENDS
;	COMDAT pdata
pdata	SEGMENT
$pdata$3$??$_Assign_counted_range@PEAUOwnerData@ConstraintLinkData@PhiveData@Actor@@@?$vector@UOwnerData@ConstraintLinkData@PhiveData@Actor@@V?$allocator@UOwnerData@ConstraintLinkData@PhiveData@Actor@@@std@@@std@@AEAAXPEAUOwnerData@ConstraintLinkData@PhiveData@Actor@@_K@Z DD imagerel $LN94+299
	DD	imagerel $LN94+477
	DD	imagerel $chain$3$??$_Assign_counted_range@PEAUOwnerData@ConstraintLinkData@PhiveData@Actor@@@?$vector@UOwnerData@ConstraintLinkData@PhiveData@Actor@@V?$allocator@UOwnerData@ConstraintLinkData@PhiveData@Actor@@@std@@@std@@AEAAXPEAUOwnerData@ConstraintLinkData@PhiveData@Actor@@_K@Z
pdata	ENDS
;	COMDAT pdata
pdata	SEGMENT
$pdata$4$??$_Assign_counted_range@PEAUOwnerData@ConstraintLinkData@PhiveData@Actor@@@?$vector@UOwnerData@ConstraintLinkData@PhiveData@Actor@@V?$allocator@UOwnerData@ConstraintLinkData@PhiveData@Actor@@@std@@@std@@AEAAXPEAUOwnerData@ConstraintLinkData@PhiveData@Actor@@_K@Z DD imagerel $LN94+477
	DD	imagerel $LN94+483
	DD	imagerel $chain$4$??$_Assign_counted_range@PEAUOwnerData@ConstraintLinkData@PhiveData@Actor@@@?$vector@UOwnerData@ConstraintLinkData@PhiveData@Actor@@V?$allocator@UOwnerData@ConstraintLinkData@PhiveData@Actor@@@std@@@std@@AEAAXPEAUOwnerData@ConstraintLinkData@PhiveData@Actor@@_K@Z
pdata	ENDS
;	COMDAT pdata
pdata	SEGMENT
$pdata$??$_Assign_counted_range@PEAUReferData@ConstraintLinkData@PhiveData@Actor@@@?$vector@UReferData@ConstraintLinkData@PhiveData@Actor@@V?$allocator@UReferData@ConstraintLinkData@PhiveData@Actor@@@std@@@std@@AEAAXPEAUReferData@ConstraintLinkData@PhiveData@Actor@@_K@Z DD imagerel $LN142
	DD	imagerel $LN142+300
	DD	imagerel $unwind$??$_Assign_counted_range@PEAUReferData@ConstraintLinkData@PhiveData@Actor@@@?$vector@UReferData@ConstraintLinkData@PhiveData@Actor@@V?$allocator@UReferData@ConstraintLinkData@PhiveData@Actor@@@std@@@std@@AEAAXPEAUReferData@ConstraintLinkData@PhiveData@Actor@@_K@Z
pdata	ENDS
;	COMDAT pdata
pdata	SEGMENT
$pdata$0$??$_Assign_counted_range@PEAUReferData@ConstraintLinkData@PhiveData@Actor@@@?$vector@UReferData@ConstraintLinkData@PhiveData@Actor@@V?$allocator@UReferData@ConstraintLinkData@PhiveData@Actor@@@std@@@std@@AEAAXPEAUReferData@ConstraintLinkData@PhiveData@Actor@@_K@Z DD imagerel $LN142+300
	DD	imagerel $LN142+557
	DD	imagerel $chain$0$??$_Assign_counted_range@PEAUReferData@ConstraintLinkData@PhiveData@Actor@@@?$vector@UReferData@ConstraintLinkData@PhiveData@Actor@@V?$allocator@UReferData@ConstraintLinkData@PhiveData@Actor@@@std@@@std@@AEAAXPEAUReferData@ConstraintLinkData@PhiveData@Actor@@_K@Z
pdata	ENDS
;	COMDAT pdata
pdata	SEGMENT
$pdata$1$??$_Assign_counted_range@PEAUReferData@ConstraintLinkData@PhiveData@Actor@@@?$vector@UReferData@ConstraintLinkData@PhiveData@Actor@@V?$allocator@UReferData@ConstraintLinkData@PhiveData@Actor@@@std@@@std@@AEAAXPEAUReferData@ConstraintLinkData@PhiveData@Actor@@_K@Z DD imagerel $LN142+557
	DD	imagerel $LN142+563
	DD	imagerel $chain$1$??$_Assign_counted_range@PEAUReferData@ConstraintLinkData@PhiveData@Actor@@@?$vector@UReferData@ConstraintLinkData@PhiveData@Actor@@V?$allocator@UReferData@ConstraintLinkData@PhiveData@Actor@@@std@@@std@@AEAAXPEAUReferData@ConstraintLinkData@PhiveData@Actor@@_K@Z
pdata	ENDS
;	COMDAT pdata
pdata	SEGMENT
$pdata$??$_Assign_counted_range@PEA_K@?$vector@_KV?$allocator@_K@std@@@std@@AEAAXPEA_K_K@Z DD imagerel $LN122
	DD	imagerel $LN122+230
	DD	imagerel $unwind$??$_Assign_counted_range@PEA_K@?$vector@_KV?$allocator@_K@std@@@std@@AEAAXPEA_K_K@Z
pdata	ENDS
;	COMDAT pdata
pdata	SEGMENT
$pdata$0$??$_Assign_counted_range@PEA_K@?$vector@_KV?$allocator@_K@std@@@std@@AEAAXPEA_K_K@Z DD imagerel $LN122+230
	DD	imagerel $LN122+325
	DD	imagerel $chain$0$??$_Assign_counted_range@PEA_K@?$vector@_KV?$allocator@_K@std@@@std@@AEAAXPEA_K_K@Z
pdata	ENDS
;	COMDAT pdata
pdata	SEGMENT
$pdata$2$??$_Assign_counted_range@PEA_K@?$vector@_KV?$allocator@_K@std@@@std@@AEAAXPEA_K_K@Z DD imagerel $LN122+325
	DD	imagerel $LN122+363
	DD	imagerel $chain$2$??$_Assign_counted_range@PEA_K@?$vector@_KV?$allocator@_K@std@@@std@@AEAAXPEA_K_K@Z
pdata	ENDS
;	COMDAT pdata
pdata	SEGMENT
$pdata$3$??$_Assign_counted_range@PEA_K@?$vector@_KV?$allocator@_K@std@@@std@@AEAAXPEA_K_K@Z DD imagerel $LN122+363
	DD	imagerel $LN122+369
	DD	imagerel $chain$3$??$_Assign_counted_range@PEA_K@?$vector@_KV?$allocator@_K@std@@@std@@AEAAXPEA_K_K@Z
pdata	ENDS
;	COMDAT pdata
pdata	SEGMENT
$pdata$??$_Assign_counted_range@PEAURailData@PhiveData@Actor@@@?$vector@URailData@PhiveData@Actor@@V?$allocator@URailData@PhiveData@Actor@@@std@@@std@@AEAAXPEAURailData@PhiveData@Actor@@_K@Z DD imagerel $LN137
	DD	imagerel $LN137+385
	DD	imagerel $unwind$??$_Assign_counted_range@PEAURailData@PhiveData@Actor@@@?$vector@URailData@PhiveData@Actor@@V?$allocator@URailData@PhiveData@Actor@@@std@@@std@@AEAAXPEAURailData@PhiveData@Actor@@_K@Z
pdata	ENDS
;	COMDAT pdata
pdata	SEGMENT
$pdata$0$??$_Assign_counted_range@PEAURailData@PhiveData@Actor@@@?$vector@URailData@PhiveData@Actor@@V?$allocator@URailData@PhiveData@Actor@@@std@@@std@@AEAAXPEAURailData@PhiveData@Actor@@_K@Z DD imagerel $LN137+385
	DD	imagerel $LN137+511
	DD	imagerel $chain$0$??$_Assign_counted_range@PEAURailData@PhiveData@Actor@@@?$vector@URailData@PhiveData@Actor@@V?$allocator@URailData@PhiveData@Actor@@@std@@@std@@AEAAXPEAURailData@PhiveData@Actor@@_K@Z
pdata	ENDS
;	COMDAT pdata
pdata	SEGMENT
$pdata$1$??$_Assign_counted_range@PEAURailData@PhiveData@Actor@@@?$vector@URailData@PhiveData@Actor@@V?$allocator@URailData@PhiveData@Actor@@@std@@@std@@AEAAXPEAURailData@PhiveData@Actor@@_K@Z DD imagerel $LN137+511
	DD	imagerel $LN137+581
	DD	imagerel $chain$1$??$_Assign_counted_range@PEAURailData@PhiveData@Actor@@@?$vector@URailData@PhiveData@Actor@@V?$allocator@URailData@PhiveData@Actor@@@std@@@std@@AEAAXPEAURailData@PhiveData@Actor@@_K@Z
pdata	ENDS
;	COMDAT pdata
pdata	SEGMENT
$pdata$??$_Assign_counted_range@PEAULink@Actor@@@?$vector@ULink@Actor@@V?$allocator@ULink@Actor@@@std@@@std@@AEAAXPEAULink@Actor@@_K@Z DD imagerel $LN146
	DD	imagerel $LN146+59
	DD	imagerel $unwind$??$_Assign_counted_range@PEAULink@Actor@@@?$vector@ULink@Actor@@V?$allocator@ULink@Actor@@@std@@@std@@AEAAXPEAULink@Actor@@_K@Z
pdata	ENDS
;	COMDAT pdata
pdata	SEGMENT
$pdata$0$??$_Assign_counted_range@PEAULink@Actor@@@?$vector@ULink@Actor@@V?$allocator@ULink@Actor@@@std@@@std@@AEAAXPEAULink@Actor@@_K@Z DD imagerel $LN146+59
	DD	imagerel $LN146+301
	DD	imagerel $chain$0$??$_Assign_counted_range@PEAULink@Actor@@@?$vector@ULink@Actor@@V?$allocator@ULink@Actor@@@std@@@std@@AEAAXPEAULink@Actor@@_K@Z
pdata	ENDS
;	COMDAT pdata
pdata	SEGMENT
$pdata$2$??$_Assign_counted_range@PEAULink@Actor@@@?$vector@ULink@Actor@@V?$allocator@ULink@Actor@@@std@@@std@@AEAAXPEAULink@Actor@@_K@Z DD imagerel $LN146+301
	DD	imagerel $LN146+308
	DD	imagerel $chain$2$??$_Assign_counted_range@PEAULink@Actor@@@?$vector@ULink@Actor@@V?$allocator@ULink@Actor@@@std@@@std@@AEAAXPEAULink@Actor@@_K@Z
pdata	ENDS
;	COMDAT pdata
pdata	SEGMENT
$pdata$3$??$_Assign_counted_range@PEAULink@Actor@@@?$vector@ULink@Actor@@V?$allocator@ULink@Actor@@@std@@@std@@AEAAXPEAULink@Actor@@_K@Z DD imagerel $LN146+308
	DD	imagerel $LN146+591
	DD	imagerel $chain$3$??$_Assign_counted_range@PEAULink@Actor@@@?$vector@ULink@Actor@@V?$allocator@ULink@Actor@@@std@@@std@@AEAAXPEAULink@Actor@@_K@Z
pdata	ENDS
;	COMDAT pdata
pdata	SEGMENT
$pdata$4$??$_Assign_counted_range@PEAULink@Actor@@@?$vector@ULink@Actor@@V?$allocator@ULink@Actor@@@std@@@std@@AEAAXPEAULink@Actor@@_K@Z DD imagerel $LN146+591
	DD	imagerel $LN146+597
	DD	imagerel $chain$4$??$_Assign_counted_range@PEAULink@Actor@@@?$vector@ULink@Actor@@V?$allocator@ULink@Actor@@@std@@@std@@AEAAXPEAULink@Actor@@_K@Z
pdata	ENDS
;	COMDAT pdata
pdata	SEGMENT
$pdata$??$_Assign_counted_range@PEAURail@Actor@@@?$vector@URail@Actor@@V?$allocator@URail@Actor@@@std@@@std@@AEAAXPEAURail@Actor@@_K@Z DD imagerel $LN169
	DD	imagerel $LN169+309
	DD	imagerel $unwind$??$_Assign_counted_range@PEAURail@Actor@@@?$vector@URail@Actor@@V?$allocator@URail@Actor@@@std@@@std@@AEAAXPEAURail@Actor@@_K@Z
pdata	ENDS
;	COMDAT pdata
pdata	SEGMENT
$pdata$0$??$_Assign_counted_range@PEAURail@Actor@@@?$vector@URail@Actor@@V?$allocator@URail@Actor@@@std@@@std@@AEAAXPEAURail@Actor@@_K@Z DD imagerel $LN169+309
	DD	imagerel $LN169+650
	DD	imagerel $chain$0$??$_Assign_counted_range@PEAURail@Actor@@@?$vector@URail@Actor@@V?$allocator@URail@Actor@@@std@@@std@@AEAAXPEAURail@Actor@@_K@Z
pdata	ENDS
;	COMDAT pdata
pdata	SEGMENT
$pdata$1$??$_Assign_counted_range@PEAURail@Actor@@@?$vector@URail@Actor@@V?$allocator@URail@Actor@@@std@@@std@@AEAAXPEAURail@Actor@@_K@Z DD imagerel $LN169+650
	DD	imagerel $LN169+656
	DD	imagerel $chain$1$??$_Assign_counted_range@PEAURail@Actor@@@?$vector@URail@Actor@@V?$allocator@URail@Actor@@@std@@@std@@AEAAXPEAURail@Actor@@_K@Z
pdata	ENDS
;	COMDAT pdata
pdata	SEGMENT
$pdata$??$_Assign_counted_range@PEAUActor@@@?$vector@UActor@@V?$allocator@UActor@@@std@@@std@@AEAAXPEAUActor@@_K@Z DD imagerel $LN344
	DD	imagerel $LN344+59
	DD	imagerel $unwind$??$_Assign_counted_range@PEAUActor@@@?$vector@UActor@@V?$allocator@UActor@@@std@@@std@@AEAAXPEAUActor@@_K@Z
pdata	ENDS
;	COMDAT pdata
pdata	SEGMENT
$pdata$0$??$_Assign_counted_range@PEAUActor@@@?$vector@UActor@@V?$allocator@UActor@@@std@@@std@@AEAAXPEAUActor@@_K@Z DD imagerel $LN344+59
	DD	imagerel $LN344+292
	DD	imagerel $chain$0$??$_Assign_counted_range@PEAUActor@@@?$vector@UActor@@V?$allocator@UActor@@@std@@@std@@AEAAXPEAUActor@@_K@Z
pdata	ENDS
;	COMDAT pdata
pdata	SEGMENT
$pdata$2$??$_Assign_counted_range@PEAUActor@@@?$vector@UActor@@V?$allocator@UActor@@@std@@@std@@AEAAXPEAUActor@@_K@Z DD imagerel $LN344+292
	DD	imagerel $LN344+299
	DD	imagerel $chain$2$??$_Assign_counted_range@PEAUActor@@@?$vector@UActor@@V?$allocator@UActor@@@std@@@std@@AEAAXPEAUActor@@_K@Z
pdata	ENDS
;	COMDAT pdata
pdata	SEGMENT
$pdata$3$??$_Assign_counted_range@PEAUActor@@@?$vector@UActor@@V?$allocator@UActor@@@std@@@std@@AEAAXPEAUActor@@_K@Z DD imagerel $LN344+299
	DD	imagerel $LN344+501
	DD	imagerel $chain$3$??$_Assign_counted_range@PEAUActor@@@?$vector@UActor@@V?$allocator@UActor@@@std@@@std@@AEAAXPEAUActor@@_K@Z
pdata	ENDS
;	COMDAT pdata
pdata	SEGMENT
$pdata$4$??$_Assign_counted_range@PEAUActor@@@?$vector@UActor@@V?$allocator@UActor@@@std@@@std@@AEAAXPEAUActor@@_K@Z DD imagerel $LN344+501
	DD	imagerel $LN344+507
	DD	imagerel $chain$4$??$_Assign_counted_range@PEAUActor@@@?$vector@UActor@@V?$allocator@UActor@@@std@@@std@@AEAAXPEAUActor@@_K@Z
pdata	ENDS
;	COMDAT pdata
pdata	SEGMENT
$pdata$??4?$_Tree@V?$_Tmap_traits@V?$basic_string@DU?$char_traits@D@std@@V?$allocator@D@2@@std@@V12@U?$less@V?$basic_string@DU?$char_traits@D@std@@V?$allocator@D@2@@std@@@2@V?$allocator@U?$pair@$$CBV?$basic_string@DU?$char_traits@D@std@@V?$allocator@D@2@@std@@V12@@std@@@2@$0A@@std@@@std@@QEAAAEAV01@AEBV01@@Z DD imagerel $LN10
	DD	imagerel $LN10+21
	DD	imagerel $unwind$??4?$_Tree@V?$_Tmap_traits@V?$basic_string@DU?$char_traits@D@std@@V?$allocator@D@2@@std@@V12@U?$less@V?$basic_string@DU?$char_traits@D@std@@V?$allocator@D@2@@std@@@2@V?$allocator@U?$pair@$$CBV?$basic_string@DU?$char_traits@D@std@@V?$allocator@D@2@@std@@V12@@std@@@2@$0A@@std@@@std@@QEAAAEAV01@AEBV01@@Z
pdata	ENDS
;	COMDAT pdata
pdata	SEGMENT
$pdata$0$??4?$_Tree@V?$_Tmap_traits@V?$basic_string@DU?$char_traits@D@std@@V?$allocator@D@2@@std@@V12@U?$less@V?$basic_string@DU?$char_traits@D@std@@V?$allocator@D@2@@std@@@2@V?$allocator@U?$pair@$$CBV?$basic_string@DU?$char_traits@D@std@@V?$allocator@D@2@@std@@V12@@std@@@2@$0A@@std@@@std@@QEAAAEAV01@AEBV01@@Z DD imagerel $LN10+21
	DD	imagerel $LN10+76
	DD	imagerel $chain$0$??4?$_Tree@V?$_Tmap_traits@V?$basic_string@DU?$char_traits@D@std@@V?$allocator@D@2@@std@@V12@U?$less@V?$basic_string@DU?$char_traits@D@std@@V?$allocator@D@2@@std@@@2@V?$allocator@U?$pair@$$CBV?$basic_string@DU?$char_traits@D@std@@V?$allocator@D@2@@std@@V12@@std@@@2@$0A@@std@@@std@@QEAAAEAV01@AEBV01@@Z
pdata	ENDS
;	COMDAT pdata
pdata	SEGMENT
$pdata$1$??4?$_Tree@V?$_Tmap_traits@V?$basic_string@DU?$char_traits@D@std@@V?$allocator@D@2@@std@@V12@U?$less@V?$basic_string@DU?$char_traits@D@std@@V?$allocator@D@2@@std@@@2@V?$allocator@U?$pair@$$CBV?$basic_string@DU?$char_traits@D@std@@V?$allocator@D@2@@std@@V12@@std@@@2@$0A@@std@@@std@@QEAAAEAV01@AEBV01@@Z DD imagerel $LN10+76
	DD	imagerel $LN10+90
	DD	imagerel $chain$1$??4?$_Tree@V?$_Tmap_traits@V?$basic_string@DU?$char_traits@D@std@@V?$allocator@D@2@@std@@V12@U?$less@V?$basic_string@DU?$char_traits@D@std@@V?$allocator@D@2@@std@@@2@V?$allocator@U?$pair@$$CBV?$basic_string@DU?$char_traits@D@std@@V?$allocator@D@2@@std@@V12@@std@@@2@$0A@@std@@@std@@QEAAAEAV01@AEBV01@@Z
pdata	ENDS
;	COMDAT pdata
pdata	SEGMENT
$pdata$??4?$_Tree@V?$_Tmap_traits@V?$basic_string@DU?$char_traits@D@std@@V?$allocator@D@2@@std@@UDynamicData@Actor@@U?$less@V?$basic_string@DU?$char_traits@D@std@@V?$allocator@D@2@@std@@@2@V?$allocator@U?$pair@$$CBV?$basic_string@DU?$char_traits@D@std@@V?$allocator@D@2@@std@@UDynamicData@Actor@@@std@@@2@$0A@@std@@@std@@QEAAAEAV01@AEBV01@@Z DD imagerel $LN10
	DD	imagerel $LN10+21
	DD	imagerel $unwind$??4?$_Tree@V?$_Tmap_traits@V?$basic_string@DU?$char_traits@D@std@@V?$allocator@D@2@@std@@UDynamicData@Actor@@U?$less@V?$basic_string@DU?$char_traits@D@std@@V?$allocator@D@2@@std@@@2@V?$allocator@U?$pair@$$CBV?$basic_string@DU?$char_traits@D@std@@V?$allocator@D@2@@std@@UDynamicData@Actor@@@std@@@2@$0A@@std@@@std@@QEAAAEAV01@AEBV01@@Z
pdata	ENDS
;	COMDAT pdata
pdata	SEGMENT
$pdata$0$??4?$_Tree@V?$_Tmap_traits@V?$basic_string@DU?$char_traits@D@std@@V?$allocator@D@2@@std@@UDynamicData@Actor@@U?$less@V?$basic_string@DU?$char_traits@D@std@@V?$allocator@D@2@@std@@@2@V?$allocator@U?$pair@$$CBV?$basic_string@DU?$char_traits@D@std@@V?$allocator@D@2@@std@@UDynamicData@Actor@@@std@@@2@$0A@@std@@@std@@QEAAAEAV01@AEBV01@@Z DD imagerel $LN10+21
	DD	imagerel $LN10+76
	DD	imagerel $chain$0$??4?$_Tree@V?$_Tmap_traits@V?$basic_string@DU?$char_traits@D@std@@V?$allocator@D@2@@std@@UDynamicData@Actor@@U?$less@V?$basic_string@DU?$char_traits@D@std@@V?$allocator@D@2@@std@@@2@V?$allocator@U?$pair@$$CBV?$basic_string@DU?$char_traits@D@std@@V?$allocator@D@2@@std@@UDynamicData@Actor@@@std@@@2@$0A@@std@@@std@@QEAAAEAV01@AEBV01@@Z
pdata	ENDS
;	COMDAT pdata
pdata	SEGMENT
$pdata$1$??4?$_Tree@V?$_Tmap_traits@V?$basic_string@DU?$char_traits@D@std@@V?$allocator@D@2@@std@@UDynamicData@Actor@@U?$less@V?$basic_string@DU?$char_traits@D@std@@V?$allocator@D@2@@std@@@2@V?$allocator@U?$pair@$$CBV?$basic_string@DU?$char_traits@D@std@@V?$allocator@D@2@@std@@UDynamicData@Actor@@@std@@@2@$0A@@std@@@std@@QEAAAEAV01@AEBV01@@Z DD imagerel $LN10+76
	DD	imagerel $LN10+90
	DD	imagerel $chain$1$??4?$_Tree@V?$_Tmap_traits@V?$basic_string@DU?$char_traits@D@std@@V?$allocator@D@2@@std@@UDynamicData@Actor@@U?$less@V?$basic_string@DU?$char_traits@D@std@@V?$allocator@D@2@@std@@@2@V?$allocator@U?$pair@$$CBV?$basic_string@DU?$char_traits@D@std@@V?$allocator@D@2@@std@@UDynamicData@Actor@@@std@@@2@$0A@@std@@@std@@QEAAAEAV01@AEBV01@@Z
pdata	ENDS
;	COMDAT pdata
pdata	SEGMENT
$pdata$??4?$map@V?$basic_string@DU?$char_traits@D@std@@V?$allocator@D@2@@std@@V12@U?$less@V?$basic_string@DU?$char_traits@D@std@@V?$allocator@D@2@@std@@@2@V?$allocator@U?$pair@$$CBV?$basic_string@DU?$char_traits@D@std@@V?$allocator@D@2@@std@@V12@@std@@@2@@std@@QEAAAEAV01@AEBV01@@Z DD imagerel $LN12
	DD	imagerel $LN12+21
	DD	imagerel $unwind$??4?$map@V?$basic_string@DU?$char_traits@D@std@@V?$allocator@D@2@@std@@V12@U?$less@V?$basic_string@DU?$char_traits@D@std@@V?$allocator@D@2@@std@@@2@V?$allocator@U?$pair@$$CBV?$basic_string@DU?$char_traits@D@std@@V?$allocator@D@2@@std@@V12@@std@@@2@@std@@QEAAAEAV01@AEBV01@@Z
pdata	ENDS
;	COMDAT pdata
pdata	SEGMENT
$pdata$0$??4?$map@V?$basic_string@DU?$char_traits@D@std@@V?$allocator@D@2@@std@@V12@U?$less@V?$basic_string@DU?$char_traits@D@std@@V?$allocator@D@2@@std@@@2@V?$allocator@U?$pair@$$CBV?$basic_string@DU?$char_traits@D@std@@V?$allocator@D@2@@std@@V12@@std@@@2@@std@@QEAAAEAV01@AEBV01@@Z DD imagerel $LN12+21
	DD	imagerel $LN12+76
	DD	imagerel $chain$0$??4?$map@V?$basic_string@DU?$char_traits@D@std@@V?$allocator@D@2@@std@@V12@U?$less@V?$basic_string@DU?$char_traits@D@std@@V?$allocator@D@2@@std@@@2@V?$allocator@U?$pair@$$CBV?$basic_string@DU?$char_traits@D@std@@V?$allocator@D@2@@std@@V12@@std@@@2@@std@@QEAAAEAV01@AEBV01@@Z
pdata	ENDS
;	COMDAT pdata
pdata	SEGMENT
$pdata$1$??4?$map@V?$basic_string@DU?$char_traits@D@std@@V?$allocator@D@2@@std@@V12@U?$less@V?$basic_string@DU?$char_traits@D@std@@V?$allocator@D@2@@std@@@2@V?$allocator@U?$pair@$$CBV?$basic_string@DU?$char_traits@D@std@@V?$allocator@D@2@@std@@V12@@std@@@2@@std@@QEAAAEAV01@AEBV01@@Z DD imagerel $LN12+76
	DD	imagerel $LN12+90
	DD	imagerel $chain$1$??4?$map@V?$basic_string@DU?$char_traits@D@std@@V?$allocator@D@2@@std@@V12@U?$less@V?$basic_string@DU?$char_traits@D@std@@V?$allocator@D@2@@std@@@2@V?$allocator@U?$pair@$$CBV?$basic_string@DU?$char_traits@D@std@@V?$allocator@D@2@@std@@V12@@std@@@2@@std@@QEAAAEAV01@AEBV01@@Z
pdata	ENDS
;	COMDAT pdata
pdata	SEGMENT
$pdata$??4?$vector@UOwnerData@ConstraintLinkData@PhiveData@Actor@@V?$allocator@UOwnerData@ConstraintLinkData@PhiveData@Actor@@@std@@@std@@QEAAAEAV01@AEBV01@@Z DD imagerel $LN7
	DD	imagerel $LN7+59
	DD	imagerel $unwind$??4?$vector@UOwnerData@ConstraintLinkData@PhiveData@Actor@@V?$allocator@UOwnerData@ConstraintLinkData@PhiveData@Actor@@@std@@@std@@QEAAAEAV01@AEBV01@@Z
pdata	ENDS
;	COMDAT pdata
pdata	SEGMENT
$pdata$??4?$vector@UReferData@ConstraintLinkData@PhiveData@Actor@@V?$allocator@UReferData@ConstraintLinkData@PhiveData@Actor@@@std@@@std@@QEAAAEAV01@AEBV01@@Z DD imagerel $LN7
	DD	imagerel $LN7+59
	DD	imagerel $unwind$??4?$vector@UReferData@ConstraintLinkData@PhiveData@Actor@@V?$allocator@UReferData@ConstraintLinkData@PhiveData@Actor@@@std@@@std@@QEAAAEAV01@AEBV01@@Z
pdata	ENDS
;	COMDAT pdata
pdata	SEGMENT
$pdata$??4?$vector@_KV?$allocator@_K@std@@@std@@QEAAAEAV01@AEBV01@@Z DD imagerel $LN7
	DD	imagerel $LN7+45
	DD	imagerel $unwind$??4?$vector@_KV?$allocator@_K@std@@@std@@QEAAAEAV01@AEBV01@@Z
pdata	ENDS
;	COMDAT pdata
pdata	SEGMENT
$pdata$??4?$vector@URailData@PhiveData@Actor@@V?$allocator@URailData@PhiveData@Actor@@@std@@@std@@QEAAAEAV01@AEBV01@@Z DD imagerel $LN7
	DD	imagerel $LN7+45
	DD	imagerel $unwind$??4?$vector@URailData@PhiveData@Actor@@V?$allocator@URailData@PhiveData@Actor@@@std@@@std@@QEAAAEAV01@AEBV01@@Z
pdata	ENDS
;	COMDAT pdata
pdata	SEGMENT
$pdata$??4?$vector@ULink@Actor@@V?$allocator@ULink@Actor@@@std@@@std@@QEAAAEAV01@AEBV01@@Z DD imagerel $LN7
	DD	imagerel $LN7+59
	DD	imagerel $unwind$??4?$vector@ULink@Actor@@V?$allocator@ULink@Actor@@@std@@@std@@QEAAAEAV01@AEBV01@@Z
pdata	ENDS
;	COMDAT pdata
pdata	SEGMENT
$pdata$??4?$vector@URail@Actor@@V?$allocator@URail@Actor@@@std@@@std@@QEAAAEAV01@AEBV01@@Z DD imagerel $LN7
	DD	imagerel $LN7+59
	DD	imagerel $unwind$??4?$vector@URail@Actor@@V?$allocator@URail@Actor@@@std@@@std@@QEAAAEAV01@AEBV01@@Z
pdata	ENDS
;	COMDAT pdata
pdata	SEGMENT
$pdata$??4?$map@V?$basic_string@DU?$char_traits@D@std@@V?$allocator@D@2@@std@@UDynamicData@Actor@@U?$less@V?$basic_string@DU?$char_traits@D@std@@V?$allocator@D@2@@std@@@2@V?$allocator@U?$pair@$$CBV?$basic_string@DU?$char_traits@D@std@@V?$allocator@D@2@@std@@UDynamicData@Actor@@@std@@@2@@std@@QEAAAEAV01@AEBV01@@Z DD imagerel $LN12
	DD	imagerel $LN12+21
	DD	imagerel $unwind$??4?$map@V?$basic_string@DU?$char_traits@D@std@@V?$allocator@D@2@@std@@UDynamicData@Actor@@U?$less@V?$basic_string@DU?$char_traits@D@std@@V?$allocator@D@2@@std@@@2@V?$allocator@U?$pair@$$CBV?$basic_string@DU?$char_traits@D@std@@V?$allocator@D@2@@std@@UDynamicData@Actor@@@std@@@2@@std@@QEAAAEAV01@AEBV01@@Z
pdata	ENDS
;	COMDAT pdata
pdata	SEGMENT
$pdata$0$??4?$map@V?$basic_string@DU?$char_traits@D@std@@V?$allocator@D@2@@std@@UDynamicData@Actor@@U?$less@V?$basic_string@DU?$char_traits@D@std@@V?$allocator@D@2@@std@@@2@V?$allocator@U?$pair@$$CBV?$basic_string@DU?$char_traits@D@std@@V?$allocator@D@2@@std@@UDynamicData@Actor@@@std@@@2@@std@@QEAAAEAV01@AEBV01@@Z DD imagerel $LN12+21
	DD	imagerel $LN12+76
	DD	imagerel $chain$0$??4?$map@V?$basic_string@DU?$char_traits@D@std@@V?$allocator@D@2@@std@@UDynamicData@Actor@@U?$less@V?$basic_string@DU?$char_traits@D@std@@V?$allocator@D@2@@std@@@2@V?$allocator@U?$pair@$$CBV?$basic_string@DU?$char_traits@D@std@@V?$allocator@D@2@@std@@UDynamicData@Actor@@@std@@@2@@std@@QEAAAEAV01@AEBV01@@Z
pdata	ENDS
;	COMDAT pdata
pdata	SEGMENT
$pdata$1$??4?$map@V?$basic_string@DU?$char_traits@D@std@@V?$allocator@D@2@@std@@UDynamicData@Actor@@U?$less@V?$basic_string@DU?$char_traits@D@std@@V?$allocator@D@2@@std@@@2@V?$allocator@U?$pair@$$CBV?$basic_string@DU?$char_traits@D@std@@V?$allocator@D@2@@std@@UDynamicData@Actor@@@std@@@2@@std@@QEAAAEAV01@AEBV01@@Z DD imagerel $LN12+76
	DD	imagerel $LN12+90
	DD	imagerel $chain$1$??4?$map@V?$basic_string@DU?$char_traits@D@std@@V?$allocator@D@2@@std@@UDynamicData@Actor@@U?$less@V?$basic_string@DU?$char_traits@D@std@@V?$allocator@D@2@@std@@@2@V?$allocator@U?$pair@$$CBV?$basic_string@DU?$char_traits@D@std@@V?$allocator@D@2@@std@@UDynamicData@Actor@@@std@@@2@@std@@QEAAAEAV01@AEBV01@@Z
pdata	ENDS
;	COMDAT pdata
pdata	SEGMENT
$pdata$??4?$vector@UActor@@V?$allocator@UActor@@@std@@@std@@QEAAAEAV01@AEBV01@@Z DD imagerel $LN7
	DD	imagerel $LN7+59
	DD	imagerel $unwind$??4?$vector@UActor@@V?$allocator@UActor@@@std@@@std@@QEAAAEAV01@AEBV01@@Z
pdata	ENDS
;	COMDAT pdata
pdata	SEGMENT
$pdata$?<lambda_invoker_cdecl>@<lambda_3>@?DF@??DrawToolsWindow@UITools@@YAXXZ@SA@_KMMMG@Z DD imagerel ?<lambda_invoker_cdecl>@<lambda_3>@?DF@??DrawToolsWindow@UITools@@YAXXZ@SA@_KMMMG@Z
	DD	imagerel ?<lambda_invoker_cdecl>@<lambda_3>@?DF@??DrawToolsWindow@UITools@@YAXXZ@SA@_KMMMG@Z+39
	DD	imagerel $unwind$?<lambda_invoker_cdecl>@<lambda_3>@?DF@??DrawToolsWindow@UITools@@YAXXZ@SA@_KMMMG@Z
pdata	ENDS
;	COMDAT pdata
pdata	SEGMENT
$pdata$??4RopeLinkData@PhiveData@Actor@@QEAAAEAU012@AEBU012@@Z DD imagerel $LN13
	DD	imagerel $LN13+100
	DD	imagerel $unwind$??4RopeLinkData@PhiveData@Actor@@QEAAAEAU012@AEBU012@@Z
pdata	ENDS
;	COMDAT pdata
pdata	SEGMENT
$pdata$??4ConstraintLinkData@PhiveData@Actor@@QEAAAEAU012@AEBU012@@Z DD imagerel $LN13
	DD	imagerel $LN13+128
	DD	imagerel $unwind$??4ConstraintLinkData@PhiveData@Actor@@QEAAAEAU012@AEBU012@@Z
pdata	ENDS
;	COMDAT pdata
pdata	SEGMENT
$pdata$??4PhiveData@Actor@@QEAAAEAU01@AEBU01@@Z DD imagerel $LN48
	DD	imagerel $LN48+6
	DD	imagerel $unwind$??4PhiveData@Actor@@QEAAAEAU01@AEBU01@@Z
pdata	ENDS
;	COMDAT pdata
pdata	SEGMENT
$pdata$0$??4PhiveData@Actor@@QEAAAEAU01@AEBU01@@Z DD imagerel $LN48+6
	DD	imagerel $LN48+22
	DD	imagerel $chain$0$??4PhiveData@Actor@@QEAAAEAU01@AEBU01@@Z
pdata	ENDS
;	COMDAT pdata
pdata	SEGMENT
$pdata$1$??4PhiveData@Actor@@QEAAAEAU01@AEBU01@@Z DD imagerel $LN48+22
	DD	imagerel $LN48+77
	DD	imagerel $chain$1$??4PhiveData@Actor@@QEAAAEAU01@AEBU01@@Z
pdata	ENDS
;	COMDAT pdata
pdata	SEGMENT
$pdata$2$??4PhiveData@Actor@@QEAAAEAU01@AEBU01@@Z DD imagerel $LN48+77
	DD	imagerel $LN48+363
	DD	imagerel $chain$2$??4PhiveData@Actor@@QEAAAEAU01@AEBU01@@Z
pdata	ENDS
;	COMDAT pdata
pdata	SEGMENT
$pdata$3$??4PhiveData@Actor@@QEAAAEAU01@AEBU01@@Z DD imagerel $LN48+363
	DD	imagerel $LN48+391
	DD	imagerel $chain$3$??4PhiveData@Actor@@QEAAAEAU01@AEBU01@@Z
pdata	ENDS
;	COMDAT pdata
pdata	SEGMENT
$pdata$??4Actor@@QEAAAEAU0@AEBU0@@Z DD imagerel $LN53
	DD	imagerel $LN53+24
	DD	imagerel $unwind$??4Actor@@QEAAAEAU0@AEBU0@@Z
pdata	ENDS
;	COMDAT pdata
pdata	SEGMENT
$pdata$1$??4Actor@@QEAAAEAU0@AEBU0@@Z DD imagerel $LN53+24
	DD	imagerel $LN53+332
	DD	imagerel $chain$1$??4Actor@@QEAAAEAU0@AEBU0@@Z
pdata	ENDS
;	COMDAT pdata
pdata	SEGMENT
$pdata$2$??4Actor@@QEAAAEAU0@AEBU0@@Z DD imagerel $LN53+332
	DD	imagerel $LN53+531
	DD	imagerel $chain$2$??4Actor@@QEAAAEAU0@AEBU0@@Z
pdata	ENDS
;	COMDAT pdata
pdata	SEGMENT
$pdata$3$??4Actor@@QEAAAEAU0@AEBU0@@Z DD imagerel $LN53+531
	DD	imagerel $LN53+704
	DD	imagerel $chain$3$??4Actor@@QEAAAEAU0@AEBU0@@Z
pdata	ENDS
;	COMDAT pdata
pdata	SEGMENT
$pdata$??R<lambda_3>@?DF@??DrawToolsWindow@UITools@@YAXXZ@QEBA@_KMMMG@Z DD imagerel ??R<lambda_3>@?DF@??DrawToolsWindow@UITools@@YAXXZ@QEBA@_KMMMG@Z
	DD	imagerel ??R<lambda_3>@?DF@??DrawToolsWindow@UITools@@YAXXZ@QEBA@_KMMMG@Z+576
	DD	imagerel $unwind$??R<lambda_3>@?DF@??DrawToolsWindow@UITools@@YAXXZ@QEBA@_KMMMG@Z
pdata	ENDS
;	COMDAT pdata
pdata	SEGMENT
$pdata$??R<lambda_2>@?CH@??DrawToolsWindow@UITools@@YAXXZ@QEBA@AEAUActor@@AEAV?$vector@MV?$allocator@M@std@@@std@@AEAV?$vector@IV?$allocator@I@std@@@5@@Z DD imagerel ??R<lambda_2>@?CH@??DrawToolsWindow@UITools@@YAXXZ@QEBA@AEAUActor@@AEAV?$vector@MV?$allocator@M@std@@@std@@AEAV?$vector@IV?$allocator@I@std@@@5@@Z
	DD	imagerel ??R<lambda_2>@?CH@??DrawToolsWindow@UITools@@YAXXZ@QEBA@AEAUActor@@AEAV?$vector@MV?$allocator@M@std@@@std@@AEAV?$vector@IV?$allocator@I@std@@@5@@Z+93
	DD	imagerel $unwind$??R<lambda_2>@?CH@??DrawToolsWindow@UITools@@YAXXZ@QEBA@AEAUActor@@AEAV?$vector@MV?$allocator@M@std@@@std@@AEAV?$vector@IV?$allocator@I@std@@@5@@Z
pdata	ENDS
;	COMDAT pdata
pdata	SEGMENT
$pdata$2$??R<lambda_2>@?CH@??DrawToolsWindow@UITools@@YAXXZ@QEBA@AEAUActor@@AEAV?$vector@MV?$allocator@M@std@@@std@@AEAV?$vector@IV?$allocator@I@std@@@5@@Z DD imagerel ??R<lambda_2>@?CH@??DrawToolsWindow@UITools@@YAXXZ@QEBA@AEAUActor@@AEAV?$vector@MV?$allocator@M@std@@@std@@AEAV?$vector@IV?$allocator@I@std@@@5@@Z+93
	DD	imagerel ??R<lambda_2>@?CH@??DrawToolsWindow@UITools@@YAXXZ@QEBA@AEAUActor@@AEAV?$vector@MV?$allocator@M@std@@@std@@AEAV?$vector@IV?$allocator@I@std@@@5@@Z+264
	DD	imagerel $chain$2$??R<lambda_2>@?CH@??DrawToolsWindow@UITools@@YAXXZ@QEBA@AEAUActor@@AEAV?$vector@MV?$allocator@M@std@@@std@@AEAV?$vector@IV?$allocator@I@std@@@5@@Z
pdata	ENDS
;	COMDAT pdata
pdata	SEGMENT
$pdata$7$??R<lambda_2>@?CH@??DrawToolsWindow@UITools@@YAXXZ@QEBA@AEAUActor@@AEAV?$vector@MV?$allocator@M@std@@@std@@AEAV?$vector@IV?$allocator@I@std@@@5@@Z DD imagerel ??R<lambda_2>@?CH@??DrawToolsWindow@UITools@@YAXXZ@QEBA@AEAUActor@@AEAV?$vector@MV?$allocator@M@std@@@std@@AEAV?$vector@IV?$allocator@I@std@@@5@@Z+264
	DD	imagerel ??R<lambda_2>@?CH@??DrawToolsWindow@UITools@@YAXXZ@QEBA@AEAUActor@@AEAV?$vector@MV?$allocator@M@std@@@std@@AEAV?$vector@IV?$allocator@I@std@@@5@@Z+883
	DD	imagerel $chain$7$??R<lambda_2>@?CH@??DrawToolsWindow@UITools@@YAXXZ@QEBA@AEAUActor@@AEAV?$vector@MV?$allocator@M@std@@@std@@AEAV?$vector@IV?$allocator@I@std@@@5@@Z
pdata	ENDS
;	COMDAT pdata
pdata	SEGMENT
$pdata$12$??R<lambda_2>@?CH@??DrawToolsWindow@UITools@@YAXXZ@QEBA@AEAUActor@@AEAV?$vector@MV?$allocator@M@std@@@std@@AEAV?$vector@IV?$allocator@I@std@@@5@@Z DD imagerel ??R<lambda_2>@?CH@??DrawToolsWindow@UITools@@YAXXZ@QEBA@AEAUActor@@AEAV?$vector@MV?$allocator@M@std@@@std@@AEAV?$vector@IV?$allocator@I@std@@@5@@Z+883
	DD	imagerel ??R<lambda_2>@?CH@??DrawToolsWindow@UITools@@YAXXZ@QEBA@AEAUActor@@AEAV?$vector@MV?$allocator@M@std@@@std@@AEAV?$vector@IV?$allocator@I@std@@@5@@Z+1675
	DD	imagerel $chain$12$??R<lambda_2>@?CH@??DrawToolsWindow@UITools@@YAXXZ@QEBA@AEAUActor@@AEAV?$vector@MV?$allocator@M@std@@@std@@AEAV?$vector@IV?$allocator@I@std@@@5@@Z
pdata	ENDS
;	COMDAT pdata
pdata	SEGMENT
$pdata$13$??R<lambda_2>@?CH@??DrawToolsWindow@UITools@@YAXXZ@QEBA@AEAUActor@@AEAV?$vector@MV?$allocator@M@std@@@std@@AEAV?$vector@IV?$allocator@I@std@@@5@@Z DD imagerel ??R<lambda_2>@?CH@??DrawToolsWindow@UITools@@YAXXZ@QEBA@AEAUActor@@AEAV?$vector@MV?$allocator@M@std@@@std@@AEAV?$vector@IV?$allocator@I@std@@@5@@Z+1675
	DD	imagerel ??R<lambda_2>@?CH@??DrawToolsWindow@UITools@@YAXXZ@QEBA@AEAUActor@@AEAV?$vector@MV?$allocator@M@std@@@std@@AEAV?$vector@IV?$allocator@I@std@@@5@@Z+1719
	DD	imagerel $chain$13$??R<lambda_2>@?CH@??DrawToolsWindow@UITools@@YAXXZ@QEBA@AEAUActor@@AEAV?$vector@MV?$allocator@M@std@@@std@@AEAV?$vector@IV?$allocator@I@std@@@5@@Z
pdata	ENDS
;	COMDAT pdata
pdata	SEGMENT
$pdata$14$??R<lambda_2>@?CH@??DrawToolsWindow@UITools@@YAXXZ@QEBA@AEAUActor@@AEAV?$vector@MV?$allocator@M@std@@@std@@AEAV?$vector@IV?$allocator@I@std@@@5@@Z DD imagerel ??R<lambda_2>@?CH@??DrawToolsWindow@UITools@@YAXXZ@QEBA@AEAUActor@@AEAV?$vector@MV?$allocator@M@std@@@std@@AEAV?$vector@IV?$allocator@I@std@@@5@@Z+1719
	DD	imagerel ??R<lambda_2>@?CH@??DrawToolsWindow@UITools@@YAXXZ@QEBA@AEAUActor@@AEAV?$vector@MV?$allocator@M@std@@@std@@AEAV?$vector@IV?$allocator@I@std@@@5@@Z+1743
	DD	imagerel $chain$14$??R<lambda_2>@?CH@??DrawToolsWindow@UITools@@YAXXZ@QEBA@AEAUActor@@AEAV?$vector@MV?$allocator@M@std@@@std@@AEAV?$vector@IV?$allocator@I@std@@@5@@Z
pdata	ENDS
;	COMDAT pdata
pdata	SEGMENT
$pdata$15$??R<lambda_2>@?CH@??DrawToolsWindow@UITools@@YAXXZ@QEBA@AEAUActor@@AEAV?$vector@MV?$allocator@M@std@@@std@@AEAV?$vector@IV?$allocator@I@std@@@5@@Z DD imagerel ??R<lambda_2>@?CH@??DrawToolsWindow@UITools@@YAXXZ@QEBA@AEAUActor@@AEAV?$vector@MV?$allocator@M@std@@@std@@AEAV?$vector@IV?$allocator@I@std@@@5@@Z+1743
	DD	imagerel ??R<lambda_2>@?CH@??DrawToolsWindow@UITools@@YAXXZ@QEBA@AEAUActor@@AEAV?$vector@MV?$allocator@M@std@@@std@@AEAV?$vector@IV?$allocator@I@std@@@5@@Z+1769
	DD	imagerel $chain$15$??R<lambda_2>@?CH@??DrawToolsWindow@UITools@@YAXXZ@QEBA@AEAUActor@@AEAV?$vector@MV?$allocator@M@std@@@std@@AEAV?$vector@IV?$allocator@I@std@@@5@@Z
pdata	ENDS
;	COMDAT pdata
pdata	SEGMENT
$pdata$?<lambda_invoker_cdecl>@<lambda_1>@?9??DrawToolsWindow@UITools@@YAXXZ@SA@V?$basic_string@DU?$char_traits@D@std@@V?$allocator@D@2@@std@@@Z DD imagerel ?<lambda_invoker_cdecl>@<lambda_1>@?9??DrawToolsWindow@UITools@@YAXXZ@SA@V?$basic_string@DU?$char_traits@D@std@@V?$allocator@D@2@@std@@@Z
	DD	imagerel ?<lambda_invoker_cdecl>@<lambda_1>@?9??DrawToolsWindow@UITools@@YAXXZ@SA@V?$basic_string@DU?$char_traits@D@std@@V?$allocator@D@2@@std@@@Z+80
	DD	imagerel $unwind$?<lambda_invoker_cdecl>@<lambda_1>@?9??DrawToolsWindow@UITools@@YAXXZ@SA@V?$basic_string@DU?$char_traits@D@std@@V?$allocator@D@2@@std@@@Z
pdata	ENDS
;	COMDAT pdata
pdata	SEGMENT
$pdata$?DrawToolsWindow@UITools@@YAXXZ DD imagerel $LN1334
	DD	imagerel $LN1334+5431
	DD	imagerel $unwind$?DrawToolsWindow@UITools@@YAXXZ
pdata	ENDS
;	COMDAT pdata
pdata	SEGMENT
$pdata$?dtor$83@?0??DrawToolsWindow@UITools@@YAXXZ@4HA DD imagerel ?dtor$83@?0??DrawToolsWindow@UITools@@YAXXZ@4HA
	DD	imagerel ?dtor$83@?0??DrawToolsWindow@UITools@@YAXXZ@4HA+38
	DD	imagerel $unwind$?dtor$83@?0??DrawToolsWindow@UITools@@YAXXZ@4HA
pdata	ENDS
;	COMDAT pdata
pdata	SEGMENT
$pdata$?dtor$57@?0??DrawToolsWindow@UITools@@YAXXZ@4HA DD imagerel ?dtor$57@?0??DrawToolsWindow@UITools@@YAXXZ@4HA
	DD	imagerel ?dtor$57@?0??DrawToolsWindow@UITools@@YAXXZ@4HA+38
	DD	imagerel $unwind$?dtor$57@?0??DrawToolsWindow@UITools@@YAXXZ@4HA
;	COMDAT xdata
xdata	SEGMENT
$unwind$?dtor$57@?0??DrawToolsWindow@UITools@@YAXXZ@4HA DD 020601H
	DD	050023206H
xdata	ENDS
;	COMDAT xdata
xdata	SEGMENT
$unwind$?dtor$83@?0??DrawToolsWindow@UITools@@YAXXZ@4HA DD 020601H
	DD	050023206H
xdata	ENDS
;	COMDAT xdata
xdata	SEGMENT
$ip2state$?DrawToolsWindow@UITools@@YAXXZ DB '.'
	DB	0ccH
	DB	00H
	DB	'u', 0eH
	DB	02H
	DB	'`'
	DB	06H
	DB	09H, 01aH
	DB	0aH
	DB	085H, 04H
	DB	08H
	DB	'1', 02H
	DB	06H
	DB	'1', 02H
	DB	00H
	DB	'l'
	DB	0cH
	DB	'N'
	DB	0eH
	DB	099H, 02H
	DB	010H
	DB	'n'
	DB	014H
	DB	0c6H
	DB	016H
	DB	01cH
	DB	014H
	DB	'`'
	DB	018H
	DB	09cH
	DB	01cH
	DB	085H, 04H
	DB	01aH
	DB	091H, 05H
	DB	01eH
	DB	05H, 03H
	DB	01aH
	DB	'u', 02H
	DB	018H
	DB	0bdH, 05H
	DB	00H
	DB	0f1H, 02H
	DB	01aH
	DB	0cH
	DB	06H
	DB	0cH
	DB	01aH
xdata	ENDS
;	COMDAT xdata
xdata	SEGMENT
$stateUnwindMap$?DrawToolsWindow@UITools@@YAXXZ DB 01eH
	DB	0aH
	DD	imagerel ??1Result@ZStdFile@@QEAA@XZ
	DB	021H
	DB	04H
	DB	03aH
	DD	imagerel ??1BymlFile@@QEAA@XZ
	DB	081H
	DB	05H
	DB	07aH
	DD	imagerel ??1BymlFile@@QEAA@XZ
	DB	081H
	DB	05H
	DB	03eH
	DD	imagerel ?dtor$83@?0??DrawToolsWindow@UITools@@YAXXZ@4HA
	DB	02cH
	DD	imagerel ??1?$vector@EV?$allocator@E@std@@@std@@QEAA@XZ
	DB	01H
	DB	02H
	DB	025H
	DB	02H
	DD	imagerel ??1?$vector@MV?$allocator@M@std@@@std@@QEAA@XZ
	DB	021H
	DB	04H
	DB	042H
	DD	imagerel ??1?$vector@IV?$allocator@I@std@@@std@@QEAA@XZ
	DB	0e1H
	DB	04H
	DB	03aH
	DD	imagerel ??1Result@ZStdFile@@QEAA@XZ
	DB	021H
	DB	02H
	DB	03aH
	DD	imagerel ??1PhiveNavMesh@@QEAA@XZ
	DB	01H
	DB	09H
	DB	0aaH
	DD	imagerel ??1PhiveNavMesh@@QEAA@XZ
	DB	01H
	DB	09H
	DB	03cH
	DD	imagerel ??1?$vector@IV?$allocator@I@std@@@std@@QEAA@XZ
	DB	01H
	DB	02H
	DB	072H
	DD	imagerel ??1?$vector@EV?$allocator@E@std@@@std@@QEAA@XZ
	DB	081H
	DB	04H
	DB	03eH
	DD	imagerel ?dtor$57@?0??DrawToolsWindow@UITools@@YAXXZ@4HA
	DB	02cH
	DD	imagerel ??1?$vector@EV?$allocator@E@std@@@std@@QEAA@XZ
	DB	01H
	DB	02H
	DB	062H
	DD	imagerel ??1?$basic_string@DU?$char_traits@D@std@@V?$allocator@D@2@@std@@QEAA@XZ
	DB	090H
xdata	ENDS
;	COMDAT xdata
xdata	SEGMENT
$cppxdata$?DrawToolsWindow@UITools@@YAXXZ DB 028H
	DD	imagerel $stateUnwindMap$?DrawToolsWindow@UITools@@YAXXZ
	DD	imagerel $ip2state$?DrawToolsWindow@UITools@@YAXXZ
xdata	ENDS
;	COMDAT xdata
xdata	SEGMENT
$unwind$?DrawToolsWindow@UITools@@YAXXZ DD 0113f19H
	DD	086782eH
	DD	087682aH
	DD	01187426H
	DD	01176426H
	DD	01163426H
	DD	01100126H
	DD	0e016f018H
	DD	0c012d014H
	DD	05010H
	DD	imagerel __GSHandlerCheck_EH4
	DD	imagerel $cppxdata$?DrawToolsWindow@UITools@@YAXXZ
	DD	0852H
xdata	ENDS
;	COMDAT xdata
xdata	SEGMENT
$ip2state$?<lambda_invoker_cdecl>@<lambda_1>@?9??DrawToolsWindow@UITools@@YAXXZ@SA@V?$basic_string@DU?$char_traits@D@std@@V?$allocator@D@2@@std@@@Z DB 04H
	DB	'J'
	DB	02H
	DB	' '
	DB	00H
xdata	ENDS
;	COMDAT xdata
xdata	SEGMENT
$stateUnwindMap$?<lambda_invoker_cdecl>@<lambda_1>@?9??DrawToolsWindow@UITools@@YAXXZ@SA@V?$basic_string@DU?$char_traits@D@std@@V?$allocator@D@2@@std@@@Z DB 02H
	DB	0cH
	DD	imagerel ??1?$basic_string@DU?$char_traits@D@std@@V?$allocator@D@2@@std@@QEAA@XZ
	DB	090H
xdata	ENDS
;	COMDAT xdata
xdata	SEGMENT
$cppxdata$?<lambda_invoker_cdecl>@<lambda_1>@?9??DrawToolsWindow@UITools@@YAXXZ@SA@V?$basic_string@DU?$char_traits@D@std@@V?$allocator@D@2@@std@@@Z DB 028H
	DD	imagerel $stateUnwindMap$?<lambda_invoker_cdecl>@<lambda_1>@?9??DrawToolsWindow@UITools@@YAXXZ@SA@V?$basic_string@DU?$char_traits@D@std@@V?$allocator@D@2@@std@@@Z
	DD	imagerel $ip2state$?<lambda_invoker_cdecl>@<lambda_1>@?9??DrawToolsWindow@UITools@@YAXXZ@SA@V?$basic_string@DU?$char_traits@D@std@@V?$allocator@D@2@@std@@@Z
xdata	ENDS
;	COMDAT xdata
xdata	SEGMENT
$unwind$?<lambda_invoker_cdecl>@<lambda_1>@?9??DrawToolsWindow@UITools@@YAXXZ@SA@V?$basic_string@DU?$char_traits@D@std@@V?$allocator@D@2@@std@@@Z DD 021519H
	DD	03002b206H
	DD	imagerel __GSHandlerCheck_EH4
	DD	imagerel $cppxdata$?<lambda_invoker_cdecl>@<lambda_1>@?9??DrawToolsWindow@UITools@@YAXXZ@SA@V?$basic_string@DU?$char_traits@D@std@@V?$allocator@D@2@@std@@@Z
	DD	052H
xdata	ENDS
;	COMDAT xdata
xdata	SEGMENT
$chain$15$??R<lambda_2>@?CH@??DrawToolsWindow@UITools@@YAXXZ@QEBA@AEAUActor@@AEAV?$vector@MV?$allocator@M@std@@@std@@AEAV?$vector@IV?$allocator@I@std@@@5@@Z DD 021H
	DD	imagerel ??R<lambda_2>@?CH@??DrawToolsWindow@UITools@@YAXXZ@QEBA@AEAUActor@@AEAV?$vector@MV?$allocator@M@std@@@std@@AEAV?$vector@IV?$allocator@I@std@@@5@@Z
	DD	imagerel ??R<lambda_2>@?CH@??DrawToolsWindow@UITools@@YAXXZ@QEBA@AEAUActor@@AEAV?$vector@MV?$allocator@M@std@@@std@@AEAV?$vector@IV?$allocator@I@std@@@5@@Z+93
	DD	imagerel $unwind$??R<lambda_2>@?CH@??DrawToolsWindow@UITools@@YAXXZ@QEBA@AEAUActor@@AEAV?$vector@MV?$allocator@M@std@@@std@@AEAV?$vector@IV?$allocator@I@std@@@5@@Z
xdata	ENDS
;	COMDAT xdata
xdata	SEGMENT
$chain$14$??R<lambda_2>@?CH@??DrawToolsWindow@UITools@@YAXXZ@QEBA@AEAUActor@@AEAV?$vector@MV?$allocator@M@std@@@std@@AEAV?$vector@IV?$allocator@I@std@@@5@@Z DD 021H
	DD	imagerel ??R<lambda_2>@?CH@??DrawToolsWindow@UITools@@YAXXZ@QEBA@AEAUActor@@AEAV?$vector@MV?$allocator@M@std@@@std@@AEAV?$vector@IV?$allocator@I@std@@@5@@Z+93
	DD	imagerel ??R<lambda_2>@?CH@??DrawToolsWindow@UITools@@YAXXZ@QEBA@AEAUActor@@AEAV?$vector@MV?$allocator@M@std@@@std@@AEAV?$vector@IV?$allocator@I@std@@@5@@Z+264
	DD	imagerel $chain$2$??R<lambda_2>@?CH@??DrawToolsWindow@UITools@@YAXXZ@QEBA@AEAUActor@@AEAV?$vector@MV?$allocator@M@std@@@std@@AEAV?$vector@IV?$allocator@I@std@@@5@@Z
xdata	ENDS
;	COMDAT xdata
xdata	SEGMENT
$chain$13$??R<lambda_2>@?CH@??DrawToolsWindow@UITools@@YAXXZ@QEBA@AEAUActor@@AEAV?$vector@MV?$allocator@M@std@@@std@@AEAV?$vector@IV?$allocator@I@std@@@5@@Z DD 021H
	DD	imagerel ??R<lambda_2>@?CH@??DrawToolsWindow@UITools@@YAXXZ@QEBA@AEAUActor@@AEAV?$vector@MV?$allocator@M@std@@@std@@AEAV?$vector@IV?$allocator@I@std@@@5@@Z+264
	DD	imagerel ??R<lambda_2>@?CH@??DrawToolsWindow@UITools@@YAXXZ@QEBA@AEAUActor@@AEAV?$vector@MV?$allocator@M@std@@@std@@AEAV?$vector@IV?$allocator@I@std@@@5@@Z+883
	DD	imagerel $chain$7$??R<lambda_2>@?CH@??DrawToolsWindow@UITools@@YAXXZ@QEBA@AEAUActor@@AEAV?$vector@MV?$allocator@M@std@@@std@@AEAV?$vector@IV?$allocator@I@std@@@5@@Z
xdata	ENDS
;	COMDAT xdata
xdata	SEGMENT
$chain$12$??R<lambda_2>@?CH@??DrawToolsWindow@UITools@@YAXXZ@QEBA@AEAUActor@@AEAV?$vector@MV?$allocator@M@std@@@std@@AEAV?$vector@IV?$allocator@I@std@@@5@@Z DD 0a4121H
	DD	012d841H
	DD	013c832H
	DD	014b823H
	DD	015a814H
	DD	0187808H
	DD	imagerel ??R<lambda_2>@?CH@??DrawToolsWindow@UITools@@YAXXZ@QEBA@AEAUActor@@AEAV?$vector@MV?$allocator@M@std@@@std@@AEAV?$vector@IV?$allocator@I@std@@@5@@Z+264
	DD	imagerel ??R<lambda_2>@?CH@??DrawToolsWindow@UITools@@YAXXZ@QEBA@AEAUActor@@AEAV?$vector@MV?$allocator@M@std@@@std@@AEAV?$vector@IV?$allocator@I@std@@@5@@Z+883
	DD	imagerel $chain$7$??R<lambda_2>@?CH@??DrawToolsWindow@UITools@@YAXXZ@QEBA@AEAUActor@@AEAV?$vector@MV?$allocator@M@std@@@std@@AEAV?$vector@IV?$allocator@I@std@@@5@@Z
xdata	ENDS
;	COMDAT xdata
xdata	SEGMENT
$chain$7$??R<lambda_2>@?CH@??DrawToolsWindow@UITools@@YAXXZ@QEBA@AEAUActor@@AEAV?$vector@MV?$allocator@M@std@@@std@@AEAV?$vector@IV?$allocator@I@std@@@5@@Z DD 0a6b21H
	DD	010f86bH
	DD	011e858H
	DD	016983cH
	DD	017881fH
	DD	0196808H
	DD	imagerel ??R<lambda_2>@?CH@??DrawToolsWindow@UITools@@YAXXZ@QEBA@AEAUActor@@AEAV?$vector@MV?$allocator@M@std@@@std@@AEAV?$vector@IV?$allocator@I@std@@@5@@Z+93
	DD	imagerel ??R<lambda_2>@?CH@??DrawToolsWindow@UITools@@YAXXZ@QEBA@AEAUActor@@AEAV?$vector@MV?$allocator@M@std@@@std@@AEAV?$vector@IV?$allocator@I@std@@@5@@Z+264
	DD	imagerel $chain$2$??R<lambda_2>@?CH@??DrawToolsWindow@UITools@@YAXXZ@QEBA@AEAUActor@@AEAV?$vector@MV?$allocator@M@std@@@std@@AEAV?$vector@IV?$allocator@I@std@@@5@@Z
xdata	ENDS
;	COMDAT xdata
xdata	SEGMENT
$chain$2$??R<lambda_2>@?CH@??DrawToolsWindow@UITools@@YAXXZ@QEBA@AEAUActor@@AEAV?$vector@MV?$allocator@M@std@@@std@@AEAV?$vector@IV?$allocator@I@std@@@5@@Z DD 062121H
	DD	034f421H
	DD	03cd419H
	DD	035e408H
	DD	imagerel ??R<lambda_2>@?CH@??DrawToolsWindow@UITools@@YAXXZ@QEBA@AEAUActor@@AEAV?$vector@MV?$allocator@M@std@@@std@@AEAV?$vector@IV?$allocator@I@std@@@5@@Z
	DD	imagerel ??R<lambda_2>@?CH@??DrawToolsWindow@UITools@@YAXXZ@QEBA@AEAUActor@@AEAV?$vector@MV?$allocator@M@std@@@std@@AEAV?$vector@IV?$allocator@I@std@@@5@@Z+93
	DD	imagerel $unwind$??R<lambda_2>@?CH@??DrawToolsWindow@UITools@@YAXXZ@QEBA@AEAUActor@@AEAV?$vector@MV?$allocator@M@std@@@std@@AEAV?$vector@IV?$allocator@I@std@@@5@@Z
xdata	ENDS
;	COMDAT xdata
xdata	SEGMENT
$unwind$??R<lambda_2>@?CH@??DrawToolsWindow@UITools@@YAXXZ@QEBA@AEAUActor@@AEAV?$vector@MV?$allocator@M@std@@@std@@AEAV?$vector@IV?$allocator@I@std@@@5@@Z DD 072419H
	DD	0360116H
	DD	07005c007H
	DD	030036004H
	DD	05002H
	DD	imagerel __GSHandlerCheck
	DD	0f0H
xdata	ENDS
;	COMDAT xdata
xdata	SEGMENT
$ip2state$??R<lambda_3>@?DF@??DrawToolsWindow@UITools@@YAXXZ@QEBA@_KMMMG@Z DB 0eH
	DB	09eH
	DB	00H
	DB	'h'
	DB	02H
	DB	'V'
	DB	04H
	DB	08eH
	DB	06H
	DB	'T'
	DB	04H
	DB	01cH
	DB	02H
	DB	'A', 03H
	DB	00H
xdata	ENDS
;	COMDAT xdata
xdata	SEGMENT
$stateUnwindMap$??R<lambda_3>@?DF@??DrawToolsWindow@UITools@@YAXXZ@QEBA@_KMMMG@Z DB 06H
	DB	0aH
	DD	imagerel ??1Actor@@QEAA@XZ
	DB	01H
	DB	010H
	DB	03aH
	DD	imagerel ??1?$basic_string@DU?$char_traits@D@std@@V?$allocator@D@2@@std@@QEAA@XZ
	DB	0e0H
	DB	034H
	DD	imagerel ??1?$basic_string@DU?$char_traits@D@std@@V?$allocator@D@2@@std@@QEAA@XZ
	DB	040H
xdata	ENDS
;	COMDAT xdata
xdata	SEGMENT
$cppxdata$??R<lambda_3>@?DF@??DrawToolsWindow@UITools@@YAXXZ@QEBA@_KMMMG@Z DB 028H
	DD	imagerel $stateUnwindMap$??R<lambda_3>@?DF@??DrawToolsWindow@UITools@@YAXXZ@QEBA@_KMMMG@Z
	DD	imagerel $ip2state$??R<lambda_3>@?DF@??DrawToolsWindow@UITools@@YAXXZ@QEBA@_KMMMG@Z
xdata	ENDS
;	COMDAT xdata
xdata	SEGMENT
$unwind$??R<lambda_3>@?DF@??DrawToolsWindow@UITools@@YAXXZ@QEBA@_KMMMG@Z DD 0f3c19H
	DD	078882bH
	DD	0797826H
	DD	07a6822H
	DD	0fb741eH
	DD	0fa641eH
	DD	0f8341eH
	DD	0f6011eH
	DD	05010H
	DD	imagerel __GSHandlerCheck_EH4
	DD	imagerel $cppxdata$??R<lambda_3>@?DF@??DrawToolsWindow@UITools@@YAXXZ@QEBA@_KMMMG@Z
	DD	0772H
xdata	ENDS
;	COMDAT xdata
xdata	SEGMENT
$chain$3$??4Actor@@QEAAAEAU0@AEBU0@@Z DD 021H
	DD	imagerel $LN53
	DD	imagerel $LN53+24
	DD	imagerel $unwind$??4Actor@@QEAAAEAU0@AEBU0@@Z
xdata	ENDS
;	COMDAT xdata
xdata	SEGMENT
$chain$2$??4Actor@@QEAAAEAU0@AEBU0@@Z DD 020521H
	DD	063405H
	DD	imagerel $LN53+24
	DD	imagerel $LN53+332
	DD	imagerel $chain$1$??4Actor@@QEAAAEAU0@AEBU0@@Z
xdata	ENDS
;	COMDAT xdata
xdata	SEGMENT
$chain$1$??4Actor@@QEAAAEAU0@AEBU0@@Z DD 040e21H
	DD	08e40eH
	DD	075405H
	DD	imagerel $LN53
	DD	imagerel $LN53+24
	DD	imagerel $unwind$??4Actor@@QEAAAEAU0@AEBU0@@Z
xdata	ENDS
;	COMDAT xdata
xdata	SEGMENT
$unwind$??4Actor@@QEAAAEAU0@AEBU0@@Z DD 040a01H
	DD	09640aH
	DD	07006320aH
xdata	ENDS
;	COMDAT xdata
xdata	SEGMENT
$chain$3$??4PhiveData@Actor@@QEAAAEAU01@AEBU01@@Z DD 021H
	DD	imagerel $LN48
	DD	imagerel $LN48+6
	DD	imagerel $unwind$??4PhiveData@Actor@@QEAAAEAU01@AEBU01@@Z
xdata	ENDS
;	COMDAT xdata
xdata	SEGMENT
$chain$2$??4PhiveData@Actor@@QEAAAEAU01@AEBU01@@Z DD 021H
	DD	imagerel $LN48+6
	DD	imagerel $LN48+22
	DD	imagerel $chain$0$??4PhiveData@Actor@@QEAAAEAU01@AEBU01@@Z
xdata	ENDS
;	COMDAT xdata
xdata	SEGMENT
$chain$1$??4PhiveData@Actor@@QEAAAEAU01@AEBU01@@Z DD 020521H
	DD	063405H
	DD	imagerel $LN48+6
	DD	imagerel $LN48+22
	DD	imagerel $chain$0$??4PhiveData@Actor@@QEAAAEAU01@AEBU01@@Z
xdata	ENDS
;	COMDAT xdata
xdata	SEGMENT
$chain$0$??4PhiveData@Actor@@QEAAAEAU01@AEBU01@@Z DD 020521H
	DD	076405H
	DD	imagerel $LN48
	DD	imagerel $LN48+6
	DD	imagerel $unwind$??4PhiveData@Actor@@QEAAAEAU01@AEBU01@@Z
xdata	ENDS
;	COMDAT xdata
xdata	SEGMENT
$unwind$??4PhiveData@Actor@@QEAAAEAU01@AEBU01@@Z DD 020601H
	DD	070023206H
xdata	ENDS
;	COMDAT xdata
xdata	SEGMENT
$unwind$??4ConstraintLinkData@PhiveData@Actor@@QEAAAEAU012@AEBU012@@Z DD 040a01H
	DD	06340aH
	DD	07006320aH
xdata	ENDS
;	COMDAT xdata
xdata	SEGMENT
$unwind$??4RopeLinkData@PhiveData@Actor@@QEAAAEAU012@AEBU012@@Z DD 040a01H
	DD	06340aH
	DD	07006320aH
xdata	ENDS
;	COMDAT xdata
xdata	SEGMENT
$unwind$?<lambda_invoker_cdecl>@<lambda_3>@?DF@??DrawToolsWindow@UITools@@YAXXZ@SA@_KMMMG@Z DD 010401H
	DD	06204H
xdata	ENDS
;	COMDAT xdata
xdata	SEGMENT
$unwind$??4?$vector@UActor@@V?$allocator@UActor@@@std@@@std@@QEAAAEAV01@AEBV01@@Z DD 020601H
	DD	030023206H
xdata	ENDS
;	COMDAT xdata
xdata	SEGMENT
$chain$1$??4?$map@V?$basic_string@DU?$char_traits@D@std@@V?$allocator@D@2@@std@@UDynamicData@Actor@@U?$less@V?$basic_string@DU?$char_traits@D@std@@V?$allocator@D@2@@std@@@2@V?$allocator@U?$pair@$$CBV?$basic_string@DU?$char_traits@D@std@@V?$allocator@D@2@@std@@UDynamicData@Actor@@@std@@@2@@std@@QEAAAEAV01@AEBV01@@Z DD 021H
	DD	imagerel $LN12
	DD	imagerel $LN12+21
	DD	imagerel $unwind$??4?$map@V?$basic_string@DU?$char_traits@D@std@@V?$allocator@D@2@@std@@UDynamicData@Actor@@U?$less@V?$basic_string@DU?$char_traits@D@std@@V?$allocator@D@2@@std@@@2@V?$allocator@U?$pair@$$CBV?$basic_string@DU?$char_traits@D@std@@V?$allocator@D@2@@std@@UDynamicData@Actor@@@std@@@2@@std@@QEAAAEAV01@AEBV01@@Z
xdata	ENDS
;	COMDAT xdata
xdata	SEGMENT
$chain$0$??4?$map@V?$basic_string@DU?$char_traits@D@std@@V?$allocator@D@2@@std@@UDynamicData@Actor@@U?$less@V?$basic_string@DU?$char_traits@D@std@@V?$allocator@D@2@@std@@@2@V?$allocator@U?$pair@$$CBV?$basic_string@DU?$char_traits@D@std@@V?$allocator@D@2@@std@@UDynamicData@Actor@@@std@@@2@@std@@QEAAAEAV01@AEBV01@@Z DD 020521H
	DD	063405H
	DD	imagerel $LN12
	DD	imagerel $LN12+21
	DD	imagerel $unwind$??4?$map@V?$basic_string@DU?$char_traits@D@std@@V?$allocator@D@2@@std@@UDynamicData@Actor@@U?$less@V?$basic_string@DU?$char_traits@D@std@@V?$allocator@D@2@@std@@@2@V?$allocator@U?$pair@$$CBV?$basic_string@DU?$char_traits@D@std@@V?$allocator@D@2@@std@@UDynamicData@Actor@@@std@@@2@@std@@QEAAAEAV01@AEBV01@@Z
xdata	ENDS
;	COMDAT xdata
xdata	SEGMENT
$unwind$??4?$map@V?$basic_string@DU?$char_traits@D@std@@V?$allocator@D@2@@std@@UDynamicData@Actor@@U?$less@V?$basic_string@DU?$char_traits@D@std@@V?$allocator@D@2@@std@@@2@V?$allocator@U?$pair@$$CBV?$basic_string@DU?$char_traits@D@std@@V?$allocator@D@2@@std@@UDynamicData@Actor@@@std@@@2@@std@@QEAAAEAV01@AEBV01@@Z DD 040a01H
	DD	07640aH
	DD	07006320aH
xdata	ENDS
;	COMDAT xdata
xdata	SEGMENT
$unwind$??4?$vector@URail@Actor@@V?$allocator@URail@Actor@@@std@@@std@@QEAAAEAV01@AEBV01@@Z DD 020601H
	DD	030023206H
xdata	ENDS
;	COMDAT xdata
xdata	SEGMENT
$unwind$??4?$vector@ULink@Actor@@V?$allocator@ULink@Actor@@@std@@@std@@QEAAAEAV01@AEBV01@@Z DD 020601H
	DD	030023206H
xdata	ENDS
;	COMDAT xdata
xdata	SEGMENT
$unwind$??4?$vector@URailData@PhiveData@Actor@@V?$allocator@URailData@PhiveData@Actor@@@std@@@std@@QEAAAEAV01@AEBV01@@Z DD 020601H
	DD	030023206H
xdata	ENDS
;	COMDAT xdata
xdata	SEGMENT
$unwind$??4?$vector@_KV?$allocator@_K@std@@@std@@QEAAAEAV01@AEBV01@@Z DD 020601H
	DD	030023206H
xdata	ENDS
;	COMDAT xdata
xdata	SEGMENT
$unwind$??4?$vector@UReferData@ConstraintLinkData@PhiveData@Actor@@V?$allocator@UReferData@ConstraintLinkData@PhiveData@Actor@@@std@@@std@@QEAAAEAV01@AEBV01@@Z DD 020601H
	DD	030023206H
xdata	ENDS
;	COMDAT xdata
xdata	SEGMENT
$unwind$??4?$vector@UOwnerData@ConstraintLinkData@PhiveData@Actor@@V?$allocator@UOwnerData@ConstraintLinkData@PhiveData@Actor@@@std@@@std@@QEAAAEAV01@AEBV01@@Z DD 020601H
	DD	030023206H
xdata	ENDS
;	COMDAT xdata
xdata	SEGMENT
$chain$1$??4?$map@V?$basic_string@DU?$char_traits@D@std@@V?$allocator@D@2@@std@@V12@U?$less@V?$basic_string@DU?$char_traits@D@std@@V?$allocator@D@2@@std@@@2@V?$allocator@U?$pair@$$CBV?$basic_string@DU?$char_traits@D@std@@V?$allocator@D@2@@std@@V12@@std@@@2@@std@@QEAAAEAV01@AEBV01@@Z DD 021H
	DD	imagerel $LN12
	DD	imagerel $LN12+21
	DD	imagerel $unwind$??4?$map@V?$basic_string@DU?$char_traits@D@std@@V?$allocator@D@2@@std@@V12@U?$less@V?$basic_string@DU?$char_traits@D@std@@V?$allocator@D@2@@std@@@2@V?$allocator@U?$pair@$$CBV?$basic_string@DU?$char_traits@D@std@@V?$allocator@D@2@@std@@V12@@std@@@2@@std@@QEAAAEAV01@AEBV01@@Z
xdata	ENDS
;	COMDAT xdata
xdata	SEGMENT
$chain$0$??4?$map@V?$basic_string@DU?$char_traits@D@std@@V?$allocator@D@2@@std@@V12@U?$less@V?$basic_string@DU?$char_traits@D@std@@V?$allocator@D@2@@std@@@2@V?$allocator@U?$pair@$$CBV?$basic_string@DU?$char_traits@D@std@@V?$allocator@D@2@@std@@V12@@std@@@2@@std@@QEAAAEAV01@AEBV01@@Z DD 020521H
	DD	063405H
	DD	imagerel $LN12
	DD	imagerel $LN12+21
	DD	imagerel $unwind$??4?$map@V?$basic_string@DU?$char_traits@D@std@@V?$allocator@D@2@@std@@V12@U?$less@V?$basic_string@DU?$char_traits@D@std@@V?$allocator@D@2@@std@@@2@V?$allocator@U?$pair@$$CBV?$basic_string@DU?$char_traits@D@std@@V?$allocator@D@2@@std@@V12@@std@@@2@@std@@QEAAAEAV01@AEBV01@@Z
xdata	ENDS
;	COMDAT xdata
xdata	SEGMENT
$unwind$??4?$map@V?$basic_string@DU?$char_traits@D@std@@V?$allocator@D@2@@std@@V12@U?$less@V?$basic_string@DU?$char_traits@D@std@@V?$allocator@D@2@@std@@@2@V?$allocator@U?$pair@$$CBV?$basic_string@DU?$char_traits@D@std@@V?$allocator@D@2@@std@@V12@@std@@@2@@std@@QEAAAEAV01@AEBV01@@Z DD 040a01H
	DD	07640aH
	DD	07006320aH
xdata	ENDS
;	COMDAT xdata
xdata	SEGMENT
$chain$1$??4?$_Tree@V?$_Tmap_traits@V?$basic_string@DU?$char_traits@D@std@@V?$allocator@D@2@@std@@UDynamicData@Actor@@U?$less@V?$basic_string@DU?$char_traits@D@std@@V?$allocator@D@2@@std@@@2@V?$allocator@U?$pair@$$CBV?$basic_string@DU?$char_traits@D@std@@V?$allocator@D@2@@std@@UDynamicData@Actor@@@std@@@2@$0A@@std@@@std@@QEAAAEAV01@AEBV01@@Z DD 021H
	DD	imagerel $LN10
	DD	imagerel $LN10+21
	DD	imagerel $unwind$??4?$_Tree@V?$_Tmap_traits@V?$basic_string@DU?$char_traits@D@std@@V?$allocator@D@2@@std@@UDynamicData@Actor@@U?$less@V?$basic_string@DU?$char_traits@D@std@@V?$allocator@D@2@@std@@@2@V?$allocator@U?$pair@$$CBV?$basic_string@DU?$char_traits@D@std@@V?$allocator@D@2@@std@@UDynamicData@Actor@@@std@@@2@$0A@@std@@@std@@QEAAAEAV01@AEBV01@@Z
xdata	ENDS
;	COMDAT xdata
xdata	SEGMENT
$chain$0$??4?$_Tree@V?$_Tmap_traits@V?$basic_string@DU?$char_traits@D@std@@V?$allocator@D@2@@std@@UDynamicData@Actor@@U?$less@V?$basic_string@DU?$char_traits@D@std@@V?$allocator@D@2@@std@@@2@V?$allocator@U?$pair@$$CBV?$basic_string@DU?$char_traits@D@std@@V?$allocator@D@2@@std@@UDynamicData@Actor@@@std@@@2@$0A@@std@@@std@@QEAAAEAV01@AEBV01@@Z DD 020521H
	DD	063405H
	DD	imagerel $LN10
	DD	imagerel $LN10+21
	DD	imagerel $unwind$??4?$_Tree@V?$_Tmap_traits@V?$basic_string@DU?$char_traits@D@std@@V?$allocator@D@2@@std@@UDynamicData@Actor@@U?$less@V?$basic_string@DU?$char_traits@D@std@@V?$allocator@D@2@@std@@@2@V?$allocator@U?$pair@$$CBV?$basic_string@DU?$char_traits@D@std@@V?$allocator@D@2@@std@@UDynamicData@Actor@@@std@@@2@$0A@@std@@@std@@QEAAAEAV01@AEBV01@@Z
xdata	ENDS
;	COMDAT xdata
xdata	SEGMENT
$unwind$??4?$_Tree@V?$_Tmap_traits@V?$basic_string@DU?$char_traits@D@std@@V?$allocator@D@2@@std@@UDynamicData@Actor@@U?$less@V?$basic_string@DU?$char_traits@D@std@@V?$allocator@D@2@@std@@@2@V?$allocator@U?$pair@$$CBV?$basic_string@DU?$char_traits@D@std@@V?$allocator@D@2@@std@@UDynamicData@Actor@@@std@@@2@$0A@@std@@@std@@QEAAAEAV01@AEBV01@@Z DD 040a01H
	DD	07640aH
	DD	07006320aH
xdata	ENDS
;	COMDAT xdata
xdata	SEGMENT
$chain$1$??4?$_Tree@V?$_Tmap_traits@V?$basic_string@DU?$char_traits@D@std@@V?$allocator@D@2@@std@@V12@U?$less@V?$basic_string@DU?$char_traits@D@std@@V?$allocator@D@2@@std@@@2@V?$allocator@U?$pair@$$CBV?$basic_string@DU?$char_traits@D@std@@V?$allocator@D@2@@std@@V12@@std@@@2@$0A@@std@@@std@@QEAAAEAV01@AEBV01@@Z DD 021H
	DD	imagerel $LN10
	DD	imagerel $LN10+21
	DD	imagerel $unwind$??4?$_Tree@V?$_Tmap_traits@V?$basic_string@DU?$char_traits@D@std@@V?$allocator@D@2@@std@@V12@U?$less@V?$basic_string@DU?$char_traits@D@std@@V?$allocator@D@2@@std@@@2@V?$allocator@U?$pair@$$CBV?$basic_string@DU?$char_traits@D@std@@V?$allocator@D@2@@std@@V12@@std@@@2@$0A@@std@@@std@@QEAAAEAV01@AEBV01@@Z
xdata	ENDS
;	COMDAT xdata
xdata	SEGMENT
$chain$0$??4?$_Tree@V?$_Tmap_traits@V?$basic_string@DU?$char_traits@D@std@@V?$allocator@D@2@@std@@V12@U?$less@V?$basic_string@DU?$char_traits@D@std@@V?$allocator@D@2@@std@@@2@V?$allocator@U?$pair@$$CBV?$basic_string@DU?$char_traits@D@std@@V?$allocator@D@2@@std@@V12@@std@@@2@$0A@@std@@@std@@QEAAAEAV01@AEBV01@@Z DD 020521H
	DD	063405H
	DD	imagerel $LN10
	DD	imagerel $LN10+21
	DD	imagerel $unwind$??4?$_Tree@V?$_Tmap_traits@V?$basic_string@DU?$char_traits@D@std@@V?$allocator@D@2@@std@@V12@U?$less@V?$basic_string@DU?$char_traits@D@std@@V?$allocator@D@2@@std@@@2@V?$allocator@U?$pair@$$CBV?$basic_string@DU?$char_traits@D@std@@V?$allocator@D@2@@std@@V12@@std@@@2@$0A@@std@@@std@@QEAAAEAV01@AEBV01@@Z
xdata	ENDS
;	COMDAT xdata
xdata	SEGMENT
$unwind$??4?$_Tree@V?$_Tmap_traits@V?$basic_string@DU?$char_traits@D@std@@V?$allocator@D@2@@std@@V12@U?$less@V?$basic_string@DU?$char_traits@D@std@@V?$allocator@D@2@@std@@@2@V?$allocator@U?$pair@$$CBV?$basic_string@DU?$char_traits@D@std@@V?$allocator@D@2@@std@@V12@@std@@@2@$0A@@std@@@std@@QEAAAEAV01@AEBV01@@Z DD 040a01H
	DD	07640aH
	DD	07006320aH
xdata	ENDS
;	COMDAT xdata
xdata	SEGMENT
$chain$4$??$_Assign_counted_range@PEAUActor@@@?$vector@UActor@@V?$allocator@UActor@@@std@@@std@@AEAAXPEAUActor@@_K@Z DD 020021H
	DD	04f400H
	DD	imagerel $LN344
	DD	imagerel $LN344+59
	DD	imagerel $unwind$??$_Assign_counted_range@PEAUActor@@@?$vector@UActor@@V?$allocator@UActor@@@std@@@std@@AEAAXPEAUActor@@_K@Z
xdata	ENDS
;	COMDAT xdata
xdata	SEGMENT
$chain$3$??$_Assign_counted_range@PEAUActor@@@?$vector@UActor@@V?$allocator@UActor@@@std@@@std@@AEAAXPEAUActor@@_K@Z DD 021H
	DD	imagerel $LN344
	DD	imagerel $LN344+59
	DD	imagerel $unwind$??$_Assign_counted_range@PEAUActor@@@?$vector@UActor@@V?$allocator@UActor@@@std@@@std@@AEAAXPEAUActor@@_K@Z
xdata	ENDS
;	COMDAT xdata
xdata	SEGMENT
$chain$2$??$_Assign_counted_range@PEAUActor@@@?$vector@UActor@@V?$allocator@UActor@@@std@@@std@@AEAAXPEAUActor@@_K@Z DD 020021H
	DD	04f400H
	DD	imagerel $LN344
	DD	imagerel $LN344+59
	DD	imagerel $unwind$??$_Assign_counted_range@PEAUActor@@@?$vector@UActor@@V?$allocator@UActor@@@std@@@std@@AEAAXPEAUActor@@_K@Z
xdata	ENDS
;	COMDAT xdata
xdata	SEGMENT
$chain$0$??$_Assign_counted_range@PEAUActor@@@?$vector@UActor@@V?$allocator@UActor@@@std@@@std@@AEAAXPEAUActor@@_K@Z DD 020521H
	DD	04f405H
	DD	imagerel $LN344
	DD	imagerel $LN344+59
	DD	imagerel $unwind$??$_Assign_counted_range@PEAUActor@@@?$vector@UActor@@V?$allocator@UActor@@@std@@@std@@AEAAXPEAUActor@@_K@Z
xdata	ENDS
;	COMDAT xdata
xdata	SEGMENT
$unwind$??$_Assign_counted_range@PEAUActor@@@?$vector@UActor@@V?$allocator@UActor@@@std@@@std@@AEAAXPEAUActor@@_K@Z DD 070d01H
	DD	0e009420dH
	DD	07005c007H
	DD	050036004H
	DD	03002H
xdata	ENDS
;	COMDAT xdata
xdata	SEGMENT
$chain$1$??$_Assign_counted_range@PEAURail@Actor@@@?$vector@URail@Actor@@V?$allocator@URail@Actor@@@std@@@std@@AEAAXPEAURail@Actor@@_K@Z DD 021H
	DD	imagerel $LN169
	DD	imagerel $LN169+309
	DD	imagerel $unwind$??$_Assign_counted_range@PEAURail@Actor@@@?$vector@URail@Actor@@V?$allocator@URail@Actor@@@std@@@std@@AEAAXPEAURail@Actor@@_K@Z
xdata	ENDS
;	COMDAT xdata
xdata	SEGMENT
$chain$0$??$_Assign_counted_range@PEAURail@Actor@@@?$vector@URail@Actor@@V?$allocator@URail@Actor@@@std@@@std@@AEAAXPEAURail@Actor@@_K@Z DD 020521H
	DD	0fc405H
	DD	imagerel $LN169
	DD	imagerel $LN169+309
	DD	imagerel $unwind$??$_Assign_counted_range@PEAURail@Actor@@@?$vector@URail@Actor@@V?$allocator@URail@Actor@@@std@@@std@@AEAAXPEAURail@Actor@@_K@Z
xdata	ENDS
;	COMDAT xdata
xdata	SEGMENT
$unwind$??$_Assign_counted_range@PEAURail@Actor@@@?$vector@URail@Actor@@V?$allocator@URail@Actor@@@std@@@std@@AEAAXPEAURail@Actor@@_K@Z DD 080f01H
	DD	0f00b320fH
	DD	0d007e009H
	DD	060047005H
	DD	030025003H
xdata	ENDS
;	COMDAT xdata
xdata	SEGMENT
$chain$4$??$_Assign_counted_range@PEAULink@Actor@@@?$vector@ULink@Actor@@V?$allocator@ULink@Actor@@@std@@@std@@AEAAXPEAULink@Actor@@_K@Z DD 020021H
	DD	04c400H
	DD	imagerel $LN146
	DD	imagerel $LN146+59
	DD	imagerel $unwind$??$_Assign_counted_range@PEAULink@Actor@@@?$vector@ULink@Actor@@V?$allocator@ULink@Actor@@@std@@@std@@AEAAXPEAULink@Actor@@_K@Z
xdata	ENDS
;	COMDAT xdata
xdata	SEGMENT
$chain$3$??$_Assign_counted_range@PEAULink@Actor@@@?$vector@ULink@Actor@@V?$allocator@ULink@Actor@@@std@@@std@@AEAAXPEAULink@Actor@@_K@Z DD 021H
	DD	imagerel $LN146
	DD	imagerel $LN146+59
	DD	imagerel $unwind$??$_Assign_counted_range@PEAULink@Actor@@@?$vector@ULink@Actor@@V?$allocator@ULink@Actor@@@std@@@std@@AEAAXPEAULink@Actor@@_K@Z
xdata	ENDS
;	COMDAT xdata
xdata	SEGMENT
$chain$2$??$_Assign_counted_range@PEAULink@Actor@@@?$vector@ULink@Actor@@V?$allocator@ULink@Actor@@@std@@@std@@AEAAXPEAULink@Actor@@_K@Z DD 020021H
	DD	04c400H
	DD	imagerel $LN146
	DD	imagerel $LN146+59
	DD	imagerel $unwind$??$_Assign_counted_range@PEAULink@Actor@@@?$vector@ULink@Actor@@V?$allocator@ULink@Actor@@@std@@@std@@AEAAXPEAULink@Actor@@_K@Z
xdata	ENDS
;	COMDAT xdata
xdata	SEGMENT
$chain$0$??$_Assign_counted_range@PEAULink@Actor@@@?$vector@ULink@Actor@@V?$allocator@ULink@Actor@@@std@@@std@@AEAAXPEAULink@Actor@@_K@Z DD 020521H
	DD	04c405H
	DD	imagerel $LN146
	DD	imagerel $LN146+59
	DD	imagerel $unwind$??$_Assign_counted_range@PEAULink@Actor@@@?$vector@ULink@Actor@@V?$allocator@ULink@Actor@@@std@@@std@@AEAAXPEAULink@Actor@@_K@Z
xdata	ENDS
;	COMDAT xdata
xdata	SEGMENT
$unwind$??$_Assign_counted_range@PEAULink@Actor@@@?$vector@ULink@Actor@@V?$allocator@ULink@Actor@@@std@@@std@@AEAAXPEAULink@Actor@@_K@Z DD 070d01H
	DD	0f009420dH
	DD	07005e007H
	DD	050036004H
	DD	03002H
xdata	ENDS
;	COMDAT xdata
xdata	SEGMENT
$chain$1$??$_Assign_counted_range@PEAURailData@PhiveData@Actor@@@?$vector@URailData@PhiveData@Actor@@V?$allocator@URailData@PhiveData@Actor@@@std@@@std@@AEAAXPEAURailData@PhiveData@Actor@@_K@Z DD 021H
	DD	imagerel $LN137
	DD	imagerel $LN137+385
	DD	imagerel $unwind$??$_Assign_counted_range@PEAURailData@PhiveData@Actor@@@?$vector@URailData@PhiveData@Actor@@V?$allocator@URailData@PhiveData@Actor@@@std@@@std@@AEAAXPEAURailData@PhiveData@Actor@@_K@Z
xdata	ENDS
;	COMDAT xdata
xdata	SEGMENT
$chain$0$??$_Assign_counted_range@PEAURailData@PhiveData@Actor@@@?$vector@URailData@PhiveData@Actor@@V?$allocator@URailData@PhiveData@Actor@@@std@@@std@@AEAAXPEAURailData@PhiveData@Actor@@_K@Z DD 020521H
	DD	04c405H
	DD	imagerel $LN137
	DD	imagerel $LN137+385
	DD	imagerel $unwind$??$_Assign_counted_range@PEAURailData@PhiveData@Actor@@@?$vector@URailData@PhiveData@Actor@@V?$allocator@URailData@PhiveData@Actor@@@std@@@std@@AEAAXPEAURailData@PhiveData@Actor@@_K@Z
xdata	ENDS
;	COMDAT xdata
xdata	SEGMENT
$unwind$??$_Assign_counted_range@PEAURailData@PhiveData@Actor@@@?$vector@URailData@PhiveData@Actor@@V?$allocator@URailData@PhiveData@Actor@@@std@@@std@@AEAAXPEAURailData@PhiveData@Actor@@_K@Z DD 070d01H
	DD	0f009420dH
	DD	07005e007H
	DD	050036004H
	DD	03002H
xdata	ENDS
;	COMDAT xdata
xdata	SEGMENT
$chain$3$??$_Assign_counted_range@PEA_K@?$vector@_KV?$allocator@_K@std@@@std@@AEAAXPEA_K_K@Z DD 021H
	DD	imagerel $LN122
	DD	imagerel $LN122+230
	DD	imagerel $unwind$??$_Assign_counted_range@PEA_K@?$vector@_KV?$allocator@_K@std@@@std@@AEAAXPEA_K_K@Z
xdata	ENDS
;	COMDAT xdata
xdata	SEGMENT
$chain$2$??$_Assign_counted_range@PEA_K@?$vector@_KV?$allocator@_K@std@@@std@@AEAAXPEA_K_K@Z DD 020021H
	DD	0d6400H
	DD	imagerel $LN122
	DD	imagerel $LN122+230
	DD	imagerel $unwind$??$_Assign_counted_range@PEA_K@?$vector@_KV?$allocator@_K@std@@@std@@AEAAXPEA_K_K@Z
xdata	ENDS
;	COMDAT xdata
xdata	SEGMENT
$chain$0$??$_Assign_counted_range@PEA_K@?$vector@_KV?$allocator@_K@std@@@std@@AEAAXPEA_K_K@Z DD 020521H
	DD	0d6405H
	DD	imagerel $LN122
	DD	imagerel $LN122+230
	DD	imagerel $unwind$??$_Assign_counted_range@PEA_K@?$vector@_KV?$allocator@_K@std@@@std@@AEAAXPEA_K_K@Z
xdata	ENDS
;	COMDAT xdata
xdata	SEGMENT
$unwind$??$_Assign_counted_range@PEA_K@?$vector@_KV?$allocator@_K@std@@@std@@AEAAXPEA_K_K@Z DD 060c01H
	DD	0f008320cH
	DD	07004e006H
	DD	030025003H
xdata	ENDS
;	COMDAT xdata
xdata	SEGMENT
$chain$1$??$_Assign_counted_range@PEAUReferData@ConstraintLinkData@PhiveData@Actor@@@?$vector@UReferData@ConstraintLinkData@PhiveData@Actor@@V?$allocator@UReferData@ConstraintLinkData@PhiveData@Actor@@@std@@@std@@AEAAXPEAUReferData@ConstraintLinkData@PhiveData@Actor@@_K@Z DD 021H
	DD	imagerel $LN142
	DD	imagerel $LN142+300
	DD	imagerel $unwind$??$_Assign_counted_range@PEAUReferData@ConstraintLinkData@PhiveData@Actor@@@?$vector@UReferData@ConstraintLinkData@PhiveData@Actor@@V?$allocator@UReferData@ConstraintLinkData@PhiveData@Actor@@@std@@@std@@AEAAXPEAUReferData@ConstraintLinkData@PhiveData@Actor@@_K@Z
xdata	ENDS
;	COMDAT xdata
xdata	SEGMENT
$chain$0$??$_Assign_counted_range@PEAUReferData@ConstraintLinkData@PhiveData@Actor@@@?$vector@UReferData@ConstraintLinkData@PhiveData@Actor@@V?$allocator@UReferData@ConstraintLinkData@PhiveData@Actor@@@std@@@std@@AEAAXPEAUReferData@ConstraintLinkData@PhiveData@Actor@@_K@Z DD 020521H
	DD	0fc405H
	DD	imagerel $LN142
	DD	imagerel $LN142+300
	DD	imagerel $unwind$??$_Assign_counted_range@PEAUReferData@ConstraintLinkData@PhiveData@Actor@@@?$vector@UReferData@ConstraintLinkData@PhiveData@Actor@@V?$allocator@UReferData@ConstraintLinkData@PhiveData@Actor@@@std@@@std@@AEAAXPEAUReferData@ConstraintLinkData@PhiveData@Actor@@_K@Z
xdata	ENDS
;	COMDAT xdata
xdata	SEGMENT
$unwind$??$_Assign_counted_range@PEAUReferData@ConstraintLinkData@PhiveData@Actor@@@?$vector@UReferData@ConstraintLinkData@PhiveData@Actor@@V?$allocator@UReferData@ConstraintLinkData@PhiveData@Actor@@@std@@@std@@AEAAXPEAUReferData@ConstraintLinkData@PhiveData@Actor@@_K@Z DD 080f01H
	DD	0f00b320fH
	DD	0d007e009H
	DD	060047005H
	DD	030025003H
xdata	ENDS
;	COMDAT xdata
xdata	SEGMENT
$chain$4$??$_Assign_counted_range@PEAUOwnerData@ConstraintLinkData@PhiveData@Actor@@@?$vector@UOwnerData@ConstraintLinkData@PhiveData@Actor@@V?$allocator@UOwnerData@ConstraintLinkData@PhiveData@Actor@@@std@@@std@@AEAAXPEAUOwnerData@ConstraintLinkData@PhiveData@Actor@@_K@Z DD 020021H
	DD	04f400H
	DD	imagerel $LN94
	DD	imagerel $LN94+59
	DD	imagerel $unwind$??$_Assign_counted_range@PEAUOwnerData@ConstraintLinkData@PhiveData@Actor@@@?$vector@UOwnerData@ConstraintLinkData@PhiveData@Actor@@V?$allocator@UOwnerData@ConstraintLinkData@PhiveData@Actor@@@std@@@std@@AEAAXPEAUOwnerData@ConstraintLinkData@PhiveData@Actor@@_K@Z
xdata	ENDS
;	COMDAT xdata
xdata	SEGMENT
$chain$3$??$_Assign_counted_range@PEAUOwnerData@ConstraintLinkData@PhiveData@Actor@@@?$vector@UOwnerData@ConstraintLinkData@PhiveData@Actor@@V?$allocator@UOwnerData@ConstraintLinkData@PhiveData@Actor@@@std@@@std@@AEAAXPEAUOwnerData@ConstraintLinkData@PhiveData@Actor@@_K@Z DD 021H
	DD	imagerel $LN94
	DD	imagerel $LN94+59
	DD	imagerel $unwind$??$_Assign_counted_range@PEAUOwnerData@ConstraintLinkData@PhiveData@Actor@@@?$vector@UOwnerData@ConstraintLinkData@PhiveData@Actor@@V?$allocator@UOwnerData@ConstraintLinkData@PhiveData@Actor@@@std@@@std@@AEAAXPEAUOwnerData@ConstraintLinkData@PhiveData@Actor@@_K@Z
xdata	ENDS
;	COMDAT xdata
xdata	SEGMENT
$chain$2$??$_Assign_counted_range@PEAUOwnerData@ConstraintLinkData@PhiveData@Actor@@@?$vector@UOwnerData@ConstraintLinkData@PhiveData@Actor@@V?$allocator@UOwnerData@ConstraintLinkData@PhiveData@Actor@@@std@@@std@@AEAAXPEAUOwnerData@ConstraintLinkData@PhiveData@Actor@@_K@Z DD 020021H
	DD	04f400H
	DD	imagerel $LN94
	DD	imagerel $LN94+59
	DD	imagerel $unwind$??$_Assign_counted_range@PEAUOwnerData@ConstraintLinkData@PhiveData@Actor@@@?$vector@UOwnerData@ConstraintLinkData@PhiveData@Actor@@V?$allocator@UOwnerData@ConstraintLinkData@PhiveData@Actor@@@std@@@std@@AEAAXPEAUOwnerData@ConstraintLinkData@PhiveData@Actor@@_K@Z
xdata	ENDS
;	COMDAT xdata
xdata	SEGMENT
$chain$0$??$_Assign_counted_range@PEAUOwnerData@ConstraintLinkData@PhiveData@Actor@@@?$vector@UOwnerData@ConstraintLinkData@PhiveData@Actor@@V?$allocator@UOwnerData@ConstraintLinkData@PhiveData@Actor@@@std@@@std@@AEAAXPEAUOwnerData@ConstraintLinkData@PhiveData@Actor@@_K@Z DD 020521H
	DD	04f405H
	DD	imagerel $LN94
	DD	imagerel $LN94+59
	DD	imagerel $unwind$??$_Assign_counted_range@PEAUOwnerData@ConstraintLinkData@PhiveData@Actor@@@?$vector@UOwnerData@ConstraintLinkData@PhiveData@Actor@@V?$allocator@UOwnerData@ConstraintLinkData@PhiveData@Actor@@@std@@@std@@AEAAXPEAUOwnerData@ConstraintLinkData@PhiveData@Actor@@_K@Z
xdata	ENDS
;	COMDAT xdata
xdata	SEGMENT
$unwind$??$_Assign_counted_range@PEAUOwnerData@ConstraintLinkData@PhiveData@Actor@@@?$vector@UOwnerData@ConstraintLinkData@PhiveData@Actor@@V?$allocator@UOwnerData@ConstraintLinkData@PhiveData@Actor@@@std@@@std@@AEAAXPEAUOwnerData@ConstraintLinkData@PhiveData@Actor@@_K@Z DD 070d01H
	DD	0e009420dH
	DD	07005c007H
	DD	050036004H
	DD	03002H
xdata	ENDS
;	COMDAT xdata
xdata	SEGMENT
$unwind$??4Rail@Actor@@QEAAAEAU01@AEBU01@@Z DD 040a01H
	DD	06340aH
	DD	07006320aH
xdata	ENDS
;	COMDAT xdata
xdata	SEGMENT
$unwind$??4Link@Actor@@QEAAAEAU01@AEBU01@@Z DD 040a01H
	DD	06340aH
	DD	07006320aH
xdata	ENDS
;	COMDAT xdata
xdata	SEGMENT
$unwind$??4RailData@PhiveData@Actor@@QEAAAEAU012@AEBU012@@Z DD 040a01H
	DD	06340aH
	DD	07006320aH
xdata	ENDS
;	COMDAT xdata
xdata	SEGMENT
$unwind$??4ReferData@ConstraintLinkData@PhiveData@Actor@@QEAAAEAU0123@AEBU0123@@Z DD 020601H
	DD	030023206H
xdata	ENDS
;	COMDAT xdata
xdata	SEGMENT
$chain$1$??4OwnerData@ConstraintLinkData@PhiveData@Actor@@QEAAAEAU0123@AEBU0123@@Z DD 021H
	DD	imagerel $LN48
	DD	imagerel $LN48+21
	DD	imagerel $unwind$??4OwnerData@ConstraintLinkData@PhiveData@Actor@@QEAAAEAU0123@AEBU0123@@Z
xdata	ENDS
;	COMDAT xdata
xdata	SEGMENT
$chain$0$??4OwnerData@ConstraintLinkData@PhiveData@Actor@@QEAAAEAU0123@AEBU0123@@Z DD 020521H
	DD	08e405H
	DD	imagerel $LN48
	DD	imagerel $LN48+21
	DD	imagerel $unwind$??4OwnerData@ConstraintLinkData@PhiveData@Actor@@QEAAAEAU0123@AEBU0123@@Z
xdata	ENDS
;	COMDAT xdata
xdata	SEGMENT
$unwind$??4OwnerData@ConstraintLinkData@PhiveData@Actor@@QEAAAEAU0123@AEBU0123@@Z DD 081201H
	DD	0a5412H
	DD	093412H
	DD	0f00e3212H
	DD	0600b700cH
xdata	ENDS
;	COMDAT xdata
xdata	SEGMENT
$chain$6$?_Clear_and_reserve_geometric@?$vector@UActor@@V?$allocator@UActor@@@std@@@std@@AEAAX_K@Z DD 021H
	DD	imagerel $LN223
	DD	imagerel $LN223+29
	DD	imagerel $unwind$?_Clear_and_reserve_geometric@?$vector@UActor@@V?$allocator@UActor@@@std@@@std@@AEAAX_K@Z
xdata	ENDS
;	COMDAT xdata
xdata	SEGMENT
$chain$5$?_Clear_and_reserve_geometric@?$vector@UActor@@V?$allocator@UActor@@@std@@@std@@AEAAX_K@Z DD 040021H
	DD	04e400H
	DD	0a3400H
	DD	imagerel $LN223
	DD	imagerel $LN223+29
	DD	imagerel $unwind$?_Clear_and_reserve_geometric@?$vector@UActor@@V?$allocator@UActor@@@std@@@std@@AEAAX_K@Z
xdata	ENDS
;	COMDAT xdata
xdata	SEGMENT
$chain$3$?_Clear_and_reserve_geometric@?$vector@UActor@@V?$allocator@UActor@@@std@@@std@@AEAAX_K@Z DD 021H
	DD	imagerel $LN223+29
	DD	imagerel $LN223+100
	DD	imagerel $chain$1$?_Clear_and_reserve_geometric@?$vector@UActor@@V?$allocator@UActor@@@std@@@std@@AEAAX_K@Z
xdata	ENDS
;	COMDAT xdata
xdata	SEGMENT
$chain$2$?_Clear_and_reserve_geometric@?$vector@UActor@@V?$allocator@UActor@@@std@@@std@@AEAAX_K@Z DD 020521H
	DD	0b6405H
	DD	imagerel $LN223+29
	DD	imagerel $LN223+100
	DD	imagerel $chain$1$?_Clear_and_reserve_geometric@?$vector@UActor@@V?$allocator@UActor@@@std@@@std@@AEAAX_K@Z
xdata	ENDS
;	COMDAT xdata
xdata	SEGMENT
$chain$1$?_Clear_and_reserve_geometric@?$vector@UActor@@V?$allocator@UActor@@@std@@@std@@AEAAX_K@Z DD 041721H
	DD	04e417H
	DD	0a3405H
	DD	imagerel $LN223
	DD	imagerel $LN223+29
	DD	imagerel $unwind$?_Clear_and_reserve_geometric@?$vector@UActor@@V?$allocator@UActor@@@std@@@std@@AEAAX_K@Z
xdata	ENDS
;	COMDAT xdata
xdata	SEGMENT
$unwind$?_Clear_and_reserve_geometric@?$vector@UActor@@V?$allocator@UActor@@@std@@@std@@AEAAX_K@Z DD 030701H
	DD	070034207H
	DD	05002H
xdata	ENDS
;	COMDAT xdata
xdata	SEGMENT
$chain$6$?_Clear_and_reserve_geometric@?$vector@URail@Actor@@V?$allocator@URail@Actor@@@std@@@std@@AEAAX_K@Z DD 021H
	DD	imagerel $LN70
	DD	imagerel $LN70+29
	DD	imagerel $unwind$?_Clear_and_reserve_geometric@?$vector@URail@Actor@@V?$allocator@URail@Actor@@@std@@@std@@AEAAX_K@Z
xdata	ENDS
;	COMDAT xdata
xdata	SEGMENT
$chain$5$?_Clear_and_reserve_geometric@?$vector@URail@Actor@@V?$allocator@URail@Actor@@@std@@@std@@AEAAX_K@Z DD 040021H
	DD	04e400H
	DD	0a3400H
	DD	imagerel $LN70
	DD	imagerel $LN70+29
	DD	imagerel $unwind$?_Clear_and_reserve_geometric@?$vector@URail@Actor@@V?$allocator@URail@Actor@@@std@@@std@@AEAAX_K@Z
xdata	ENDS
;	COMDAT xdata
xdata	SEGMENT
$chain$3$?_Clear_and_reserve_geometric@?$vector@URail@Actor@@V?$allocator@URail@Actor@@@std@@@std@@AEAAX_K@Z DD 021H
	DD	imagerel $LN70+29
	DD	imagerel $LN70+100
	DD	imagerel $chain$1$?_Clear_and_reserve_geometric@?$vector@URail@Actor@@V?$allocator@URail@Actor@@@std@@@std@@AEAAX_K@Z
xdata	ENDS
;	COMDAT xdata
xdata	SEGMENT
$chain$2$?_Clear_and_reserve_geometric@?$vector@URail@Actor@@V?$allocator@URail@Actor@@@std@@@std@@AEAAX_K@Z DD 020521H
	DD	0b5405H
	DD	imagerel $LN70+29
	DD	imagerel $LN70+100
	DD	imagerel $chain$1$?_Clear_and_reserve_geometric@?$vector@URail@Actor@@V?$allocator@URail@Actor@@@std@@@std@@AEAAX_K@Z
xdata	ENDS
;	COMDAT xdata
xdata	SEGMENT
$chain$1$?_Clear_and_reserve_geometric@?$vector@URail@Actor@@V?$allocator@URail@Actor@@@std@@@std@@AEAAX_K@Z DD 041721H
	DD	04e417H
	DD	0a3405H
	DD	imagerel $LN70
	DD	imagerel $LN70+29
	DD	imagerel $unwind$?_Clear_and_reserve_geometric@?$vector@URail@Actor@@V?$allocator@URail@Actor@@@std@@@std@@AEAAX_K@Z
xdata	ENDS
;	COMDAT xdata
xdata	SEGMENT
$unwind$?_Clear_and_reserve_geometric@?$vector@URail@Actor@@V?$allocator@URail@Actor@@@std@@@std@@AEAAX_K@Z DD 030701H
	DD	070034207H
	DD	06002H
xdata	ENDS
;	COMDAT xdata
xdata	SEGMENT
$chain$6$?_Clear_and_reserve_geometric@?$vector@ULink@Actor@@V?$allocator@ULink@Actor@@@std@@@std@@AEAAX_K@Z DD 021H
	DD	imagerel $LN70
	DD	imagerel $LN70+29
	DD	imagerel $unwind$?_Clear_and_reserve_geometric@?$vector@ULink@Actor@@V?$allocator@ULink@Actor@@@std@@@std@@AEAAX_K@Z
xdata	ENDS
;	COMDAT xdata
xdata	SEGMENT
$chain$5$?_Clear_and_reserve_geometric@?$vector@ULink@Actor@@V?$allocator@ULink@Actor@@@std@@@std@@AEAAX_K@Z DD 040021H
	DD	04e400H
	DD	0a3400H
	DD	imagerel $LN70
	DD	imagerel $LN70+29
	DD	imagerel $unwind$?_Clear_and_reserve_geometric@?$vector@ULink@Actor@@V?$allocator@ULink@Actor@@@std@@@std@@AEAAX_K@Z
xdata	ENDS
;	COMDAT xdata
xdata	SEGMENT
$chain$3$?_Clear_and_reserve_geometric@?$vector@ULink@Actor@@V?$allocator@ULink@Actor@@@std@@@std@@AEAAX_K@Z DD 021H
	DD	imagerel $LN70+29
	DD	imagerel $LN70+100
	DD	imagerel $chain$1$?_Clear_and_reserve_geometric@?$vector@ULink@Actor@@V?$allocator@ULink@Actor@@@std@@@std@@AEAAX_K@Z
xdata	ENDS
;	COMDAT xdata
xdata	SEGMENT
$chain$2$?_Clear_and_reserve_geometric@?$vector@ULink@Actor@@V?$allocator@ULink@Actor@@@std@@@std@@AEAAX_K@Z DD 020521H
	DD	0b5405H
	DD	imagerel $LN70+29
	DD	imagerel $LN70+100
	DD	imagerel $chain$1$?_Clear_and_reserve_geometric@?$vector@ULink@Actor@@V?$allocator@ULink@Actor@@@std@@@std@@AEAAX_K@Z
xdata	ENDS
;	COMDAT xdata
xdata	SEGMENT
$chain$1$?_Clear_and_reserve_geometric@?$vector@ULink@Actor@@V?$allocator@ULink@Actor@@@std@@@std@@AEAAX_K@Z DD 041721H
	DD	04e417H
	DD	0a3405H
	DD	imagerel $LN70
	DD	imagerel $LN70+29
	DD	imagerel $unwind$?_Clear_and_reserve_geometric@?$vector@ULink@Actor@@V?$allocator@ULink@Actor@@@std@@@std@@AEAAX_K@Z
xdata	ENDS
;	COMDAT xdata
xdata	SEGMENT
$unwind$?_Clear_and_reserve_geometric@?$vector@ULink@Actor@@V?$allocator@ULink@Actor@@@std@@@std@@AEAAX_K@Z DD 030701H
	DD	070034207H
	DD	06002H
xdata	ENDS
;	COMDAT xdata
xdata	SEGMENT
$chain$5$?_Clear_and_reserve_geometric@?$vector@URailData@PhiveData@Actor@@V?$allocator@URailData@PhiveData@Actor@@@std@@@std@@AEAAX_K@Z DD 021H
	DD	imagerel $LN68
	DD	imagerel $LN68+32
	DD	imagerel $unwind$?_Clear_and_reserve_geometric@?$vector@URailData@PhiveData@Actor@@V?$allocator@URailData@PhiveData@Actor@@@std@@@std@@AEAAX_K@Z
xdata	ENDS
;	COMDAT xdata
xdata	SEGMENT
$chain$4$?_Clear_and_reserve_geometric@?$vector@URailData@PhiveData@Actor@@V?$allocator@URailData@PhiveData@Actor@@@std@@@std@@AEAAX_K@Z DD 020021H
	DD	0a3400H
	DD	imagerel $LN68
	DD	imagerel $LN68+32
	DD	imagerel $unwind$?_Clear_and_reserve_geometric@?$vector@URailData@PhiveData@Actor@@V?$allocator@URailData@PhiveData@Actor@@@std@@@std@@AEAAX_K@Z
xdata	ENDS
;	COMDAT xdata
xdata	SEGMENT
$chain$2$?_Clear_and_reserve_geometric@?$vector@URailData@PhiveData@Actor@@V?$allocator@URailData@PhiveData@Actor@@@std@@@std@@AEAAX_K@Z DD 021H
	DD	imagerel $LN68+32
	DD	imagerel $LN68+84
	DD	imagerel $chain$0$?_Clear_and_reserve_geometric@?$vector@URailData@PhiveData@Actor@@V?$allocator@URailData@PhiveData@Actor@@@std@@@std@@AEAAX_K@Z
xdata	ENDS
;	COMDAT xdata
xdata	SEGMENT
$chain$1$?_Clear_and_reserve_geometric@?$vector@URailData@PhiveData@Actor@@V?$allocator@URailData@PhiveData@Actor@@@std@@@std@@AEAAX_K@Z DD 020521H
	DD	045405H
	DD	imagerel $LN68+32
	DD	imagerel $LN68+84
	DD	imagerel $chain$0$?_Clear_and_reserve_geometric@?$vector@URailData@PhiveData@Actor@@V?$allocator@URailData@PhiveData@Actor@@@std@@@std@@AEAAX_K@Z
xdata	ENDS
;	COMDAT xdata
xdata	SEGMENT
$chain$0$?_Clear_and_reserve_geometric@?$vector@URailData@PhiveData@Actor@@V?$allocator@URailData@PhiveData@Actor@@@std@@@std@@AEAAX_K@Z DD 020521H
	DD	0a3405H
	DD	imagerel $LN68
	DD	imagerel $LN68+32
	DD	imagerel $unwind$?_Clear_and_reserve_geometric@?$vector@URailData@PhiveData@Actor@@V?$allocator@URailData@PhiveData@Actor@@@std@@@std@@AEAAX_K@Z
xdata	ENDS
;	COMDAT xdata
xdata	SEGMENT
$unwind$?_Clear_and_reserve_geometric@?$vector@URailData@PhiveData@Actor@@V?$allocator@URailData@PhiveData@Actor@@@std@@@std@@AEAAX_K@Z DD 030701H
	DD	070034207H
	DD	06002H
xdata	ENDS
;	COMDAT xdata
xdata	SEGMENT
$unwind$??4?$vector@UNode@RailData@PhiveData@Actor@@V?$allocator@UNode@RailData@PhiveData@Actor@@@std@@@std@@QEAAAEAV01@AEBV01@@Z DD 020601H
	DD	030023206H
xdata	ENDS
;	COMDAT xdata
xdata	SEGMENT
$unwind$?_Clear_and_reserve_geometric@?$vector@_KV?$allocator@_K@std@@@std@@AEAAX_K@Z DD 040a01H
	DD	08340aH
	DD	07006320aH
xdata	ENDS
;	COMDAT xdata
xdata	SEGMENT
$chain$6$?_Clear_and_reserve_geometric@?$vector@UReferData@ConstraintLinkData@PhiveData@Actor@@V?$allocator@UReferData@ConstraintLinkData@PhiveData@Actor@@@std@@@std@@AEAAX_K@Z DD 021H
	DD	imagerel $LN67
	DD	imagerel $LN67+30
	DD	imagerel $unwind$?_Clear_and_reserve_geometric@?$vector@UReferData@ConstraintLinkData@PhiveData@Actor@@V?$allocator@UReferData@ConstraintLinkData@PhiveData@Actor@@@std@@@std@@AEAAX_K@Z
xdata	ENDS
;	COMDAT xdata
xdata	SEGMENT
$chain$5$?_Clear_and_reserve_geometric@?$vector@UReferData@ConstraintLinkData@PhiveData@Actor@@V?$allocator@UReferData@ConstraintLinkData@PhiveData@Actor@@@std@@@std@@AEAAX_K@Z DD 040021H
	DD	0b5400H
	DD	0a3400H
	DD	imagerel $LN67
	DD	imagerel $LN67+30
	DD	imagerel $unwind$?_Clear_and_reserve_geometric@?$vector@UReferData@ConstraintLinkData@PhiveData@Actor@@V?$allocator@UReferData@ConstraintLinkData@PhiveData@Actor@@@std@@@std@@AEAAX_K@Z
xdata	ENDS
;	COMDAT xdata
xdata	SEGMENT
$chain$3$?_Clear_and_reserve_geometric@?$vector@UReferData@ConstraintLinkData@PhiveData@Actor@@V?$allocator@UReferData@ConstraintLinkData@PhiveData@Actor@@@std@@@std@@AEAAX_K@Z DD 021H
	DD	imagerel $LN67+30
	DD	imagerel $LN67+101
	DD	imagerel $chain$1$?_Clear_and_reserve_geometric@?$vector@UReferData@ConstraintLinkData@PhiveData@Actor@@V?$allocator@UReferData@ConstraintLinkData@PhiveData@Actor@@@std@@@std@@AEAAX_K@Z
xdata	ENDS
;	COMDAT xdata
xdata	SEGMENT
$chain$2$?_Clear_and_reserve_geometric@?$vector@UReferData@ConstraintLinkData@PhiveData@Actor@@V?$allocator@UReferData@ConstraintLinkData@PhiveData@Actor@@@std@@@std@@AEAAX_K@Z DD 020521H
	DD	046405H
	DD	imagerel $LN67+30
	DD	imagerel $LN67+101
	DD	imagerel $chain$1$?_Clear_and_reserve_geometric@?$vector@UReferData@ConstraintLinkData@PhiveData@Actor@@V?$allocator@UReferData@ConstraintLinkData@PhiveData@Actor@@@std@@@std@@AEAAX_K@Z
xdata	ENDS
;	COMDAT xdata
xdata	SEGMENT
$chain$1$?_Clear_and_reserve_geometric@?$vector@UReferData@ConstraintLinkData@PhiveData@Actor@@V?$allocator@UReferData@ConstraintLinkData@PhiveData@Actor@@@std@@@std@@AEAAX_K@Z DD 041721H
	DD	0b5417H
	DD	0a3405H
	DD	imagerel $LN67
	DD	imagerel $LN67+30
	DD	imagerel $unwind$?_Clear_and_reserve_geometric@?$vector@UReferData@ConstraintLinkData@PhiveData@Actor@@V?$allocator@UReferData@ConstraintLinkData@PhiveData@Actor@@@std@@@std@@AEAAX_K@Z
xdata	ENDS
;	COMDAT xdata
xdata	SEGMENT
$unwind$?_Clear_and_reserve_geometric@?$vector@UReferData@ConstraintLinkData@PhiveData@Actor@@V?$allocator@UReferData@ConstraintLinkData@PhiveData@Actor@@@std@@@std@@AEAAX_K@Z DD 030801H
	DD	0e0044208H
	DD	07002H
xdata	ENDS
;	COMDAT xdata
xdata	SEGMENT
$chain$6$?_Clear_and_reserve_geometric@?$vector@UOwnerData@ConstraintLinkData@PhiveData@Actor@@V?$allocator@UOwnerData@ConstraintLinkData@PhiveData@Actor@@@std@@@std@@AEAAX_K@Z DD 021H
	DD	imagerel $LN61
	DD	imagerel $LN61+29
	DD	imagerel $unwind$?_Clear_and_reserve_geometric@?$vector@UOwnerData@ConstraintLinkData@PhiveData@Actor@@V?$allocator@UOwnerData@ConstraintLinkData@PhiveData@Actor@@@std@@@std@@AEAAX_K@Z
xdata	ENDS
;	COMDAT xdata
xdata	SEGMENT
$chain$5$?_Clear_and_reserve_geometric@?$vector@UOwnerData@ConstraintLinkData@PhiveData@Actor@@V?$allocator@UOwnerData@ConstraintLinkData@PhiveData@Actor@@@std@@@std@@AEAAX_K@Z DD 040021H
	DD	04e400H
	DD	0a3400H
	DD	imagerel $LN61
	DD	imagerel $LN61+29
	DD	imagerel $unwind$?_Clear_and_reserve_geometric@?$vector@UOwnerData@ConstraintLinkData@PhiveData@Actor@@V?$allocator@UOwnerData@ConstraintLinkData@PhiveData@Actor@@@std@@@std@@AEAAX_K@Z
xdata	ENDS
;	COMDAT xdata
xdata	SEGMENT
$chain$3$?_Clear_and_reserve_geometric@?$vector@UOwnerData@ConstraintLinkData@PhiveData@Actor@@V?$allocator@UOwnerData@ConstraintLinkData@PhiveData@Actor@@@std@@@std@@AEAAX_K@Z DD 021H
	DD	imagerel $LN61+29
	DD	imagerel $LN61+100
	DD	imagerel $chain$1$?_Clear_and_reserve_geometric@?$vector@UOwnerData@ConstraintLinkData@PhiveData@Actor@@V?$allocator@UOwnerData@ConstraintLinkData@PhiveData@Actor@@@std@@@std@@AEAAX_K@Z
xdata	ENDS
;	COMDAT xdata
xdata	SEGMENT
$chain$2$?_Clear_and_reserve_geometric@?$vector@UOwnerData@ConstraintLinkData@PhiveData@Actor@@V?$allocator@UOwnerData@ConstraintLinkData@PhiveData@Actor@@@std@@@std@@AEAAX_K@Z DD 020521H
	DD	0b6405H
	DD	imagerel $LN61+29
	DD	imagerel $LN61+100
	DD	imagerel $chain$1$?_Clear_and_reserve_geometric@?$vector@UOwnerData@ConstraintLinkData@PhiveData@Actor@@V?$allocator@UOwnerData@ConstraintLinkData@PhiveData@Actor@@@std@@@std@@AEAAX_K@Z
xdata	ENDS
;	COMDAT xdata
xdata	SEGMENT
$chain$1$?_Clear_and_reserve_geometric@?$vector@UOwnerData@ConstraintLinkData@PhiveData@Actor@@V?$allocator@UOwnerData@ConstraintLinkData@PhiveData@Actor@@@std@@@std@@AEAAX_K@Z DD 041721H
	DD	04e417H
	DD	0a3405H
	DD	imagerel $LN61
	DD	imagerel $LN61+29
	DD	imagerel $unwind$?_Clear_and_reserve_geometric@?$vector@UOwnerData@ConstraintLinkData@PhiveData@Actor@@V?$allocator@UOwnerData@ConstraintLinkData@PhiveData@Actor@@@std@@@std@@AEAAX_K@Z
xdata	ENDS
;	COMDAT xdata
xdata	SEGMENT
$unwind$?_Clear_and_reserve_geometric@?$vector@UOwnerData@ConstraintLinkData@PhiveData@Actor@@V?$allocator@UOwnerData@ConstraintLinkData@PhiveData@Actor@@@std@@@std@@AEAAX_K@Z DD 030701H
	DD	070034207H
	DD	05002H
xdata	ENDS
;	COMDAT xdata
xdata	SEGMENT
$chain$1$??4?$map@V?$basic_string@DU?$char_traits@D@std@@V?$allocator@D@2@@std@@V?$variant@IH_K_JM_NNV?$basic_string@DU?$char_traits@D@std@@V?$allocator@D@2@@std@@VNode@BymlFile@@@2@U?$less@V?$basic_string@DU?$char_traits@D@std@@V?$allocator@D@2@@std@@@2@V?$allocator@U?$pair@$$CBV?$basic_string@DU?$char_traits@D@std@@V?$allocator@D@2@@std@@V?$variant@IH_K_JM_NNV?$basic_string@DU?$char_traits@D@std@@V?$allocator@D@2@@std@@VNode@BymlFile@@@2@@std@@@2@@std@@QEAAAEAV01@AEBV01@@Z DD 021H
	DD	imagerel $LN12
	DD	imagerel $LN12+21
	DD	imagerel $unwind$??4?$map@V?$basic_string@DU?$char_traits@D@std@@V?$allocator@D@2@@std@@V?$variant@IH_K_JM_NNV?$basic_string@DU?$char_traits@D@std@@V?$allocator@D@2@@std@@VNode@BymlFile@@@2@U?$less@V?$basic_string@DU?$char_traits@D@std@@V?$allocator@D@2@@std@@@2@V?$allocator@U?$pair@$$CBV?$basic_string@DU?$char_traits@D@std@@V?$allocator@D@2@@std@@V?$variant@IH_K_JM_NNV?$basic_string@DU?$char_traits@D@std@@V?$allocator@D@2@@std@@VNode@BymlFile@@@2@@std@@@2@@std@@QEAAAEAV01@AEBV01@@Z
xdata	ENDS
;	COMDAT xdata
xdata	SEGMENT
$chain$0$??4?$map@V?$basic_string@DU?$char_traits@D@std@@V?$allocator@D@2@@std@@V?$variant@IH_K_JM_NNV?$basic_string@DU?$char_traits@D@std@@V?$allocator@D@2@@std@@VNode@BymlFile@@@2@U?$less@V?$basic_string@DU?$char_traits@D@std@@V?$allocator@D@2@@std@@@2@V?$allocator@U?$pair@$$CBV?$basic_string@DU?$char_traits@D@std@@V?$allocator@D@2@@std@@V?$variant@IH_K_JM_NNV?$basic_string@DU?$char_traits@D@std@@V?$allocator@D@2@@std@@VNode@BymlFile@@@2@@std@@@2@@std@@QEAAAEAV01@AEBV01@@Z DD 020521H
	DD	063405H
	DD	imagerel $LN12
	DD	imagerel $LN12+21
	DD	imagerel $unwind$??4?$map@V?$basic_string@DU?$char_traits@D@std@@V?$allocator@D@2@@std@@V?$variant@IH_K_JM_NNV?$basic_string@DU?$char_traits@D@std@@V?$allocator@D@2@@std@@VNode@BymlFile@@@2@U?$less@V?$basic_string@DU?$char_traits@D@std@@V?$allocator@D@2@@std@@@2@V?$allocator@U?$pair@$$CBV?$basic_string@DU?$char_traits@D@std@@V?$allocator@D@2@@std@@V?$variant@IH_K_JM_NNV?$basic_string@DU?$char_traits@D@std@@V?$allocator@D@2@@std@@VNode@BymlFile@@@2@@std@@@2@@std@@QEAAAEAV01@AEBV01@@Z
xdata	ENDS
;	COMDAT xdata
xdata	SEGMENT
$unwind$??4?$map@V?$basic_string@DU?$char_traits@D@std@@V?$allocator@D@2@@std@@V?$variant@IH_K_JM_NNV?$basic_string@DU?$char_traits@D@std@@V?$allocator@D@2@@std@@VNode@BymlFile@@@2@U?$less@V?$basic_string@DU?$char_traits@D@std@@V?$allocator@D@2@@std@@@2@V?$allocator@U?$pair@$$CBV?$basic_string@DU?$char_traits@D@std@@V?$allocator@D@2@@std@@V?$variant@IH_K_JM_NNV?$basic_string@DU?$char_traits@D@std@@V?$allocator@D@2@@std@@VNode@BymlFile@@@2@@std@@@2@@std@@QEAAAEAV01@AEBV01@@Z DD 040a01H
	DD	07640aH
	DD	07006320aH
xdata	ENDS
;	COMDAT xdata
xdata	SEGMENT
$chain$1$??4?$_Tree@V?$_Tmap_traits@V?$basic_string@DU?$char_traits@D@std@@V?$allocator@D@2@@std@@V?$variant@IH_K_JM_NNV?$basic_string@DU?$char_traits@D@std@@V?$allocator@D@2@@std@@VNode@BymlFile@@@2@U?$less@V?$basic_string@DU?$char_traits@D@std@@V?$allocator@D@2@@std@@@2@V?$allocator@U?$pair@$$CBV?$basic_string@DU?$char_traits@D@std@@V?$allocator@D@2@@std@@V?$variant@IH_K_JM_NNV?$basic_string@DU?$char_traits@D@std@@V?$allocator@D@2@@std@@VNode@BymlFile@@@2@@std@@@2@$0A@@std@@@std@@QEAAAEAV01@AEBV01@@Z DD 021H
	DD	imagerel $LN10
	DD	imagerel $LN10+21
	DD	imagerel $unwind$??4?$_Tree@V?$_Tmap_traits@V?$basic_string@DU?$char_traits@D@std@@V?$allocator@D@2@@std@@V?$variant@IH_K_JM_NNV?$basic_string@DU?$char_traits@D@std@@V?$allocator@D@2@@std@@VNode@BymlFile@@@2@U?$less@V?$basic_string@DU?$char_traits@D@std@@V?$allocator@D@2@@std@@@2@V?$allocator@U?$pair@$$CBV?$basic_string@DU?$char_traits@D@std@@V?$allocator@D@2@@std@@V?$variant@IH_K_JM_NNV?$basic_string@DU?$char_traits@D@std@@V?$allocator@D@2@@std@@VNode@BymlFile@@@2@@std@@@2@$0A@@std@@@std@@QEAAAEAV01@AEBV01@@Z
xdata	ENDS
;	COMDAT xdata
xdata	SEGMENT
$chain$0$??4?$_Tree@V?$_Tmap_traits@V?$basic_string@DU?$char_traits@D@std@@V?$allocator@D@2@@std@@V?$variant@IH_K_JM_NNV?$basic_string@DU?$char_traits@D@std@@V?$allocator@D@2@@std@@VNode@BymlFile@@@2@U?$less@V?$basic_string@DU?$char_traits@D@std@@V?$allocator@D@2@@std@@@2@V?$allocator@U?$pair@$$CBV?$basic_string@DU?$char_traits@D@std@@V?$allocator@D@2@@std@@V?$variant@IH_K_JM_NNV?$basic_string@DU?$char_traits@D@std@@V?$allocator@D@2@@std@@VNode@BymlFile@@@2@@std@@@2@$0A@@std@@@std@@QEAAAEAV01@AEBV01@@Z DD 020521H
	DD	063405H
	DD	imagerel $LN10
	DD	imagerel $LN10+21
	DD	imagerel $unwind$??4?$_Tree@V?$_Tmap_traits@V?$basic_string@DU?$char_traits@D@std@@V?$allocator@D@2@@std@@V?$variant@IH_K_JM_NNV?$basic_string@DU?$char_traits@D@std@@V?$allocator@D@2@@std@@VNode@BymlFile@@@2@U?$less@V?$basic_string@DU?$char_traits@D@std@@V?$allocator@D@2@@std@@@2@V?$allocator@U?$pair@$$CBV?$basic_string@DU?$char_traits@D@std@@V?$allocator@D@2@@std@@V?$variant@IH_K_JM_NNV?$basic_string@DU?$char_traits@D@std@@V?$allocator@D@2@@std@@VNode@BymlFile@@@2@@std@@@2@$0A@@std@@@std@@QEAAAEAV01@AEBV01@@Z
xdata	ENDS
;	COMDAT xdata
xdata	SEGMENT
$unwind$??4?$_Tree@V?$_Tmap_traits@V?$basic_string@DU?$char_traits@D@std@@V?$allocator@D@2@@std@@V?$variant@IH_K_JM_NNV?$basic_string@DU?$char_traits@D@std@@V?$allocator@D@2@@std@@VNode@BymlFile@@@2@U?$less@V?$basic_string@DU?$char_traits@D@std@@V?$allocator@D@2@@std@@@2@V?$allocator@U?$pair@$$CBV?$basic_string@DU?$char_traits@D@std@@V?$allocator@D@2@@std@@V?$variant@IH_K_JM_NNV?$basic_string@DU?$char_traits@D@std@@V?$allocator@D@2@@std@@VNode@BymlFile@@@2@@std@@@2@$0A@@std@@@std@@QEAAAEAV01@AEBV01@@Z DD 040a01H
	DD	07640aH
	DD	07006320aH
xdata	ENDS
;	COMDAT xdata
xdata	SEGMENT
$unwind$?clear@?$_Tree@V?$_Tmap_traits@V?$basic_string@DU?$char_traits@D@std@@V?$allocator@D@2@@std@@V?$variant@IH_K_JM_NNV?$basic_string@DU?$char_traits@D@std@@V?$allocator@D@2@@std@@VNode@BymlFile@@@2@U?$less@V?$basic_string@DU?$char_traits@D@std@@V?$allocator@D@2@@std@@@2@V?$allocator@U?$pair@$$CBV?$basic_string@DU?$char_traits@D@std@@V?$allocator@D@2@@std@@V?$variant@IH_K_JM_NNV?$basic_string@DU?$char_traits@D@std@@V?$allocator@D@2@@std@@VNode@BymlFile@@@2@@std@@@2@$0A@@std@@@std@@QEAAXXZ DD 040a01H
	DD	06340aH
	DD	07006320aH
xdata	ENDS
;	COMDAT xdata
xdata	SEGMENT
$ip2state$??$_Uninitialized_copy_n@PEAUActor@@V?$allocator@UActor@@@std@@@std@@YAPEAUActor@@PEAU1@_K0AEAV?$allocator@UActor@@@0@@Z DB 04H
	DB	092H
	DB	02H
	DB	'R'
	DB	00H
xdata	ENDS
;	COMDAT xdata
xdata	SEGMENT
$stateUnwindMap$??$_Uninitialized_copy_n@PEAUActor@@V?$allocator@UActor@@@std@@@std@@YAPEAUActor@@PEAU1@_K0AEAV?$allocator@UActor@@@0@@Z DB 02H
	DB	0aH
	DD	imagerel ??1?$_Uninitialized_backout_al@V?$allocator@UActor@@@std@@@std@@QEAA@XZ
	DB	040H
xdata	ENDS
;	COMDAT xdata
xdata	SEGMENT
$cppxdata$??$_Uninitialized_copy_n@PEAUActor@@V?$allocator@UActor@@@std@@@std@@YAPEAUActor@@PEAU1@_K0AEAV?$allocator@UActor@@@0@@Z DB 028H
	DD	imagerel $stateUnwindMap$??$_Uninitialized_copy_n@PEAUActor@@V?$allocator@UActor@@@std@@@std@@YAPEAUActor@@PEAU1@_K0AEAV?$allocator@UActor@@@0@@Z
	DD	imagerel $ip2state$??$_Uninitialized_copy_n@PEAUActor@@V?$allocator@UActor@@@std@@@std@@YAPEAUActor@@PEAU1@_K0AEAV?$allocator@UActor@@@0@@Z
xdata	ENDS
;	COMDAT xdata
xdata	SEGMENT
$unwind$??$_Uninitialized_copy_n@PEAUActor@@V?$allocator@UActor@@@std@@@std@@YAPEAUActor@@PEAU1@_K0AEAV?$allocator@UActor@@@0@@Z DD 061e19H
	DD	0c640fH
	DD	0b340fH
	DD	0700b720fH
	DD	imagerel __GSHandlerCheck_EH4
	DD	imagerel $cppxdata$??$_Uninitialized_copy_n@PEAUActor@@V?$allocator@UActor@@@std@@@std@@YAPEAUActor@@PEAU1@_K0AEAV?$allocator@UActor@@@0@@Z
	DD	03aH
xdata	ENDS
;	COMDAT xdata
xdata	SEGMENT
$unwind$??$_Copy_n_unchecked4@PEAUActor@@_KPEAU1@@std@@YAPEAUActor@@PEAU1@_K0@Z DD 060f01H
	DD	07640fH
	DD	06340fH
	DD	0700b320fH
xdata	ENDS
;	COMDAT xdata
xdata	SEGMENT
$ip2state$??$_Uninitialized_copy_n@PEAURail@Actor@@V?$allocator@URail@Actor@@@std@@@std@@YAPEAURail@Actor@@PEAU12@_K0AEAV?$allocator@URail@Actor@@@0@@Z DB 06H
	DB	0c8H
	DB	02H
	DB	01aH
	DB	04H
	DB	'H'
	DB	00H
xdata	ENDS
;	COMDAT xdata
xdata	SEGMENT
$stateUnwindMap$??$_Uninitialized_copy_n@PEAURail@Actor@@V?$allocator@URail@Actor@@@std@@@std@@YAPEAURail@Actor@@PEAU12@_K0AEAV?$allocator@URail@Actor@@@0@@Z DB 04H
	DB	0aH
	DD	imagerel ??1?$_Uninitialized_backout_al@V?$allocator@URail@Actor@@@std@@@std@@QEAA@XZ
	DB	050H
	DB	036H
	DD	imagerel ?dtor$1@?0???$_Uninitialized_copy_n@PEAURail@Actor@@V?$allocator@URail@Actor@@@std@@@std@@YAPEAURail@Actor@@PEAU12@_K0AEAV?$allocator@URail@Actor@@@0@@Z@4HA
xdata	ENDS
;	COMDAT xdata
xdata	SEGMENT
$cppxdata$??$_Uninitialized_copy_n@PEAURail@Actor@@V?$allocator@URail@Actor@@@std@@@std@@YAPEAURail@Actor@@PEAU12@_K0AEAV?$allocator@URail@Actor@@@0@@Z DB 028H
	DD	imagerel $stateUnwindMap$??$_Uninitialized_copy_n@PEAURail@Actor@@V?$allocator@URail@Actor@@@std@@@std@@YAPEAURail@Actor@@PEAU12@_K0AEAV?$allocator@URail@Actor@@@0@@Z
	DD	imagerel $ip2state$??$_Uninitialized_copy_n@PEAURail@Actor@@V?$allocator@URail@Actor@@@std@@@std@@YAPEAURail@Actor@@PEAU12@_K0AEAV?$allocator@URail@Actor@@@0@@Z
xdata	ENDS
;	COMDAT xdata
xdata	SEGMENT
$unwind$??$_Uninitialized_copy_n@PEAURail@Actor@@V?$allocator@URail@Actor@@@std@@@std@@YAPEAURail@Actor@@PEAU12@_K0AEAV?$allocator@URail@Actor@@@0@@Z DD 061e19H
	DD	0e640fH
	DD	0d340fH
	DD	0700b920fH
	DD	imagerel __GSHandlerCheck_EH4
	DD	imagerel $cppxdata$??$_Uninitialized_copy_n@PEAURail@Actor@@V?$allocator@URail@Actor@@@std@@@std@@YAPEAURail@Actor@@PEAU12@_K0AEAV?$allocator@URail@Actor@@@0@@Z
	DD	042H
xdata	ENDS
;	COMDAT xdata
xdata	SEGMENT
$chain$2$??$_Copy_n_unchecked4@PEAURail@Actor@@_KPEAU12@@std@@YAPEAURail@Actor@@PEAU12@_K0@Z DD 021H
	DD	imagerel $LN37
	DD	imagerel $LN37+21
	DD	imagerel $unwind$??$_Copy_n_unchecked4@PEAURail@Actor@@_KPEAU12@@std@@YAPEAURail@Actor@@PEAU12@_K0@Z
xdata	ENDS
;	COMDAT xdata
xdata	SEGMENT
$chain$1$??$_Copy_n_unchecked4@PEAURail@Actor@@_KPEAU12@@std@@YAPEAURail@Actor@@PEAU12@_K0@Z DD 040e21H
	DD	07740eH
	DD	063405H
	DD	imagerel $LN37
	DD	imagerel $LN37+21
	DD	imagerel $unwind$??$_Copy_n_unchecked4@PEAURail@Actor@@_KPEAU12@@std@@YAPEAURail@Actor@@PEAU12@_K0@Z
xdata	ENDS
;	COMDAT xdata
xdata	SEGMENT
$unwind$??$_Copy_n_unchecked4@PEAURail@Actor@@_KPEAU12@@std@@YAPEAURail@Actor@@PEAU12@_K0@Z DD 040a01H
	DD	08540aH
	DD	06006320aH
xdata	ENDS
;	COMDAT xdata
xdata	SEGMENT
$ip2state$??$_Uninitialized_copy_n@PEAULink@Actor@@V?$allocator@ULink@Actor@@@std@@@std@@YAPEAULink@Actor@@PEAU12@_K0AEAV?$allocator@ULink@Actor@@@0@@Z DB 06H
	DB	0d6H
	DB	02H
	DB	01cH
	DB	04H
	DB	'H'
	DB	00H
xdata	ENDS
;	COMDAT xdata
xdata	SEGMENT
$stateUnwindMap$??$_Uninitialized_copy_n@PEAULink@Actor@@V?$allocator@ULink@Actor@@@std@@@std@@YAPEAULink@Actor@@PEAU12@_K0AEAV?$allocator@ULink@Actor@@@0@@Z DB 04H
	DB	0aH
	DD	imagerel ??1?$_Uninitialized_backout_al@V?$allocator@ULink@Actor@@@std@@@std@@QEAA@XZ
	DB	050H
	DB	036H
	DD	imagerel ?dtor$1@?0???$_Uninitialized_copy_n@PEAULink@Actor@@V?$allocator@ULink@Actor@@@std@@@std@@YAPEAULink@Actor@@PEAU12@_K0AEAV?$allocator@ULink@Actor@@@0@@Z@4HA
xdata	ENDS
;	COMDAT xdata
xdata	SEGMENT
$cppxdata$??$_Uninitialized_copy_n@PEAULink@Actor@@V?$allocator@ULink@Actor@@@std@@@std@@YAPEAULink@Actor@@PEAU12@_K0AEAV?$allocator@ULink@Actor@@@0@@Z DB 028H
	DD	imagerel $stateUnwindMap$??$_Uninitialized_copy_n@PEAULink@Actor@@V?$allocator@ULink@Actor@@@std@@@std@@YAPEAULink@Actor@@PEAU12@_K0AEAV?$allocator@ULink@Actor@@@0@@Z
	DD	imagerel $ip2state$??$_Uninitialized_copy_n@PEAULink@Actor@@V?$allocator@ULink@Actor@@@std@@@std@@YAPEAULink@Actor@@PEAU12@_K0AEAV?$allocator@ULink@Actor@@@0@@Z
xdata	ENDS
;	COMDAT xdata
xdata	SEGMENT
$unwind$??$_Uninitialized_copy_n@PEAULink@Actor@@V?$allocator@ULink@Actor@@@std@@@std@@YAPEAULink@Actor@@PEAU12@_K0AEAV?$allocator@ULink@Actor@@@0@@Z DD 061e19H
	DD	0e640fH
	DD	0d340fH
	DD	0700b920fH
	DD	imagerel __GSHandlerCheck_EH4
	DD	imagerel $cppxdata$??$_Uninitialized_copy_n@PEAULink@Actor@@V?$allocator@ULink@Actor@@@std@@@std@@YAPEAULink@Actor@@PEAU12@_K0AEAV?$allocator@ULink@Actor@@@0@@Z
	DD	042H
xdata	ENDS
;	COMDAT xdata
xdata	SEGMENT
$chain$2$??$_Copy_n_unchecked4@PEAULink@Actor@@_KPEAU12@@std@@YAPEAULink@Actor@@PEAU12@_K0@Z DD 021H
	DD	imagerel $LN37
	DD	imagerel $LN37+25
	DD	imagerel $unwind$??$_Copy_n_unchecked4@PEAULink@Actor@@_KPEAU12@@std@@YAPEAULink@Actor@@PEAU12@_K0@Z
xdata	ENDS
;	COMDAT xdata
xdata	SEGMENT
$chain$1$??$_Copy_n_unchecked4@PEAULink@Actor@@_KPEAU12@@std@@YAPEAULink@Actor@@PEAU12@_K0@Z DD 040e21H
	DD	07740eH
	DD	063405H
	DD	imagerel $LN37
	DD	imagerel $LN37+25
	DD	imagerel $unwind$??$_Copy_n_unchecked4@PEAULink@Actor@@_KPEAU12@@std@@YAPEAULink@Actor@@PEAU12@_K0@Z
xdata	ENDS
;	COMDAT xdata
xdata	SEGMENT
$unwind$??$_Copy_n_unchecked4@PEAULink@Actor@@_KPEAU12@@std@@YAPEAULink@Actor@@PEAU12@_K0@Z DD 040a01H
	DD	08540aH
	DD	06006320aH
xdata	ENDS
;	COMDAT xdata
xdata	SEGMENT
$ip2state$??$_Uninitialized_copy_n@PEAURailData@PhiveData@Actor@@V?$allocator@URailData@PhiveData@Actor@@@std@@@std@@YAPEAURailData@PhiveData@Actor@@PEAU123@_K0AEAV?$allocator@URailData@PhiveData@Actor@@@0@@Z DB 04H
	DB	092H
	DB	02H
	DB	'F'
	DB	00H
xdata	ENDS
;	COMDAT xdata
xdata	SEGMENT
$stateUnwindMap$??$_Uninitialized_copy_n@PEAURailData@PhiveData@Actor@@V?$allocator@URailData@PhiveData@Actor@@@std@@@std@@YAPEAURailData@PhiveData@Actor@@PEAU123@_K0AEAV?$allocator@URailData@PhiveData@Actor@@@0@@Z DB 02H
	DB	0aH
	DD	imagerel ??1?$_Uninitialized_backout_al@V?$allocator@URailData@PhiveData@Actor@@@std@@@std@@QEAA@XZ
	DB	040H
xdata	ENDS
;	COMDAT xdata
xdata	SEGMENT
$cppxdata$??$_Uninitialized_copy_n@PEAURailData@PhiveData@Actor@@V?$allocator@URailData@PhiveData@Actor@@@std@@@std@@YAPEAURailData@PhiveData@Actor@@PEAU123@_K0AEAV?$allocator@URailData@PhiveData@Actor@@@0@@Z DB 028H
	DD	imagerel $stateUnwindMap$??$_Uninitialized_copy_n@PEAURailData@PhiveData@Actor@@V?$allocator@URailData@PhiveData@Actor@@@std@@@std@@YAPEAURailData@PhiveData@Actor@@PEAU123@_K0AEAV?$allocator@URailData@PhiveData@Actor@@@0@@Z
	DD	imagerel $ip2state$??$_Uninitialized_copy_n@PEAURailData@PhiveData@Actor@@V?$allocator@URailData@PhiveData@Actor@@@std@@@std@@YAPEAURailData@PhiveData@Actor@@PEAU123@_K0AEAV?$allocator@URailData@PhiveData@Actor@@@0@@Z
xdata	ENDS
;	COMDAT xdata
xdata	SEGMENT
$unwind$??$_Uninitialized_copy_n@PEAURailData@PhiveData@Actor@@V?$allocator@URailData@PhiveData@Actor@@@std@@@std@@YAPEAURailData@PhiveData@Actor@@PEAU123@_K0AEAV?$allocator@URailData@PhiveData@Actor@@@0@@Z DD 061e19H
	DD	0c640fH
	DD	0b340fH
	DD	0700b720fH
	DD	imagerel __GSHandlerCheck_EH4
	DD	imagerel $cppxdata$??$_Uninitialized_copy_n@PEAURailData@PhiveData@Actor@@V?$allocator@URailData@PhiveData@Actor@@@std@@@std@@YAPEAURailData@PhiveData@Actor@@PEAU123@_K0AEAV?$allocator@URailData@PhiveData@Actor@@@0@@Z
	DD	03aH
xdata	ENDS
;	COMDAT xdata
xdata	SEGMENT
$chain$3$??$_Copy_n_unchecked4@PEAURailData@PhiveData@Actor@@_KPEAU123@@std@@YAPEAURailData@PhiveData@Actor@@PEAU123@_K0@Z DD 021H
	DD	imagerel $LN31
	DD	imagerel $LN31+25
	DD	imagerel $unwind$??$_Copy_n_unchecked4@PEAURailData@PhiveData@Actor@@_KPEAU123@@std@@YAPEAURailData@PhiveData@Actor@@PEAU123@_K0@Z
xdata	ENDS
;	COMDAT xdata
xdata	SEGMENT
$chain$2$??$_Copy_n_unchecked4@PEAURailData@PhiveData@Actor@@_KPEAU123@@std@@YAPEAURailData@PhiveData@Actor@@PEAU123@_K0@Z DD 061721H
	DD	08e417H
	DD	07740eH
	DD	063405H
	DD	imagerel $LN31
	DD	imagerel $LN31+25
	DD	imagerel $unwind$??$_Copy_n_unchecked4@PEAURailData@PhiveData@Actor@@_KPEAU123@@std@@YAPEAURailData@PhiveData@Actor@@PEAU123@_K0@Z
xdata	ENDS
;	COMDAT xdata
xdata	SEGMENT
$unwind$??$_Copy_n_unchecked4@PEAURailData@PhiveData@Actor@@_KPEAU123@@std@@YAPEAURailData@PhiveData@Actor@@PEAU123@_K0@Z DD 040a01H
	DD	09540aH
	DD	06006320aH
xdata	ENDS
;	COMDAT xdata
xdata	SEGMENT
$unwind$??$_Uninitialized_copy_n@PEA_KV?$allocator@_K@std@@@std@@YAPEA_KPEA_K_K0AEAV?$allocator@_K@0@@Z DD 040a01H
	DD	09340aH
	DD	07006320aH
xdata	ENDS
;	COMDAT xdata
xdata	SEGMENT
$unwind$??$_Copy_memmove_n@PEA_KPEA_K@std@@YAPEA_KPEA_K_K0@Z DD 040a01H
	DD	09340aH
	DD	07006320aH
xdata	ENDS
;	COMDAT xdata
xdata	SEGMENT
$unwind$??$_Copy_n_unchecked4@PEA_K_KPEA_K@std@@YAPEA_KPEA_K_K0@Z DD 040a01H
	DD	09340aH
	DD	07006320aH
xdata	ENDS
;	COMDAT xdata
xdata	SEGMENT
$ip2state$??$_Uninitialized_copy_n@PEAUReferData@ConstraintLinkData@PhiveData@Actor@@V?$allocator@UReferData@ConstraintLinkData@PhiveData@Actor@@@std@@@std@@YAPEAUReferData@ConstraintLinkData@PhiveData@Actor@@PEAU1234@_K0AEAV?$allocator@UReferData@ConstraintLinkData@PhiveData@Actor@@@0@@Z DB 04H
	DB	0bcH
	DB	02H
	DB	'F'
	DB	00H
xdata	ENDS
;	COMDAT xdata
xdata	SEGMENT
$stateUnwindMap$??$_Uninitialized_copy_n@PEAUReferData@ConstraintLinkData@PhiveData@Actor@@V?$allocator@UReferData@ConstraintLinkData@PhiveData@Actor@@@std@@@std@@YAPEAUReferData@ConstraintLinkData@PhiveData@Actor@@PEAU1234@_K0AEAV?$allocator@UReferData@ConstraintLinkData@PhiveData@Actor@@@0@@Z DB 02H
	DB	0aH
	DD	imagerel ??1?$_Uninitialized_backout_al@V?$allocator@UReferData@ConstraintLinkData@PhiveData@Actor@@@std@@@std@@QEAA@XZ
	DB	040H
xdata	ENDS
;	COMDAT xdata
xdata	SEGMENT
$cppxdata$??$_Uninitialized_copy_n@PEAUReferData@ConstraintLinkData@PhiveData@Actor@@V?$allocator@UReferData@ConstraintLinkData@PhiveData@Actor@@@std@@@std@@YAPEAUReferData@ConstraintLinkData@PhiveData@Actor@@PEAU1234@_K0AEAV?$allocator@UReferData@ConstraintLinkData@PhiveData@Actor@@@0@@Z DB 028H
	DD	imagerel $stateUnwindMap$??$_Uninitialized_copy_n@PEAUReferData@ConstraintLinkData@PhiveData@Actor@@V?$allocator@UReferData@ConstraintLinkData@PhiveData@Actor@@@std@@@std@@YAPEAUReferData@ConstraintLinkData@PhiveData@Actor@@PEAU1234@_K0AEAV?$allocator@UReferData@ConstraintLinkData@PhiveData@Actor@@@0@@Z
	DD	imagerel $ip2state$??$_Uninitialized_copy_n@PEAUReferData@ConstraintLinkData@PhiveData@Actor@@V?$allocator@UReferData@ConstraintLinkData@PhiveData@Actor@@@std@@@std@@YAPEAUReferData@ConstraintLinkData@PhiveData@Actor@@PEAU1234@_K0AEAV?$allocator@UReferData@ConstraintLinkData@PhiveData@Actor@@@0@@Z
xdata	ENDS
;	COMDAT xdata
xdata	SEGMENT
$unwind$??$_Uninitialized_copy_n@PEAUReferData@ConstraintLinkData@PhiveData@Actor@@V?$allocator@UReferData@ConstraintLinkData@PhiveData@Actor@@@std@@@std@@YAPEAUReferData@ConstraintLinkData@PhiveData@Actor@@PEAU1234@_K0AEAV?$allocator@UReferData@ConstraintLinkData@PhiveData@Actor@@@0@@Z DD 061e19H
	DD	0c640fH
	DD	0b340fH
	DD	0700b720fH
	DD	imagerel __GSHandlerCheck_EH4
	DD	imagerel $cppxdata$??$_Uninitialized_copy_n@PEAUReferData@ConstraintLinkData@PhiveData@Actor@@V?$allocator@UReferData@ConstraintLinkData@PhiveData@Actor@@@std@@@std@@YAPEAUReferData@ConstraintLinkData@PhiveData@Actor@@PEAU1234@_K0AEAV?$allocator@UReferData@ConstraintLinkData@PhiveData@Actor@@@0@@Z
	DD	03aH
xdata	ENDS
;	COMDAT xdata
xdata	SEGMENT
$chain$2$??$_Copy_n_unchecked4@PEAUReferData@ConstraintLinkData@PhiveData@Actor@@_KPEAU1234@@std@@YAPEAUReferData@ConstraintLinkData@PhiveData@Actor@@PEAU1234@_K0@Z DD 021H
	DD	imagerel $LN27
	DD	imagerel $LN27+21
	DD	imagerel $unwind$??$_Copy_n_unchecked4@PEAUReferData@ConstraintLinkData@PhiveData@Actor@@_KPEAU1234@@std@@YAPEAUReferData@ConstraintLinkData@PhiveData@Actor@@PEAU1234@_K0@Z
xdata	ENDS
;	COMDAT xdata
xdata	SEGMENT
$chain$1$??$_Copy_n_unchecked4@PEAUReferData@ConstraintLinkData@PhiveData@Actor@@_KPEAU1234@@std@@YAPEAUReferData@ConstraintLinkData@PhiveData@Actor@@PEAU1234@_K0@Z DD 040e21H
	DD	07640eH
	DD	063405H
	DD	imagerel $LN27
	DD	imagerel $LN27+21
	DD	imagerel $unwind$??$_Copy_n_unchecked4@PEAUReferData@ConstraintLinkData@PhiveData@Actor@@_KPEAU1234@@std@@YAPEAUReferData@ConstraintLinkData@PhiveData@Actor@@PEAU1234@_K0@Z
xdata	ENDS
;	COMDAT xdata
xdata	SEGMENT
$unwind$??$_Copy_n_unchecked4@PEAUReferData@ConstraintLinkData@PhiveData@Actor@@_KPEAU1234@@std@@YAPEAUReferData@ConstraintLinkData@PhiveData@Actor@@PEAU1234@_K0@Z DD 040a01H
	DD	08540aH
	DD	07006320aH
xdata	ENDS
;	COMDAT xdata
xdata	SEGMENT
$ip2state$??$_Uninitialized_copy_n@PEAUOwnerData@ConstraintLinkData@PhiveData@Actor@@V?$allocator@UOwnerData@ConstraintLinkData@PhiveData@Actor@@@std@@@std@@YAPEAUOwnerData@ConstraintLinkData@PhiveData@Actor@@PEAU1234@_K0AEAV?$allocator@UOwnerData@ConstraintLinkData@PhiveData@Actor@@@0@@Z DB 04H
	DB	092H
	DB	02H
	DB	'R'
	DB	00H
xdata	ENDS
;	COMDAT xdata
xdata	SEGMENT
$stateUnwindMap$??$_Uninitialized_copy_n@PEAUOwnerData@ConstraintLinkData@PhiveData@Actor@@V?$allocator@UOwnerData@ConstraintLinkData@PhiveData@Actor@@@std@@@std@@YAPEAUOwnerData@ConstraintLinkData@PhiveData@Actor@@PEAU1234@_K0AEAV?$allocator@UOwnerData@ConstraintLinkData@PhiveData@Actor@@@0@@Z DB 02H
	DB	0aH
	DD	imagerel ??1?$_Uninitialized_backout_al@V?$allocator@UOwnerData@ConstraintLinkData@PhiveData@Actor@@@std@@@std@@QEAA@XZ
	DB	040H
xdata	ENDS
;	COMDAT xdata
xdata	SEGMENT
$cppxdata$??$_Uninitialized_copy_n@PEAUOwnerData@ConstraintLinkData@PhiveData@Actor@@V?$allocator@UOwnerData@ConstraintLinkData@PhiveData@Actor@@@std@@@std@@YAPEAUOwnerData@ConstraintLinkData@PhiveData@Actor@@PEAU1234@_K0AEAV?$allocator@UOwnerData@ConstraintLinkData@PhiveData@Actor@@@0@@Z DB 028H
	DD	imagerel $stateUnwindMap$??$_Uninitialized_copy_n@PEAUOwnerData@ConstraintLinkData@PhiveData@Actor@@V?$allocator@UOwnerData@ConstraintLinkData@PhiveData@Actor@@@std@@@std@@YAPEAUOwnerData@ConstraintLinkData@PhiveData@Actor@@PEAU1234@_K0AEAV?$allocator@UOwnerData@ConstraintLinkData@PhiveData@Actor@@@0@@Z
	DD	imagerel $ip2state$??$_Uninitialized_copy_n@PEAUOwnerData@ConstraintLinkData@PhiveData@Actor@@V?$allocator@UOwnerData@ConstraintLinkData@PhiveData@Actor@@@std@@@std@@YAPEAUOwnerData@ConstraintLinkData@PhiveData@Actor@@PEAU1234@_K0AEAV?$allocator@UOwnerData@ConstraintLinkData@PhiveData@Actor@@@0@@Z
xdata	ENDS
;	COMDAT xdata
xdata	SEGMENT
$unwind$??$_Uninitialized_copy_n@PEAUOwnerData@ConstraintLinkData@PhiveData@Actor@@V?$allocator@UOwnerData@ConstraintLinkData@PhiveData@Actor@@@std@@@std@@YAPEAUOwnerData@ConstraintLinkData@PhiveData@Actor@@PEAU1234@_K0AEAV?$allocator@UOwnerData@ConstraintLinkData@PhiveData@Actor@@@0@@Z DD 061e19H
	DD	0c640fH
	DD	0b340fH
	DD	0700b720fH
	DD	imagerel __GSHandlerCheck_EH4
	DD	imagerel $cppxdata$??$_Uninitialized_copy_n@PEAUOwnerData@ConstraintLinkData@PhiveData@Actor@@V?$allocator@UOwnerData@ConstraintLinkData@PhiveData@Actor@@@std@@@std@@YAPEAUOwnerData@ConstraintLinkData@PhiveData@Actor@@PEAU1234@_K0AEAV?$allocator@UOwnerData@ConstraintLinkData@PhiveData@Actor@@@0@@Z
	DD	03aH
xdata	ENDS
;	COMDAT xdata
xdata	SEGMENT
$chain$6$??$_Copy_n_unchecked4@PEAUOwnerData@ConstraintLinkData@PhiveData@Actor@@_KPEAU1234@@std@@YAPEAUOwnerData@ConstraintLinkData@PhiveData@Actor@@PEAU1234@_K0@Z DD 021H
	DD	imagerel $LN61
	DD	imagerel $LN61+23
	DD	imagerel $unwind$??$_Copy_n_unchecked4@PEAUOwnerData@ConstraintLinkData@PhiveData@Actor@@_KPEAU1234@@std@@YAPEAUOwnerData@ConstraintLinkData@PhiveData@Actor@@PEAU1234@_K0@Z
xdata	ENDS
;	COMDAT xdata
xdata	SEGMENT
$chain$5$??$_Copy_n_unchecked4@PEAUOwnerData@ConstraintLinkData@PhiveData@Actor@@_KPEAU1234@@std@@YAPEAUOwnerData@ConstraintLinkData@PhiveData@Actor@@PEAU1234@_K0@Z DD 0c2921H
	DD	067429H
	DD	04f421H
	DD	05c41cH
	DD	0c6413H
	DD	0b540eH
	DD	0a3405H
	DD	imagerel $LN61
	DD	imagerel $LN61+23
	DD	imagerel $unwind$??$_Copy_n_unchecked4@PEAUOwnerData@ConstraintLinkData@PhiveData@Actor@@_KPEAU1234@@std@@YAPEAUOwnerData@ConstraintLinkData@PhiveData@Actor@@PEAU1234@_K0@Z
xdata	ENDS
;	COMDAT xdata
xdata	SEGMENT
$unwind$??$_Copy_n_unchecked4@PEAUOwnerData@ConstraintLinkData@PhiveData@Actor@@_KPEAU1234@@std@@YAPEAUOwnerData@ConstraintLinkData@PhiveData@Actor@@PEAU1234@_K0@Z DD 030801H
	DD	0e0046208H
	DD	0d002H
xdata	ENDS
;	COMDAT xdata
xdata	SEGMENT
$chain$8$??$_Assign_counted_range@PEAUNode@RailData@PhiveData@Actor@@@?$vector@UNode@RailData@PhiveData@Actor@@V?$allocator@UNode@RailData@PhiveData@Actor@@@std@@@std@@AEAAXPEAUNode@RailData@PhiveData@Actor@@_K@Z DD 020021H
	DD	04c400H
	DD	imagerel $LN145+299
	DD	imagerel $LN145+303
	DD	imagerel $chain$3$??$_Assign_counted_range@PEAUNode@RailData@PhiveData@Actor@@@?$vector@UNode@RailData@PhiveData@Actor@@V?$allocator@UNode@RailData@PhiveData@Actor@@@std@@@std@@AEAAXPEAUNode@RailData@PhiveData@Actor@@_K@Z
xdata	ENDS
;	COMDAT xdata
xdata	SEGMENT
$chain$6$??$_Assign_counted_range@PEAUNode@RailData@PhiveData@Actor@@@?$vector@UNode@RailData@PhiveData@Actor@@V?$allocator@UNode@RailData@PhiveData@Actor@@@std@@@std@@AEAAXPEAUNode@RailData@PhiveData@Actor@@_K@Z DD 020021H
	DD	0f5400H
	DD	imagerel $LN145+299
	DD	imagerel $LN145+303
	DD	imagerel $chain$3$??$_Assign_counted_range@PEAUNode@RailData@PhiveData@Actor@@@?$vector@UNode@RailData@PhiveData@Actor@@V?$allocator@UNode@RailData@PhiveData@Actor@@@std@@@std@@AEAAXPEAUNode@RailData@PhiveData@Actor@@_K@Z
xdata	ENDS
;	COMDAT xdata
xdata	SEGMENT
$chain$4$??$_Assign_counted_range@PEAUNode@RailData@PhiveData@Actor@@@?$vector@UNode@RailData@PhiveData@Actor@@V?$allocator@UNode@RailData@PhiveData@Actor@@@std@@@std@@AEAAXPEAUNode@RailData@PhiveData@Actor@@_K@Z DD 020521H
	DD	0f5405H
	DD	imagerel $LN145+299
	DD	imagerel $LN145+303
	DD	imagerel $chain$3$??$_Assign_counted_range@PEAUNode@RailData@PhiveData@Actor@@@?$vector@UNode@RailData@PhiveData@Actor@@V?$allocator@UNode@RailData@PhiveData@Actor@@@std@@@std@@AEAAXPEAUNode@RailData@PhiveData@Actor@@_K@Z
xdata	ENDS
;	COMDAT xdata
xdata	SEGMENT
$chain$3$??$_Assign_counted_range@PEAUNode@RailData@PhiveData@Actor@@@?$vector@UNode@RailData@PhiveData@Actor@@V?$allocator@UNode@RailData@PhiveData@Actor@@@std@@@std@@AEAAXPEAUNode@RailData@PhiveData@Actor@@_K@Z DD 021H
	DD	imagerel $LN145
	DD	imagerel $LN145+60
	DD	imagerel $unwind$??$_Assign_counted_range@PEAUNode@RailData@PhiveData@Actor@@@?$vector@UNode@RailData@PhiveData@Actor@@V?$allocator@UNode@RailData@PhiveData@Actor@@@std@@@std@@AEAAXPEAUNode@RailData@PhiveData@Actor@@_K@Z
xdata	ENDS
;	COMDAT xdata
xdata	SEGMENT
$chain$2$??$_Assign_counted_range@PEAUNode@RailData@PhiveData@Actor@@@?$vector@UNode@RailData@PhiveData@Actor@@V?$allocator@UNode@RailData@PhiveData@Actor@@@std@@@std@@AEAAXPEAUNode@RailData@PhiveData@Actor@@_K@Z DD 020021H
	DD	04c400H
	DD	imagerel $LN145
	DD	imagerel $LN145+60
	DD	imagerel $unwind$??$_Assign_counted_range@PEAUNode@RailData@PhiveData@Actor@@@?$vector@UNode@RailData@PhiveData@Actor@@V?$allocator@UNode@RailData@PhiveData@Actor@@@std@@@std@@AEAAXPEAUNode@RailData@PhiveData@Actor@@_K@Z
xdata	ENDS
;	COMDAT xdata
xdata	SEGMENT
$chain$0$??$_Assign_counted_range@PEAUNode@RailData@PhiveData@Actor@@@?$vector@UNode@RailData@PhiveData@Actor@@V?$allocator@UNode@RailData@PhiveData@Actor@@@std@@@std@@AEAAXPEAUNode@RailData@PhiveData@Actor@@_K@Z DD 020521H
	DD	04c405H
	DD	imagerel $LN145
	DD	imagerel $LN145+60
	DD	imagerel $unwind$??$_Assign_counted_range@PEAUNode@RailData@PhiveData@Actor@@@?$vector@UNode@RailData@PhiveData@Actor@@V?$allocator@UNode@RailData@PhiveData@Actor@@@std@@@std@@AEAAXPEAUNode@RailData@PhiveData@Actor@@_K@Z
xdata	ENDS
;	COMDAT xdata
xdata	SEGMENT
$unwind$??$_Assign_counted_range@PEAUNode@RailData@PhiveData@Actor@@@?$vector@UNode@RailData@PhiveData@Actor@@V?$allocator@UNode@RailData@PhiveData@Actor@@@std@@@std@@AEAAXPEAUNode@RailData@PhiveData@Actor@@_K@Z DD 070e01H
	DD	0f00a420eH
	DD	0d006e008H
	DD	060037004H
	DD	03002H
xdata	ENDS
;	COMDAT xdata
xdata	SEGMENT
$unwind$??4Node@RailData@PhiveData@Actor@@QEAAAEAU0123@AEBU0123@@Z DD 040a01H
	DD	06340aH
	DD	07006320aH
xdata	ENDS
;	COMDAT xdata
xdata	SEGMENT
$chain$6$?_Clear_and_reserve_geometric@?$vector@UNode@RailData@PhiveData@Actor@@V?$allocator@UNode@RailData@PhiveData@Actor@@@std@@@std@@AEAAX_K@Z DD 021H
	DD	imagerel $LN67
	DD	imagerel $LN67+30
	DD	imagerel $unwind$?_Clear_and_reserve_geometric@?$vector@UNode@RailData@PhiveData@Actor@@V?$allocator@UNode@RailData@PhiveData@Actor@@@std@@@std@@AEAAX_K@Z
xdata	ENDS
;	COMDAT xdata
xdata	SEGMENT
$chain$5$?_Clear_and_reserve_geometric@?$vector@UNode@RailData@PhiveData@Actor@@V?$allocator@UNode@RailData@PhiveData@Actor@@@std@@@std@@AEAAX_K@Z DD 040021H
	DD	0b5400H
	DD	0a3400H
	DD	imagerel $LN67
	DD	imagerel $LN67+30
	DD	imagerel $unwind$?_Clear_and_reserve_geometric@?$vector@UNode@RailData@PhiveData@Actor@@V?$allocator@UNode@RailData@PhiveData@Actor@@@std@@@std@@AEAAX_K@Z
xdata	ENDS
;	COMDAT xdata
xdata	SEGMENT
$chain$3$?_Clear_and_reserve_geometric@?$vector@UNode@RailData@PhiveData@Actor@@V?$allocator@UNode@RailData@PhiveData@Actor@@@std@@@std@@AEAAX_K@Z DD 021H
	DD	imagerel $LN67+30
	DD	imagerel $LN67+101
	DD	imagerel $chain$1$?_Clear_and_reserve_geometric@?$vector@UNode@RailData@PhiveData@Actor@@V?$allocator@UNode@RailData@PhiveData@Actor@@@std@@@std@@AEAAX_K@Z
xdata	ENDS
;	COMDAT xdata
xdata	SEGMENT
$chain$2$?_Clear_and_reserve_geometric@?$vector@UNode@RailData@PhiveData@Actor@@V?$allocator@UNode@RailData@PhiveData@Actor@@@std@@@std@@AEAAX_K@Z DD 020521H
	DD	046405H
	DD	imagerel $LN67+30
	DD	imagerel $LN67+101
	DD	imagerel $chain$1$?_Clear_and_reserve_geometric@?$vector@UNode@RailData@PhiveData@Actor@@V?$allocator@UNode@RailData@PhiveData@Actor@@@std@@@std@@AEAAX_K@Z
xdata	ENDS
;	COMDAT xdata
xdata	SEGMENT
$chain$1$?_Clear_and_reserve_geometric@?$vector@UNode@RailData@PhiveData@Actor@@V?$allocator@UNode@RailData@PhiveData@Actor@@@std@@@std@@AEAAX_K@Z DD 041721H
	DD	0b5417H
	DD	0a3405H
	DD	imagerel $LN67
	DD	imagerel $LN67+30
	DD	imagerel $unwind$?_Clear_and_reserve_geometric@?$vector@UNode@RailData@PhiveData@Actor@@V?$allocator@UNode@RailData@PhiveData@Actor@@@std@@@std@@AEAAX_K@Z
xdata	ENDS
;	COMDAT xdata
xdata	SEGMENT
$unwind$?_Clear_and_reserve_geometric@?$vector@UNode@RailData@PhiveData@Actor@@V?$allocator@UNode@RailData@PhiveData@Actor@@@std@@@std@@AEAAX_K@Z DD 030801H
	DD	0e0044208H
	DD	07002H
xdata	ENDS
;	COMDAT xdata
xdata	SEGMENT
$ip2state$??$_Uninitialized_copy_n@PEAUNode@RailData@PhiveData@Actor@@V?$allocator@UNode@RailData@PhiveData@Actor@@@std@@@std@@YAPEAUNode@RailData@PhiveData@Actor@@PEAU1234@_K0AEAV?$allocator@UNode@RailData@PhiveData@Actor@@@0@@Z DB 04H
	DB	092H
	DB	02H
	DB	'f'
	DB	00H
xdata	ENDS
;	COMDAT xdata
xdata	SEGMENT
$stateUnwindMap$??$_Uninitialized_copy_n@PEAUNode@RailData@PhiveData@Actor@@V?$allocator@UNode@RailData@PhiveData@Actor@@@std@@@std@@YAPEAUNode@RailData@PhiveData@Actor@@PEAU1234@_K0AEAV?$allocator@UNode@RailData@PhiveData@Actor@@@0@@Z DB 02H
	DB	0aH
	DD	imagerel ??1?$_Uninitialized_backout_al@V?$allocator@UNode@RailData@PhiveData@Actor@@@std@@@std@@QEAA@XZ
	DB	040H
xdata	ENDS
;	COMDAT xdata
xdata	SEGMENT
$cppxdata$??$_Uninitialized_copy_n@PEAUNode@RailData@PhiveData@Actor@@V?$allocator@UNode@RailData@PhiveData@Actor@@@std@@@std@@YAPEAUNode@RailData@PhiveData@Actor@@PEAU1234@_K0AEAV?$allocator@UNode@RailData@PhiveData@Actor@@@0@@Z DB 028H
	DD	imagerel $stateUnwindMap$??$_Uninitialized_copy_n@PEAUNode@RailData@PhiveData@Actor@@V?$allocator@UNode@RailData@PhiveData@Actor@@@std@@@std@@YAPEAUNode@RailData@PhiveData@Actor@@PEAU1234@_K0AEAV?$allocator@UNode@RailData@PhiveData@Actor@@@0@@Z
	DD	imagerel $ip2state$??$_Uninitialized_copy_n@PEAUNode@RailData@PhiveData@Actor@@V?$allocator@UNode@RailData@PhiveData@Actor@@@std@@@std@@YAPEAUNode@RailData@PhiveData@Actor@@PEAU1234@_K0AEAV?$allocator@UNode@RailData@PhiveData@Actor@@@0@@Z
xdata	ENDS
;	COMDAT xdata
xdata	SEGMENT
$unwind$??$_Uninitialized_copy_n@PEAUNode@RailData@PhiveData@Actor@@V?$allocator@UNode@RailData@PhiveData@Actor@@@std@@@std@@YAPEAUNode@RailData@PhiveData@Actor@@PEAU1234@_K0AEAV?$allocator@UNode@RailData@PhiveData@Actor@@@0@@Z DD 061e19H
	DD	0c640fH
	DD	0b340fH
	DD	0700b720fH
	DD	imagerel __GSHandlerCheck_EH4
	DD	imagerel $cppxdata$??$_Uninitialized_copy_n@PEAUNode@RailData@PhiveData@Actor@@V?$allocator@UNode@RailData@PhiveData@Actor@@@std@@@std@@YAPEAUNode@RailData@PhiveData@Actor@@PEAU1234@_K0AEAV?$allocator@UNode@RailData@PhiveData@Actor@@@0@@Z
	DD	03aH
xdata	ENDS
;	COMDAT xdata
xdata	SEGMENT
$unwind$??$_Copy_n_unchecked4@PEAUNode@RailData@PhiveData@Actor@@_KPEAU1234@@std@@YAPEAUNode@RailData@PhiveData@Actor@@PEAU1234@_K0@Z DD 060f01H
	DD	07640fH
	DD	06340fH
	DD	0700b320fH
; Function compile flags: /Ogtpy
; File H:\Paul\switchemulator\Zelda TotK\MapEditorV4\OldVersion\MapEditor\UITools.cpp
; File H:\Paul\switchemulator\Zelda TotK\MapEditorV4\OldVersion\MapEditor\imgui\imgui.cpp
; File H:\Paul\switchemulator\Zelda TotK\MapEditorV4\OldVersion\MapEditor\UITools.cpp
; File H:\Paul\switchemulator\Zelda TotK\MapEditorV4\OldVersion\MapEditor\imgui\imgui.h
; File H:\Paul\switchemulator\Zelda TotK\MapEditorV4\OldVersion\MapEditor\imgui\imgui_widgets.cpp
; File H:\Paul\switchemulator\Zelda TotK\MapEditorV4\OldVersion\MapEditor\UITools.cpp
; File C:\Program Files\Microsoft Visual Studio\2022\Community\VC\Tools\MSVC\14.37.32822\include\xstring
; File H:\Paul\switchemulator\Zelda TotK\MapEditorV4\OldVersion\MapEditor\UITools.cpp
; File H:\Paul\switchemulator\Zelda TotK\MapEditorV4\OldVersion\MapEditor\imgui\imgui.cpp
; File H:\Paul\switchemulator\Zelda TotK\MapEditorV4\OldVersion\MapEditor\UITools.cpp
; File H:\Paul\switchemulator\Zelda TotK\MapEditorV4\OldVersion\MapEditor\imgui\imgui.h
; File H:\Paul\switchemulator\Zelda TotK\MapEditorV4\OldVersion\MapEditor\imgui\imgui_widgets.cpp
; File H:\Paul\switchemulator\Zelda TotK\MapEditorV4\OldVersion\MapEditor\UITools.cpp
; File H:\Paul\switchemulator\Zelda TotK\MapEditorV4\OldVersion\MapEditor\PopupExportMod.cpp
; File C:\Program Files\Microsoft Visual Studio\2022\Community\VC\Tools\MSVC\14.37.32822\include\xstring
; File H:\Paul\switchemulator\Zelda TotK\MapEditorV4\OldVersion\MapEditor\imgui\imgui_widgets.cpp
; File H:\Paul\switchemulator\Zelda TotK\MapEditorV4\OldVersion\MapEditor\UITools.cpp
; File H:\Paul\switchemulator\Zelda TotK\MapEditorV4\OldVersion\MapEditor\imgui\imgui_internal.h
; File H:\Paul\switchemulator\Zelda TotK\MapEditorV4\OldVersion\MapEditor\imgui\imgui_widgets.cpp
; File H:\Paul\switchemulator\Zelda TotK\MapEditorV4\OldVersion\MapEditor\imgui\imgui.h
; File H:\Paul\switchemulator\Zelda TotK\MapEditorV4\OldVersion\MapEditor\imgui\imgui.cpp
; File H:\Paul\switchemulator\Zelda TotK\MapEditorV4\OldVersion\MapEditor\imgui\imgui_widgets.cpp
; File H:\Paul\switchemulator\Zelda TotK\MapEditorV4\OldVersion\MapEditor\UITools.cpp
; File H:\Paul\switchemulator\Zelda TotK\MapEditorV4\OldVersion\MapEditor\imgui\imgui.h
; File H:\Paul\switchemulator\Zelda TotK\MapEditorV4\OldVersion\MapEditor\imgui\imgui_widgets.cpp
; File H:\Paul\switchemulator\Zelda TotK\MapEditorV4\OldVersion\MapEditor\UITools.cpp
; File C:\Program Files\Microsoft Visual Studio\2022\Community\VC\Tools\MSVC\14.37.32822\include\xstring
; File H:\Paul\switchemulator\Zelda TotK\MapEditorV4\OldVersion\MapEditor\UITools.cpp
; File C:\Program Files\Microsoft Visual Studio\2022\Community\VC\Tools\MSVC\14.37.32822\include\utility
; File C:\Program Files\Microsoft Visual Studio\2022\Community\VC\Tools\MSVC\14.37.32822\include\vector
; File H:\Paul\switchemulator\Zelda TotK\MapEditorV4\OldVersion\MapEditor\UITools.cpp
; File C:\Program Files\Microsoft Visual Studio\2022\Community\VC\Tools\MSVC\14.37.32822\include\vector
; File C:\Program Files\Microsoft Visual Studio\2022\Community\VC\Tools\MSVC\14.37.32822\include\xmemory
; File C:\Program Files\Microsoft Visual Studio\2022\Community\VC\Tools\MSVC\14.37.32822\include\vector
; File C:\Program Files\Microsoft Visual Studio\2022\Community\VC\Tools\MSVC\14.37.32822\include\xstring
; File H:\Paul\switchemulator\Zelda TotK\MapEditorV4\OldVersion\MapEditor\UITools.cpp
; File C:\Program Files\Microsoft Visual Studio\2022\Community\VC\Tools\MSVC\14.37.32822\include\xstring
; File H:\Paul\switchemulator\Zelda TotK\MapEditorV4\OldVersion\MapEditor\UITools.cpp
; File C:\Program Files\Microsoft Visual Studio\2022\Community\VC\Tools\MSVC\14.37.32822\include\xstring
; File H:\Paul\switchemulator\Zelda TotK\MapEditorV4\OldVersion\MapEditor\UITools.cpp
; File C:\Program Files\Microsoft Visual Studio\2022\Community\VC\Tools\MSVC\14.37.32822\include\xstring
; File H:\Paul\switchemulator\Zelda TotK\MapEditorV4\OldVersion\MapEditor\UITools.cpp
; File C:\Program Files\Microsoft Visual Studio\2022\Community\VC\Tools\MSVC\14.37.32822\include\xstring
; File H:\Paul\switchemulator\Zelda TotK\MapEditorV4\OldVersion\MapEditor\UITools.cpp
; File C:\Program Files\Microsoft Visual Studio\2022\Community\VC\Tools\MSVC\14.37.32822\include\vector
; File H:\Paul\switchemulator\Zelda TotK\MapEditorV4\OldVersion\MapEditor\Vector3F.cpp
; File H:\Paul\switchemulator\Zelda TotK\MapEditorV4\OldVersion\MapEditor\UITools.cpp
; File C:\Program Files\Microsoft Visual Studio\2022\Community\VC\Tools\MSVC\14.37.32822\include\xstring
; File H:\Paul\switchemulator\Zelda TotK\MapEditorV4\OldVersion\MapEditor\UITools.cpp
; File C:\Program Files\Microsoft Visual Studio\2022\Community\VC\Tools\MSVC\14.37.32822\include\xstring
; File H:\Paul\switchemulator\Zelda TotK\MapEditorV4\OldVersion\MapEditor\UITools.cpp
; File C:\Program Files\Microsoft Visual Studio\2022\Community\VC\Tools\MSVC\14.37.32822\include\xstring
; File H:\Paul\switchemulator\Zelda TotK\MapEditorV4\OldVersion\MapEditor\UITools.cpp
; File C:\Program Files\Microsoft Visual Studio\2022\Community\VC\Tools\MSVC\14.37.32822\include\vector
; File H:\Paul\switchemulator\Zelda TotK\MapEditorV4\OldVersion\MapEditor\UITools.cpp
; File C:\Program Files\Microsoft Visual Studio\2022\Community\VC\Tools\MSVC\14.37.32822\include\xstring
; File H:\Paul\switchemulator\Zelda TotK\MapEditorV4\OldVersion\MapEditor\UITools.cpp
; File C:\Program Files\Microsoft Visual Studio\2022\Community\VC\Tools\MSVC\14.37.32822\include\xstring
; File H:\Paul\switchemulator\Zelda TotK\MapEditorV4\OldVersion\MapEditor\UITools.cpp
; File C:\Program Files\Microsoft Visual Studio\2022\Community\VC\Tools\MSVC\14.37.32822\include\xstring
; File H:\Paul\switchemulator\Zelda TotK\MapEditorV4\OldVersion\MapEditor\UITools.cpp
; File C:\Program Files\Microsoft Visual Studio\2022\Community\VC\Tools\MSVC\14.37.32822\include\vector
; File H:\Paul\switchemulator\Zelda TotK\MapEditorV4\OldVersion\MapEditor\UITools.cpp
; File C:\Program Files\Microsoft Visual Studio\2022\Community\VC\Tools\MSVC\14.37.32822\include\xstring
; File H:\Paul\switchemulator\Zelda TotK\MapEditorV4\OldVersion\MapEditor\UITools.cpp
; File C:\Program Files\Microsoft Visual Studio\2022\Community\VC\Tools\MSVC\14.37.32822\include\xstring
; File H:\Paul\switchemulator\Zelda TotK\MapEditorV4\OldVersion\MapEditor\UITools.cpp
; File C:\Program Files\Microsoft Visual Studio\2022\Community\VC\Tools\MSVC\14.37.32822\include\xstring
; File H:\Paul\switchemulator\Zelda TotK\MapEditorV4\OldVersion\MapEditor\UITools.cpp
; File C:\Program Files\Microsoft Visual Studio\2022\Community\VC\Tools\MSVC\14.37.32822\include\vector
; File H:\Paul\switchemulator\Zelda TotK\MapEditorV4\OldVersion\MapEditor\Vector3F.cpp
; File H:\Paul\switchemulator\Zelda TotK\MapEditorV4\OldVersion\MapEditor\Libraries\include\glm\detail\func_trigonometric.inl
; File H:\Paul\switchemulator\Zelda TotK\MapEditorV4\OldVersion\MapEditor\UITools.cpp
; File C:\Program Files\Microsoft Visual Studio\2022\Community\VC\Tools\MSVC\14.37.32822\include\xstring
; File H:\Paul\switchemulator\Zelda TotK\MapEditorV4\OldVersion\MapEditor\UITools.cpp
; File C:\Program Files\Microsoft Visual Studio\2022\Community\VC\Tools\MSVC\14.37.32822\include\xstring
; File H:\Paul\switchemulator\Zelda TotK\MapEditorV4\OldVersion\MapEditor\UITools.cpp
; File C:\Program Files\Microsoft Visual Studio\2022\Community\VC\Tools\MSVC\14.37.32822\include\xstring
; File H:\Paul\switchemulator\Zelda TotK\MapEditorV4\OldVersion\MapEditor\UITools.cpp
; File C:\Program Files\Microsoft Visual Studio\2022\Community\VC\Tools\MSVC\14.37.32822\include\vector
; File H:\Paul\switchemulator\Zelda TotK\MapEditorV4\OldVersion\MapEditor\UITools.cpp
; File H:\Paul\switchemulator\Zelda TotK\MapEditorV4\OldVersion\MapEditor\Libraries\include\glm\detail\func_trigonometric.inl
; File H:\Paul\switchemulator\Zelda TotK\MapEditorV4\OldVersion\MapEditor\UITools.cpp
; File C:\Program Files\Microsoft Visual Studio\2022\Community\VC\Tools\MSVC\14.37.32822\include\xstring
; File H:\Paul\switchemulator\Zelda TotK\MapEditorV4\OldVersion\MapEditor\UITools.cpp
; File C:\Program Files\Microsoft Visual Studio\2022\Community\VC\Tools\MSVC\14.37.32822\include\xstring
; File H:\Paul\switchemulator\Zelda TotK\MapEditorV4\OldVersion\MapEditor\UITools.cpp
; File C:\Program Files\Microsoft Visual Studio\2022\Community\VC\Tools\MSVC\14.37.32822\include\xstring
; File H:\Paul\switchemulator\Zelda TotK\MapEditorV4\OldVersion\MapEditor\UITools.cpp
; File C:\Program Files\Microsoft Visual Studio\2022\Community\VC\Tools\MSVC\14.37.32822\include\vector
; File H:\Paul\switchemulator\Zelda TotK\MapEditorV4\OldVersion\MapEditor\UITools.cpp
; File H:\Paul\switchemulator\Zelda TotK\MapEditorV4\OldVersion\MapEditor\Libraries\include\glm\detail\func_trigonometric.inl
; File H:\Paul\switchemulator\Zelda TotK\MapEditorV4\OldVersion\MapEditor\UITools.cpp
; File C:\Program Files\Microsoft Visual Studio\2022\Community\VC\Tools\MSVC\14.37.32822\include\xstring
; File H:\Paul\switchemulator\Zelda TotK\MapEditorV4\OldVersion\MapEditor\UITools.cpp
; File C:\Program Files\Microsoft Visual Studio\2022\Community\VC\Tools\MSVC\14.37.32822\include\vector
; File H:\Paul\switchemulator\Zelda TotK\MapEditorV4\OldVersion\MapEditor\ZStdFile.cpp
; File C:\Program Files\Microsoft Visual Studio\2022\Community\VC\Tools\MSVC\14.37.32822\include\vector
; File H:\Paul\switchemulator\Zelda TotK\MapEditorV4\OldVersion\MapEditor\ZStdFile.cpp
; File C:\Program Files\Microsoft Visual Studio\2022\Community\VC\Tools\MSVC\14.37.32822\include\vector
; File C:\Program Files\Microsoft Visual Studio\2022\Community\VC\Tools\MSVC\14.37.32822\include\xmemory
; File C:\Program Files\Microsoft Visual Studio\2022\Community\VC\Tools\MSVC\14.37.32822\include\vector
; File H:\Paul\switchemulator\Zelda TotK\MapEditorV4\OldVersion\MapEditor\ZStdFile.cpp
; File C:\Program Files\Microsoft Visual Studio\2022\Community\VC\Tools\MSVC\14.37.32822\include\vector
; File H:\Paul\switchemulator\Zelda TotK\MapEditorV4\OldVersion\MapEditor\ZStdFile.cpp
; File C:\Program Files\Microsoft Visual Studio\2022\Community\VC\Tools\MSVC\14.37.32822\include\vector
; File C:\Program Files\Microsoft Visual Studio\2022\Community\VC\Tools\MSVC\14.37.32822\include\xmemory
; File C:\Program Files\Microsoft Visual Studio\2022\Community\VC\Tools\MSVC\14.37.32822\include\vector
; File H:\Paul\switchemulator\Zelda TotK\MapEditorV4\OldVersion\MapEditor\ZStdFile.cpp
; File C:\Program Files\Microsoft Visual Studio\2022\Community\VC\Tools\MSVC\14.37.32822\include\vector
; File C:\Program Files\Microsoft Visual Studio\2022\Community\VC\Tools\MSVC\14.37.32822\include\xmemory
; File C:\Program Files\Microsoft Visual Studio\2022\Community\VC\Tools\MSVC\14.37.32822\include\vector
; File C:\Program Files\Microsoft Visual Studio\2022\Community\VC\Tools\MSVC\14.37.32822\include\xstring
; File H:\Paul\switchemulator\Zelda TotK\MapEditorV4\OldVersion\MapEditor\UITools.cpp
; File C:\Program Files\Microsoft Visual Studio\2022\Community\VC\Tools\MSVC\14.37.32822\include\vector
; File C:\Program Files\Microsoft Visual Studio\2022\Community\VC\Tools\MSVC\14.37.32822\include\xmemory
; File C:\Program Files\Microsoft Visual Studio\2022\Community\VC\Tools\MSVC\14.37.32822\include\vector
; File H:\Paul\switchemulator\Zelda TotK\MapEditorV4\OldVersion\MapEditor\UITools.cpp
; File H:\Paul\switchemulator\Zelda TotK\MapEditorV4\OldVersion\MapEditor\imgui\imgui.h
; File H:\Paul\switchemulator\Zelda TotK\MapEditorV4\OldVersion\MapEditor\imgui\imgui_widgets.cpp
; File H:\Paul\switchemulator\Zelda TotK\MapEditorV4\OldVersion\MapEditor\UITools.cpp
; File C:\Program Files\Microsoft Visual Studio\2022\Community\VC\Tools\MSVC\14.37.32822\include\vector
; File H:\Paul\switchemulator\Zelda TotK\MapEditorV4\OldVersion\MapEditor\UITools.cpp
; File C:\Program Files\Microsoft Visual Studio\2022\Community\VC\Tools\MSVC\14.37.32822\include\xmemory
; File H:\Paul\switchemulator\Zelda TotK\MapEditorV4\OldVersion\MapEditor\UITools.cpp
; File C:\Program Files\Microsoft Visual Studio\2022\Community\VC\Tools\MSVC\14.37.32822\include\xstring
; File H:\Paul\switchemulator\Zelda TotK\MapEditorV4\OldVersion\MapEditor\UITools.cpp
; File C:\Program Files\Microsoft Visual Studio\2022\Community\VC\Tools\MSVC\14.37.32822\include\utility
; File C:\Program Files\Microsoft Visual Studio\2022\Community\VC\Tools\MSVC\14.37.32822\include\vector
; File H:\Paul\switchemulator\Zelda TotK\MapEditorV4\OldVersion\MapEditor\UITools.cpp
; File C:\Program Files\Microsoft Visual Studio\2022\Community\VC\Tools\MSVC\14.37.32822\include\vector
; File C:\Program Files\Microsoft Visual Studio\2022\Community\VC\Tools\MSVC\14.37.32822\include\xmemory
; File C:\Program Files\Microsoft Visual Studio\2022\Community\VC\Tools\MSVC\14.37.32822\include\vector
; File H:\Paul\switchemulator\Zelda TotK\MapEditorV4\OldVersion\MapEditor\UITools.cpp
; File C:\Program Files\Microsoft Visual Studio\2022\Community\VC\Tools\MSVC\14.37.32822\include\xstring
; File H:\Paul\switchemulator\Zelda TotK\MapEditorV4\OldVersion\MapEditor\UITools.cpp
; File C:\Program Files\Microsoft Visual Studio\2022\Community\VC\Tools\MSVC\14.37.32822\include\vector
; File H:\Paul\switchemulator\Zelda TotK\MapEditorV4\OldVersion\MapEditor\ZStdFile.cpp
; File C:\Program Files\Microsoft Visual Studio\2022\Community\VC\Tools\MSVC\14.37.32822\include\vector
; File H:\Paul\switchemulator\Zelda TotK\MapEditorV4\OldVersion\MapEditor\ZStdFile.cpp
; File C:\Program Files\Microsoft Visual Studio\2022\Community\VC\Tools\MSVC\14.37.32822\include\vector
; File C:\Program Files\Microsoft Visual Studio\2022\Community\VC\Tools\MSVC\14.37.32822\include\xmemory
; File C:\Program Files\Microsoft Visual Studio\2022\Community\VC\Tools\MSVC\14.37.32822\include\vector
; File H:\Paul\switchemulator\Zelda TotK\MapEditorV4\OldVersion\MapEditor\ZStdFile.cpp
; File C:\Program Files\Microsoft Visual Studio\2022\Community\VC\Tools\MSVC\14.37.32822\include\vector
; File H:\Paul\switchemulator\Zelda TotK\MapEditorV4\OldVersion\MapEditor\ZStdFile.cpp
; File C:\Program Files\Microsoft Visual Studio\2022\Community\VC\Tools\MSVC\14.37.32822\include\vector
; File C:\Program Files\Microsoft Visual Studio\2022\Community\VC\Tools\MSVC\14.37.32822\include\xmemory
; File C:\Program Files\Microsoft Visual Studio\2022\Community\VC\Tools\MSVC\14.37.32822\include\vector
; File H:\Paul\switchemulator\Zelda TotK\MapEditorV4\OldVersion\MapEditor\ZStdFile.cpp
; File C:\Program Files\Microsoft Visual Studio\2022\Community\VC\Tools\MSVC\14.37.32822\include\vector
; File C:\Program Files\Microsoft Visual Studio\2022\Community\VC\Tools\MSVC\14.37.32822\include\xmemory
; File C:\Program Files\Microsoft Visual Studio\2022\Community\VC\Tools\MSVC\14.37.32822\include\vector
; File C:\Program Files\Microsoft Visual Studio\2022\Community\VC\Tools\MSVC\14.37.32822\include\xstring
; File C:\Program Files\Microsoft Visual Studio\2022\Community\VC\Tools\MSVC\14.37.32822\include\xmemory
; File C:\Program Files\Microsoft Visual Studio\2022\Community\VC\Tools\MSVC\14.37.32822\include\xstring
; File H:\Paul\switchemulator\Zelda TotK\MapEditorV4\OldVersion\MapEditor\UITools.cpp
; File C:\Program Files\Microsoft Visual Studio\2022\Community\VC\Tools\MSVC\14.37.32822\include\xstring
; File C:\Program Files\Microsoft Visual Studio\2022\Community\VC\Tools\MSVC\14.37.32822\include\xmemory
; File C:\Program Files\Microsoft Visual Studio\2022\Community\VC\Tools\MSVC\14.37.32822\include\xstring
; File C:\Program Files\Microsoft Visual Studio\2022\Community\VC\Tools\MSVC\14.37.32822\include\vector
; File C:\Program Files\Microsoft Visual Studio\2022\Community\VC\Tools\MSVC\14.37.32822\include\xmemory
; File H:\Paul\switchemulator\Zelda TotK\MapEditorV4\OldVersion\MapEditor\UITools.cpp
; File C:\Program Files\Microsoft Visual Studio\2022\Community\VC\Tools\MSVC\14.37.32822\include\xstring
; File C:\Program Files\Microsoft Visual Studio\2022\Community\VC\Tools\MSVC\14.37.32822\include\vector
; File C:\Program Files\Microsoft Visual Studio\2022\Community\VC\Tools\MSVC\14.37.32822\include\xmemory
; File C:\Program Files\Microsoft Visual Studio\2022\Community\VC\Tools\MSVC\14.37.32822\include\vector
; File C:\Program Files\Microsoft Visual Studio\2022\Community\VC\Tools\MSVC\14.37.32822\include\xmemory
; File C:\Program Files\Microsoft Visual Studio\2022\Community\VC\Tools\MSVC\14.37.32822\include\vector
; File C:\Program Files\Microsoft Visual Studio\2022\Community\VC\Tools\MSVC\14.37.32822\include\xmemory
; File H:\Paul\switchemulator\Zelda TotK\MapEditorV4\OldVersion\MapEditor\UITools.cpp
; File H:\Paul\switchemulator\Zelda TotK\MapEditorV4\OldVersion\MapEditor\imgui\imgui.h
; File H:\Paul\switchemulator\Zelda TotK\MapEditorV4\OldVersion\MapEditor\imgui\imgui_widgets.cpp
; File H:\Paul\switchemulator\Zelda TotK\MapEditorV4\OldVersion\MapEditor\UITools.cpp
; File H:\Paul\switchemulator\Zelda TotK\MapEditorV4\OldVersion\MapEditor\PopupStackActors.cpp
; File H:\Paul\switchemulator\Zelda TotK\MapEditorV4\OldVersion\MapEditor\imgui\imgui.cpp
; File H:\Paul\switchemulator\Zelda TotK\MapEditorV4\OldVersion\MapEditor\UITools.cpp
; File H:\Paul\switchemulator\Zelda TotK\MapEditorV4\OldVersion\MapEditor\imgui\imgui.h
; File H:\Paul\switchemulator\Zelda TotK\MapEditorV4\OldVersion\MapEditor\imgui\imgui_widgets.cpp
; File H:\Paul\switchemulator\Zelda TotK\MapEditorV4\OldVersion\MapEditor\UITools.cpp
; File C:\Program Files\Microsoft Visual Studio\2022\Community\VC\Tools\MSVC\14.37.32822\include\xmemory
; File C:\Program Files\Microsoft Visual Studio\2022\Community\VC\Tools\MSVC\14.37.32822\include\xstring
; File H:\Paul\switchemulator\Zelda TotK\MapEditorV4\OldVersion\MapEditor\UITools.cpp
;	COMDAT ?DrawToolsWindow@UITools@@YAXXZ
_TEXT	SEGMENT
$T8 = 64
$T9 = 64
$T10 = 64
$T11 = 64
$T12 = 64
$T13 = 64
$T14 = 64
$T15 = 72
$T16 = 72
$T17 = 72
$T18 = 72
$T19 = 72
$T20 = 72
$T21 = 72
$T22 = 72
$T23 = 72
$T24 = 72
$T25 = 72
$T26 = 104
$T27 = 104
$T28 = 104
$T29 = 128
$T30 = 128
$T31 = 128
$T32 = 136
$T33 = 136
$T34 = 136
$T35 = 136
$T36 = 136
$T37 = 136
$T38 = 136
$T39 = 136
$T40 = 136
$T41 = 168
$T42 = 168
$T43 = 168
$T44 = 168
$T45 = 168
$T46 = 168
$T47 = 168
$T48 = 168
$T49 = 168
$T50 = 168
$T51 = 168
$T52 = 200
$T53 = 200
$T54 = 200
$T55 = 200
$T56 = 232
$T57 = 232
$T58 = 232
$T59 = 232
Vertices$60 = 264
$T61 = 264
Data$62 = 288
$T63 = 288
Indices$64 = 312
$T65 = 312
$T66 = 352
StartPosByml$67 = 352
NavMesh$68 = 576
__$ArrayPad$ = 2128
?DrawToolsWindow@UITools@@YAXXZ PROC			; UITools::DrawToolsWindow, COMDAT

; 24   : {

$LN1334:
	mov	rax, rsp
	mov	QWORD PTR [rax+8], rbx
	mov	QWORD PTR [rax+16], rsi
	mov	QWORD PTR [rax+24], rdi
	push	rbp
	push	r12
	push	r13
	push	r14
	push	r15
	lea	rbp, QWORD PTR [rax-1960]
	sub	rsp, 2176				; 00000880H
	movaps	XMMWORD PTR [rax-56], xmm6
	movaps	XMMWORD PTR [rax-72], xmm7
	mov	rax, QWORD PTR __security_cookie
	xor	rax, rsp
	mov	QWORD PTR __$ArrayPad$[rbp-256], rax
	xor	edi, edi
	mov	r15d, edi
	mov	DWORD PTR $T8[rsp], edi

; 25   : 	if (!Open) return;

	cmp	BYTE PTR ?Open@UITools@@3_NA, dil	; UITools::Open
	je	$LN1@DrawToolsW

; 26   : 
; 27   : 	ImGui::Begin("Tools", &Open);

	xor	r8d, r8d
	lea	rdx, OFFSET FLAT:?Open@UITools@@3_NA	; UITools::Open
	lea	rcx, OFFSET FLAT:??_C@_05OENKALAF@Tools@
	call	?Begin@ImGui@@YA_NPEBDPEA_NH@Z		; ImGui::Begin
; File H:\Paul\switchemulator\Zelda TotK\MapEditorV4\OldVersion\MapEditor\imgui\imgui.cpp

; 8006 :     ImGuiWindow* window = GetCurrentWindowRead();

	mov	rcx, QWORD PTR ?GImGui@@3PEAUImGuiContext@@EA ; GImGui
	mov	rax, QWORD PTR [rcx+16408]

; 8007 :     return window->Size;

	movss	xmm0, DWORD PTR [rax+88]
; File H:\Paul\switchemulator\Zelda TotK\MapEditorV4\OldVersion\MapEditor\UITools.cpp

; 29   : 	if (ImGui::Button("Save", ImVec2(ImGui::GetWindowSize().x * 0.5f - ImGui::GetStyle().ItemSpacing.x, 0)))

	movss	xmm6, DWORD PTR __real@3f000000
	mulss	xmm0, xmm6
	subss	xmm0, DWORD PTR [rcx+14628]
; File H:\Paul\switchemulator\Zelda TotK\MapEditorV4\OldVersion\MapEditor\imgui\imgui.h

; 270  :     constexpr ImVec2(float _x, float _y)    : x(_x), y(_y) { }

	movss	DWORD PTR $T14[rsp], xmm0
	xorps	xmm7, xmm7
	mov	DWORD PTR $T14[rsp+4], edi
; File H:\Paul\switchemulator\Zelda TotK\MapEditorV4\OldVersion\MapEditor\imgui\imgui_widgets.cpp

; 723  :     return ButtonEx(label, size_arg, ImGuiButtonFlags_None);

	xor	r8d, r8d
	lea	rdx, QWORD PTR $T14[rsp]
	lea	rcx, OFFSET FLAT:??_C@_04INACKGJP@Save@
	call	?ButtonEx@ImGui@@YA_NPEBDAEBUImVec2@@H@Z ; ImGui::ButtonEx
; File H:\Paul\switchemulator\Zelda TotK\MapEditorV4\OldVersion\MapEditor\UITools.cpp

; 29   : 	if (ImGui::Button("Save", ImVec2(ImGui::GetWindowSize().x * 0.5f - ImGui::GetStyle().ItemSpacing.x, 0)))

	test	al, al
	je	SHORT $LN9@DrawToolsW
	xorps	xmm0, xmm0
; File C:\Program Files\Microsoft Visual Studio\2022\Community\VC\Tools\MSVC\14.37.32822\include\xstring

; 2284 :         _CONSTEXPR20 _Bxty() noexcept : _Buf() {} // user-provided, for fancy pointers

	movups	XMMWORD PTR $T55[rbp-256], xmm0

; 2293 :     size_type _Mysize = 0; // current length of string

	mov	QWORD PTR $T55[rbp-240], rdi

; 2294 :     size_type _Myres  = 0; // current storage reserved for string

	mov	QWORD PTR $T55[rbp-232], rdi

; 2540 :         _Construct<_Construct_strategy::_From_ptr>(_Ptr, _Convert_size<size_type>(_Traits::length(_Ptr)));

	lea	r8d, QWORD PTR [rdi+4]
	lea	rdx, OFFSET FLAT:??_C@_04INACKGJP@Save@
	lea	rcx, QWORD PTR $T55[rbp-256]
	call	??$_Construct@$00PEBD@?$basic_string@DU?$char_traits@D@std@@V?$allocator@D@2@@std@@AEAAXQEBD_K@Z ; std::basic_string<char,std::char_traits<char>,std::allocator<char> >::_Construct<1,char const *>
; File H:\Paul\switchemulator\Zelda TotK\MapEditorV4\OldVersion\MapEditor\UITools.cpp

; 31   : 		Exporter::Export(Editor::GetWorkingDirFile("Save"), Exporter::Operation::Save);

	lea	rdx, QWORD PTR $T55[rbp-256]
	lea	rcx, QWORD PTR $T51[rbp-256]
	call	?GetWorkingDirFile@Editor@@YA?AV?$basic_string@DU?$char_traits@D@std@@V?$allocator@D@2@@std@@V23@@Z ; Editor::GetWorkingDirFile
	mov	dl, 1
	mov	rcx, rax
	call	?Export@Exporter@@YAXV?$basic_string@DU?$char_traits@D@std@@V?$allocator@D@2@@std@@W4Operation@1@@Z ; Exporter::Export
$LN9@DrawToolsW:

; 32   : 	}
; 33   : 	ImGui::SameLine();

	movss	xmm1, DWORD PTR __real@bf800000
	xorps	xmm0, xmm0
	call	?SameLine@ImGui@@YAXMM@Z		; ImGui::SameLine
; File H:\Paul\switchemulator\Zelda TotK\MapEditorV4\OldVersion\MapEditor\imgui\imgui.cpp

; 8006 :     ImGuiWindow* window = GetCurrentWindowRead();

	mov	rdx, QWORD PTR ?GImGui@@3PEAUImGuiContext@@EA ; GImGui
	mov	rax, QWORD PTR [rdx+16408]

; 8007 :     return window->Size;

	movss	xmm4, DWORD PTR [rax+88]
; File H:\Paul\switchemulator\Zelda TotK\MapEditorV4\OldVersion\MapEditor\UITools.cpp

; 34   : 	if (ImGui::Button("Export", ImVec2(ImGui::GetWindowSize().x * 0.5f - ImGui::GetStyle().FramePadding.x, 0)))

	mulss	xmm4, xmm6
	subss	xmm4, DWORD PTR [rdx+14612]
; File H:\Paul\switchemulator\Zelda TotK\MapEditorV4\OldVersion\MapEditor\imgui\imgui.h

; 270  :     constexpr ImVec2(float _x, float _y)    : x(_x), y(_y) { }

	movss	DWORD PTR $T13[rsp], xmm4
	mov	DWORD PTR $T13[rsp+4], edi
; File H:\Paul\switchemulator\Zelda TotK\MapEditorV4\OldVersion\MapEditor\imgui\imgui_widgets.cpp

; 723  :     return ButtonEx(label, size_arg, ImGuiButtonFlags_None);

	xor	r8d, r8d
	lea	rdx, QWORD PTR $T13[rsp]
	lea	rcx, OFFSET FLAT:??_C@_06BFGAPCKF@Export@
	call	?ButtonEx@ImGui@@YA_NPEBDAEBUImVec2@@H@Z ; ImGui::ButtonEx
; File H:\Paul\switchemulator\Zelda TotK\MapEditorV4\OldVersion\MapEditor\UITools.cpp

; 34   : 	if (ImGui::Button("Export", ImVec2(ImGui::GetWindowSize().x * 0.5f - ImGui::GetStyle().FramePadding.x, 0)))

	test	al, al
	je	SHORT $LN108@DrawToolsW
; File H:\Paul\switchemulator\Zelda TotK\MapEditorV4\OldVersion\MapEditor\PopupExportMod.cpp

; 48   : 	Func = Callback;

	lea	rax, OFFSET FLAT:?<lambda_invoker_cdecl>@<lambda_1>@?9??DrawToolsWindow@UITools@@YAXXZ@SA@V?$basic_string@DU?$char_traits@D@std@@V?$allocator@D@2@@std@@@Z ; `UITools::DrawToolsWindow'::`10'::<lambda_1>::<lambda_invoker_cdecl>
	mov	QWORD PTR ?Func@PopupExportMod@@3P6AXV?$basic_string@DU?$char_traits@D@std@@V?$allocator@D@2@@std@@@ZEA, rax ; PopupExportMod::Func

; 49   : 	IsOpen = true;

	mov	BYTE PTR ?IsOpen@PopupExportMod@@3_NA, 1 ; PopupExportMod::IsOpen
; File C:\Program Files\Microsoft Visual Studio\2022\Community\VC\Tools\MSVC\14.37.32822\include\xstring

; 3156 :         if (this == _STD addressof(_Right)) {

	lea	rcx, OFFSET FLAT:?Path@PopupExportMod@@3V?$basic_string@DU?$char_traits@D@std@@V?$allocator@D@2@@std@@A ; PopupExportMod::Path
	lea	rdx, OFFSET FLAT:?ExportDir@Editor@@3V?$basic_string@DU?$char_traits@D@std@@V?$allocator@D@2@@std@@A ; Editor::ExportDir
	cmp	rcx, rdx
	je	SHORT $LN108@DrawToolsW

; 2236 :         if (_Large_string_engaged()) {

	cmp	QWORD PTR ?ExportDir@Editor@@3V?$basic_string@DU?$char_traits@D@std@@V?$allocator@D@2@@std@@A+24, 16
	cmovae	rdx, QWORD PTR ?ExportDir@Editor@@3V?$basic_string@DU?$char_traits@D@std@@V?$allocator@D@2@@std@@A

; 3192 :         assign(_Right._Mypair._Myval2._Myptr(), _Right._Mypair._Myval2._Mysize);

	mov	r8, QWORD PTR ?ExportDir@Editor@@3V?$basic_string@DU?$char_traits@D@std@@V?$allocator@D@2@@std@@A+16
	call	?assign@?$basic_string@DU?$char_traits@D@std@@V?$allocator@D@2@@std@@QEAAAEAV12@QEBD_K@Z ; std::basic_string<char,std::char_traits<char>,std::allocator<char> >::assign
$LN108@DrawToolsW:
; File H:\Paul\switchemulator\Zelda TotK\MapEditorV4\OldVersion\MapEditor\imgui\imgui_widgets.cpp

; 1465 :     ImGuiWindow* window = g.CurrentWindow;

	mov	rcx, QWORD PTR ?GImGui@@3PEAUImGuiContext@@EA ; GImGui
	mov	rax, QWORD PTR [rcx+16408]

; 1466 :     if (window->SkipItems)

	cmp	BYTE PTR [rax+240], dil
	jne	SHORT $LN91@DrawToolsW

; 1467 :         return;
; 1468 : 
; 1469 :     // Those flags should eventually be configurable by the user
; 1470 :     // FIXME: We cannot g.Style.SeparatorTextBorderSize for thickness as it relates to SeparatorText() which is a decorated separator, not defaulting to 1.0f.
; 1471 :     ImGuiSeparatorFlags flags = (window->DC.LayoutType == ImGuiLayoutType_Horizontal) ? ImGuiSeparatorFlags_Vertical : ImGuiSeparatorFlags_Horizontal;
; 1472 :     flags |= ImGuiSeparatorFlags_SpanAllColumns; // NB: this only applies to legacy Columns() api as they relied on Separator() a lot.

	mov	eax, DWORD PTR [rax+492]
	neg	eax
	sbb	ecx, ecx
	add	ecx, 6

; 1473 :     SeparatorEx(flags, 1.0f);

	movss	xmm1, DWORD PTR __real@3f800000
	call	?SeparatorEx@ImGui@@YAXHM@Z		; ImGui::SeparatorEx
	mov	rcx, QWORD PTR ?GImGui@@3PEAUImGuiContext@@EA ; GImGui
$LN91@DrawToolsW:
; File H:\Paul\switchemulator\Zelda TotK\MapEditorV4\OldVersion\MapEditor\UITools.cpp

; 44   : 	if (UIMapView::Focused)

	cmp	BYTE PTR ?Focused@UIMapView@@3_NA, dil	; UIMapView::Focused
	je	$LN24@DrawToolsW
; File H:\Paul\switchemulator\Zelda TotK\MapEditorV4\OldVersion\MapEditor\imgui\imgui_internal.h

; 3023 :     inline    ImGuiWindow*  GetCurrentWindow()          { ImGuiContext& g = *GImGui; g.CurrentWindow->WriteAccessed = true; return g.CurrentWindow; }

	mov	rax, QWORD PTR [rcx+16408]
	mov	BYTE PTR [rax+237], 1
	mov	r10, QWORD PTR [rcx+16408]
; File H:\Paul\switchemulator\Zelda TotK\MapEditorV4\OldVersion\MapEditor\imgui\imgui_widgets.cpp

; 6429 :     if (window->SkipItems)

	cmp	BYTE PTR [r10+240], dil
	jne	$LN12@DrawToolsW
; File H:\Paul\switchemulator\Zelda TotK\MapEditorV4\OldVersion\MapEditor\imgui\imgui.h

; 1926 :     inline T&           back()                              { IM_ASSERT(Size > 0); return Data[Size - 1]; }

	movsxd	rcx, DWORD PTR [r10+296]
; File H:\Paul\switchemulator\Zelda TotK\MapEditorV4\OldVersion\MapEditor\imgui\imgui.cpp

; 2049 :     seed = ~seed;

	mov	rax, QWORD PTR [r10+304]
	mov	r9d, DWORD PTR [rax+rcx*4-4]
	not	r9d

; 2050 :     ImU32 crc = seed;

	mov	ebx, r9d

; 2051 :     const unsigned char* data = (const unsigned char*)data_p;
; 2052 :     const ImU32* crc32_lut = GCrc32LookupTable;
; 2053 :     if (data_size != 0)
; 2054 :     {
; 2055 :         while (data_size-- != 0)
; 2056 :         {
; 2057 :             unsigned char c = *data++;
; 2058 :             if (c == '#' && data_size >= 2 && data[0] == '#' && data[1] == '#')
; 2059 :                 crc = seed;
; 2060 :             crc = (crc >> 8) ^ crc32_lut[(crc & 0xFF) ^ c];
; 2061 :         }
; 2062 :     }
; 2063 :     else
; 2064 :     {
; 2065 :         while (unsigned char c = *data++)

	lea	rdx, OFFSET FLAT:??_C@_06EPLDPNDB@Render@+1
	mov	r8b, 82					; 00000052H
	lea	r11, OFFSET FLAT:?GCrc32LookupTable@@3QBIB
$LL131@DrawToolsW:

; 2066 :         {
; 2067 :             if (c == '#' && data[0] == '#' && data[1] == '#')

	cmp	r8b, 35					; 00000023H
	jne	SHORT $LN136@DrawToolsW
	cmp	BYTE PTR [rdx], r8b
	jne	SHORT $LN136@DrawToolsW
	cmp	BYTE PTR [rdx+1], r8b
	cmove	ebx, r9d
$LN136@DrawToolsW:

; 2068 :                 crc = seed;
; 2069 :             crc = (crc >> 8) ^ crc32_lut[(crc & 0xFF) ^ c];

	movzx	ecx, bl
	movzx	eax, r8b
	xor	rcx, rax
	shr	ebx, 8
	xor	ebx, DWORD PTR [r11+rcx*4]

; 2051 :     const unsigned char* data = (const unsigned char*)data_p;
; 2052 :     const ImU32* crc32_lut = GCrc32LookupTable;
; 2053 :     if (data_size != 0)
; 2054 :     {
; 2055 :         while (data_size-- != 0)
; 2056 :         {
; 2057 :             unsigned char c = *data++;
; 2058 :             if (c == '#' && data_size >= 2 && data[0] == '#' && data[1] == '#')
; 2059 :                 crc = seed;
; 2060 :             crc = (crc >> 8) ^ crc32_lut[(crc & 0xFF) ^ c];
; 2061 :         }
; 2062 :     }
; 2063 :     else
; 2064 :     {
; 2065 :         while (unsigned char c = *data++)

	movzx	r8d, BYTE PTR [rdx]
	inc	rdx
	test	r8b, r8b
	jne	SHORT $LL131@DrawToolsW

; 2070 :         }
; 2071 :     }
; 2072 :     return ~crc;

	not	ebx

; 3854 :     ImGuiContext& g = *Ctx;

	mov	rax, QWORD PTR [r10]

; 3855 :     if (g.DebugHookIdInfo == id)

	cmp	DWORD PTR [rax+16480], ebx
	jne	SHORT $LN122@DrawToolsW

; 3856 :         ImGui::DebugHookIdInfo(id, ImGuiDataType_String, str, str_end);

	lea	r8, OFFSET FLAT:??_C@_06EPLDPNDB@Render@
	mov	edx, 11
	mov	ecx, ebx
	call	?DebugHookIdInfo@ImGui@@YAXIHPEBX0@Z	; ImGui::DebugHookIdInfo
$LN122@DrawToolsW:
; File H:\Paul\switchemulator\Zelda TotK\MapEditorV4\OldVersion\MapEditor\imgui\imgui_widgets.cpp

; 6432 :     return TreeNodeBehavior(window->GetID(label), flags | ImGuiTreeNodeFlags_CollapsingHeader, label);

	xor	r9d, r9d
	lea	r8, OFFSET FLAT:??_C@_06EPLDPNDB@Render@
	lea	edx, QWORD PTR [r9+58]
	mov	ecx, ebx
	call	?TreeNodeBehavior@ImGui@@YA_NIHPEBD0@Z	; ImGui::TreeNodeBehavior
; File H:\Paul\switchemulator\Zelda TotK\MapEditorV4\OldVersion\MapEditor\UITools.cpp

; 46   : 		if (ImGui::CollapsingHeader("Render", ImGuiTreeNodeFlags_::ImGuiTreeNodeFlags_DefaultOpen))

	test	al, al
	je	$LN12@DrawToolsW

; 47   : 		{
; 48   : 			ImGui::Indent();

	movaps	xmm0, xmm7
	call	?Indent@ImGui@@YAXM@Z			; ImGui::Indent

; 49   : 			ImGui::Checkbox("Visible actors", &UIMapView::RenderSettings.RenderVisibleActors);

	lea	rdx, OFFSET FLAT:?RenderSettings@UIMapView@@3URenderingSettingsStruct@1@A ; UIMapView::RenderSettings
	lea	rcx, OFFSET FLAT:??_C@_0P@KHDBJKCM@Visible?5actors@
	call	?Checkbox@ImGui@@YA_NPEBDPEA_N@Z	; ImGui::Checkbox

; 50   : 			ImGui::Checkbox("Invisible actors", &UIMapView::RenderSettings.RenderInvisibleActors);

	lea	rdx, OFFSET FLAT:?RenderSettings@UIMapView@@3URenderingSettingsStruct@1@A+1
	lea	rcx, OFFSET FLAT:??_C@_0BB@BEPLMMON@Invisible?5actors@
	call	?Checkbox@ImGui@@YA_NPEBDPEA_N@Z	; ImGui::Checkbox

; 51   : 			ImGui::Indent();

	movaps	xmm0, xmm7
	call	?Indent@ImGui@@YAXM@Z			; ImGui::Indent

; 52   : 			if (!UIMapView::RenderSettings.RenderInvisibleActors) ImGui::BeginDisabled();

	cmp	BYTE PTR ?RenderSettings@UIMapView@@3URenderingSettingsStruct@1@A+1, dil
	jne	SHORT $LN13@DrawToolsW
	call	?BeginDisabled@ImGui@@YAX_N@Z		; ImGui::BeginDisabled
$LN13@DrawToolsW:

; 53   : 			ImGui::Checkbox("Areas", &UIMapView::RenderSettings.RenderAreas);

	lea	rdx, OFFSET FLAT:?RenderSettings@UIMapView@@3URenderingSettingsStruct@1@A+2
	lea	rcx, OFFSET FLAT:??_C@_05EINELICJ@Areas@
	call	?Checkbox@ImGui@@YA_NPEBDPEA_N@Z	; ImGui::Checkbox

; 54   : 			if (!UIMapView::RenderSettings.RenderInvisibleActors) ImGui::EndDisabled();

	cmp	BYTE PTR ?RenderSettings@UIMapView@@3URenderingSettingsStruct@1@A+1, dil
	jne	SHORT $LN14@DrawToolsW
	call	?EndDisabled@ImGui@@YAXXZ		; ImGui::EndDisabled
$LN14@DrawToolsW:

; 55   : 			ImGui::Unindent();

	movaps	xmm0, xmm7
	call	?Unindent@ImGui@@YAXM@Z			; ImGui::Unindent

; 56   : 			ImGui::Checkbox("Far actors", &UIMapView::RenderSettings.RenderFarActors);

	lea	rdx, OFFSET FLAT:?RenderSettings@UIMapView@@3URenderingSettingsStruct@1@A+3
	lea	rcx, OFFSET FLAT:??_C@_0L@CMFCHGAA@Far?5actors@
	call	?Checkbox@ImGui@@YA_NPEBDPEA_N@Z	; ImGui::Checkbox

; 57   : 			ImGui::Checkbox("NPCs", &UIMapView::RenderSettings.RenderNPCs);

	lea	rdx, OFFSET FLAT:?RenderSettings@UIMapView@@3URenderingSettingsStruct@1@A+4
	lea	rcx, OFFSET FLAT:??_C@_04GDNNPIME@NPCs@
	call	?Checkbox@ImGui@@YA_NPEBDPEA_N@Z	; ImGui::Checkbox

; 58   : 			ImGui::Checkbox("NavMesh", &UIMapView::RenderSettings.RenderNavMesh);

	lea	rdx, OFFSET FLAT:?RenderSettings@UIMapView@@3URenderingSettingsStruct@1@A+6
	lea	rcx, OFFSET FLAT:??_C@_07BHIPFKL@NavMesh@
	call	?Checkbox@ImGui@@YA_NPEBDPEA_N@Z	; ImGui::Checkbox

; 59   : 			ImGui::Unindent();

	movaps	xmm0, xmm7
	call	?Unindent@ImGui@@YAXM@Z			; ImGui::Unindent
$LN12@DrawToolsW:

; 60   : 		}
; 61   : 		if (SceneMgr::SceneType == SceneMgr::Type::SmallDungeon && !Editor::Identifier.empty())

	cmp	DWORD PTR ?SceneType@SceneMgr@@3W4Type@1@A, 4 ; SceneMgr::SceneType
	jne	$LN1328@DrawToolsW
	cmp	QWORD PTR ?Identifier@Editor@@3V?$basic_string@DU?$char_traits@D@std@@V?$allocator@D@2@@std@@A+16, rdi
	je	$LN1328@DrawToolsW

; 62   : 		{
; 63   : 			if (ImGui::CollapsingHeader("SmallDungeon", ImGuiTreeNodeFlags_::ImGuiTreeNodeFlags_DefaultOpen))

	mov	edx, 32					; 00000020H
	lea	rcx, OFFSET FLAT:??_C@_0N@KMIGGLHL@SmallDungeon@
	call	?CollapsingHeader@ImGui@@YA_NPEBDH@Z	; ImGui::CollapsingHeader
	test	al, al
	je	$LN1328@DrawToolsW

; 64   : 			{
; 65   : 				ImGui::Indent();

	movaps	xmm0, xmm7
	call	?Indent@ImGui@@YAXM@Z			; ImGui::Indent

; 66   : 				if (UIOutliner::SelectedActor == nullptr)

	cmp	QWORD PTR ?SelectedActor@UIOutliner@@3PEAUActor@@EA, rdi ; UIOutliner::SelectedActor
	jne	SHORT $LN17@DrawToolsW

; 67   : 					ImGui::BeginDisabled();

	call	?BeginDisabled@ImGui@@YAX_N@Z		; ImGui::BeginDisabled
$LN17@DrawToolsW:
; File H:\Paul\switchemulator\Zelda TotK\MapEditorV4\OldVersion\MapEditor\imgui\imgui.h

; 270  :     constexpr ImVec2(float _x, float _y)    : x(_x), y(_y) { }

	mov	QWORD PTR $T12[rsp], rdi
; File H:\Paul\switchemulator\Zelda TotK\MapEditorV4\OldVersion\MapEditor\imgui\imgui_widgets.cpp

; 723  :     return ButtonEx(label, size_arg, ImGuiButtonFlags_None);

	xor	r8d, r8d
	lea	rdx, QWORD PTR $T12[rsp]
	lea	rcx, OFFSET FLAT:??_C@_0BF@PMELGHKF@StartPos?5to?5selected@
	call	?ButtonEx@ImGui@@YA_NPEBDAEBUImVec2@@H@Z ; ImGui::ButtonEx
; File H:\Paul\switchemulator\Zelda TotK\MapEditorV4\OldVersion\MapEditor\UITools.cpp

; 68   : 				if (ImGui::Button("StartPos to selected"))

	mov	r14, 9223372036854775807		; 7fffffffffffffffH
	lea	rsi, OFFSET FLAT:?Identifier@Editor@@3V?$basic_string@DU?$char_traits@D@std@@V?$allocator@D@2@@std@@A ; Editor::Identifier
	test	al, al
	je	$LN960@DrawToolsW
	xor	edx, edx
	mov	r8d, 224				; 000000e0H
	lea	rcx, QWORD PTR StartPosByml$67[rbp-256]
	call	memset
	xorps	xmm0, xmm0
; File C:\Program Files\Microsoft Visual Studio\2022\Community\VC\Tools\MSVC\14.37.32822\include\xstring

; 2284 :         _CONSTEXPR20 _Bxty() noexcept : _Buf() {} // user-provided, for fancy pointers

	movups	XMMWORD PTR $T54[rbp-256], xmm0

; 2293 :     size_type _Mysize = 0; // current length of string

	mov	QWORD PTR $T54[rbp-240], rdi

; 2294 :     size_type _Myres  = 0; // current storage reserved for string

	mov	QWORD PTR $T54[rbp-232], rdi

; 2540 :         _Construct<_Construct_strategy::_From_ptr>(_Ptr, _Convert_size<size_type>(_Traits::length(_Ptr)));

	mov	r8d, 56					; 00000038H
	lea	rdx, OFFSET FLAT:??_C@_0DJ@OLAKHFGA@Banc?1SmallDungeon?1StartPos?1Smal@
	lea	rcx, QWORD PTR $T54[rbp-256]
	call	??$_Construct@$00PEBD@?$basic_string@DU?$char_traits@D@std@@V?$allocator@D@2@@std@@AEAAXQEBD_K@Z ; std::basic_string<char,std::char_traits<char>,std::allocator<char> >::_Construct<1,char const *>
; File H:\Paul\switchemulator\Zelda TotK\MapEditorV4\OldVersion\MapEditor\UITools.cpp

; 70   : 					BymlFile StartPosByml(ZStdFile::Decompress(Editor::GetRomFSFile("Banc/SmallDungeon/StartPos/SmallDungeon.startpos.byml.zs"), ZStdFile::Dictionary::Base).Data);

	mov	r8b, 1
	lea	rdx, QWORD PTR $T54[rbp-256]
	lea	rcx, QWORD PTR $T59[rbp-256]
	call	?GetRomFSFile@Editor@@YA?AV?$basic_string@DU?$char_traits@D@std@@V?$allocator@D@2@@std@@V23@_N@Z ; Editor::GetRomFSFile
	xor	r8d, r8d
	mov	rdx, rax
	lea	rcx, QWORD PTR $T61[rbp-256]
	call	?Decompress@ZStdFile@@YA?AUResult@1@V?$basic_string@DU?$char_traits@D@std@@V?$allocator@D@2@@std@@W4Dictionary@1@@Z ; ZStdFile::Decompress
	npad	1
; File C:\Program Files\Microsoft Visual Studio\2022\Community\VC\Tools\MSVC\14.37.32822\include\utility

; 754  :     _Ty _Old_val = static_cast<_Ty&&>(_Val);

	mov	r8, QWORD PTR [rax+16]

; 755  :     _Val         = static_cast<_Other&&>(_New_val);

	mov	QWORD PTR [rax+16], rdi

; 754  :     _Ty _Old_val = static_cast<_Ty&&>(_Val);

	mov	rdx, QWORD PTR [rax+8]

; 755  :     _Val         = static_cast<_Other&&>(_New_val);

	mov	QWORD PTR [rax+8], rdi

; 754  :     _Ty _Old_val = static_cast<_Ty&&>(_Val);

	mov	rcx, QWORD PTR [rax]

; 755  :     _Val         = static_cast<_Other&&>(_New_val);

	mov	QWORD PTR [rax], rdi
; File C:\Program Files\Microsoft Visual Studio\2022\Community\VC\Tools\MSVC\14.37.32822\include\vector

; 401  :         : _Myfirst(_First), _Mylast(_Last), _Myend(_End) {}

	mov	QWORD PTR $T63[rbp-256], rcx
	mov	QWORD PTR $T63[rbp-248], rdx
	mov	QWORD PTR $T63[rbp-240], r8
; File H:\Paul\switchemulator\Zelda TotK\MapEditorV4\OldVersion\MapEditor\UITools.cpp

; 70   : 					BymlFile StartPosByml(ZStdFile::Decompress(Editor::GetRomFSFile("Banc/SmallDungeon/StartPos/SmallDungeon.startpos.byml.zs"), ZStdFile::Dictionary::Base).Data);

	lea	rdx, QWORD PTR $T63[rbp-256]
	lea	rcx, QWORD PTR StartPosByml$67[rbp-256]
	call	??0BymlFile@@QEAA@V?$vector@EV?$allocator@E@std@@@std@@@Z ; BymlFile::BymlFile
	npad	1
; File C:\Program Files\Microsoft Visual Studio\2022\Community\VC\Tools\MSVC\14.37.32822\include\vector

; 2044 :         if (_Myfirst) { // destroy and deallocate old array

	mov	rcx, QWORD PTR $T61[rbp-256]
	test	rcx, rcx
	je	SHORT $LN687@DrawToolsW

; 2045 :             _Destroy_range(_Myfirst, _Mylast, _Al);
; 2046 :             _ASAN_VECTOR_REMOVE;
; 2047 :             _Al.deallocate(_Myfirst, static_cast<size_type>(_Myend - _Myfirst));

	mov	rdx, QWORD PTR $T61[rbp-240]
	sub	rdx, rcx
; File C:\Program Files\Microsoft Visual Studio\2022\Community\VC\Tools\MSVC\14.37.32822\include\xmemory

; 969  :         _Deallocate<_New_alignof<_Ty>>(_Ptr, sizeof(_Ty) * _Count);

	mov	rax, rcx

; 261  :         if (_Bytes >= _Big_allocation_threshold) { // boost the alignment of big allocations to help autovectorization

	cmp	rdx, 4096				; 00001000H
	jb	SHORT $LN705@DrawToolsW

; 157  :     _Bytes += _Non_user_size;

	add	rdx, 39					; 00000027H

; 158  : 
; 159  :     const uintptr_t* const _Ptr_user = static_cast<uintptr_t*>(_Ptr);
; 160  :     const uintptr_t _Ptr_container   = _Ptr_user[-1];

	mov	rcx, QWORD PTR [rcx-8]
	sub	rax, rcx

; 174  :     _STL_VERIFY(_Back_shift >= _Min_back_shift && _Back_shift <= _Non_user_size, "invalid argument");

	add	rax, -8
	cmp	rax, 31
	jbe	SHORT $LN705@DrawToolsW
	call	QWORD PTR __imp__invalid_parameter_noinfo_noreturn
	int	3
$LN705@DrawToolsW:

; 265  :         ::operator delete(_Ptr, _Bytes);

	call	??3@YAXPEAX_K@Z				; operator delete
; File C:\Program Files\Microsoft Visual Studio\2022\Community\VC\Tools\MSVC\14.37.32822\include\vector

; 2049 :             _Myfirst = nullptr;

	mov	QWORD PTR $T61[rbp-256], rdi
	xorps	xmm0, xmm0

; 2050 :             _Mylast  = nullptr;

	movdqu	XMMWORD PTR $T61[rbp-248], xmm0
$LN687@DrawToolsW:
	xorps	xmm0, xmm0
; File C:\Program Files\Microsoft Visual Studio\2022\Community\VC\Tools\MSVC\14.37.32822\include\xstring

; 2284 :         _CONSTEXPR20 _Bxty() noexcept : _Buf() {} // user-provided, for fancy pointers

	movups	XMMWORD PTR $T25[rsp], xmm0

; 2293 :     size_type _Mysize = 0; // current length of string

	mov	QWORD PTR $T25[rsp+16], rdi

; 2294 :     size_type _Myres  = 0; // current storage reserved for string

	mov	QWORD PTR $T25[rsp+24], rdi

; 2540 :         _Construct<_Construct_strategy::_From_ptr>(_Ptr, _Convert_size<size_type>(_Traits::length(_Ptr)));

	mov	r8d, 10
	lea	rdx, OFFSET FLAT:??_C@_0L@BHNPBHIE@OnElevator@
	lea	rcx, QWORD PTR $T25[rsp]
	call	??$_Construct@$00PEBD@?$basic_string@DU?$char_traits@D@std@@V?$allocator@D@2@@std@@AEAAXQEBD_K@Z ; std::basic_string<char,std::char_traits<char>,std::allocator<char> >::_Construct<1,char const *>
; File H:\Paul\switchemulator\Zelda TotK\MapEditorV4\OldVersion\MapEditor\UITools.cpp

; 72   : 					if (StartPosByml.GetNode("OnElevator")->HasChild("Dungeon" + Editor::Identifier))

	lea	rdx, QWORD PTR $T25[rsp]
	lea	rcx, QWORD PTR StartPosByml$67[rbp-256]
	call	?GetNode@BymlFile@@QEAAPEAVNode@1@V?$basic_string@DU?$char_traits@D@std@@V?$allocator@D@2@@std@@@Z ; BymlFile::GetNode
	mov	rbx, rax
; File C:\Program Files\Microsoft Visual Studio\2022\Community\VC\Tools\MSVC\14.37.32822\include\xstring

; 4915 :     const auto _Right_size = _Right.size();

	mov	rdx, QWORD PTR ?Identifier@Editor@@3V?$basic_string@DU?$char_traits@D@std@@V?$allocator@D@2@@std@@A+16

; 4916 :     if (_Right.max_size() - _Right_size < _Left_size) {

	mov	rcx, r14
	sub	rcx, rdx
	cmp	rcx, 7
	jb	$LN1321@DrawToolsW

; 2236 :         if (_Large_string_engaged()) {

	mov	rcx, rsi
	cmp	QWORD PTR ?Identifier@Editor@@3V?$basic_string@DU?$char_traits@D@std@@V?$allocator@D@2@@std@@A+24, 16
	cmovae	rcx, QWORD PTR ?Identifier@Editor@@3V?$basic_string@DU?$char_traits@D@std@@V?$allocator@D@2@@std@@A

; 4920 :     return {_String_constructor_concat_tag{}, _Right, _Left, _Left_size, _Right.c_str(), _Right_size};

	mov	QWORD PTR [rsp+48], rdx
	mov	QWORD PTR [rsp+40], rcx
	mov	QWORD PTR [rsp+32], 7
	lea	r9, OFFSET FLAT:??_C@_07CELLBLHP@Dungeon@
	lea	rcx, QWORD PTR $T50[rbp-256]
	call	??0?$basic_string@DU?$char_traits@D@std@@V?$allocator@D@2@@std@@QEAA@U_String_constructor_concat_tag@1@AEBV01@QEBD_K23@Z ; std::basic_string<char,std::char_traits<char>,std::allocator<char> >::basic_string<char,std::char_traits<char>,std::allocator<char> >
	mov	r15d, 8
; File H:\Paul\switchemulator\Zelda TotK\MapEditorV4\OldVersion\MapEditor\UITools.cpp

; 72   : 					if (StartPosByml.GetNode("OnElevator")->HasChild("Dungeon" + Editor::Identifier))

	lea	rdx, QWORD PTR $T50[rbp-256]
	mov	rcx, rbx
	call	?HasChild@Node@BymlFile@@QEAA_NV?$basic_string@DU?$char_traits@D@std@@V?$allocator@D@2@@std@@@Z ; BymlFile::Node::HasChild
	test	al, al
	je	$LN19@DrawToolsW
	xorps	xmm0, xmm0
; File C:\Program Files\Microsoft Visual Studio\2022\Community\VC\Tools\MSVC\14.37.32822\include\xstring

; 2284 :         _CONSTEXPR20 _Bxty() noexcept : _Buf() {} // user-provided, for fancy pointers

	movups	XMMWORD PTR $T24[rsp], xmm0

; 2293 :     size_type _Mysize = 0; // current length of string

	mov	QWORD PTR $T24[rsp+16], rdi

; 2294 :     size_type _Myres  = 0; // current storage reserved for string

	mov	QWORD PTR $T24[rsp+24], rdi

; 2540 :         _Construct<_Construct_strategy::_From_ptr>(_Ptr, _Convert_size<size_type>(_Traits::length(_Ptr)));

	lea	r8d, QWORD PTR [r15+2]
	lea	rdx, OFFSET FLAT:??_C@_0L@BHNPBHIE@OnElevator@
	lea	rcx, QWORD PTR $T24[rsp]
	call	??$_Construct@$00PEBD@?$basic_string@DU?$char_traits@D@std@@V?$allocator@D@2@@std@@AEAAXQEBD_K@Z ; std::basic_string<char,std::char_traits<char>,std::allocator<char> >::_Construct<1,char const *>
; File H:\Paul\switchemulator\Zelda TotK\MapEditorV4\OldVersion\MapEditor\UITools.cpp

; 74   : 						StartPosByml.GetNode("OnElevator")->GetChild("Dungeon" + Editor::Identifier)->GetChild("Trans")->GetChild(0)->SetValue<float>(UIOutliner::SelectedActor->Translate.GetX());

	lea	rdx, QWORD PTR $T24[rsp]
	lea	rcx, QWORD PTR StartPosByml$67[rbp-256]
	call	?GetNode@BymlFile@@QEAAPEAVNode@1@V?$basic_string@DU?$char_traits@D@std@@V?$allocator@D@2@@std@@@Z ; BymlFile::GetNode
	mov	rbx, rax
; File C:\Program Files\Microsoft Visual Studio\2022\Community\VC\Tools\MSVC\14.37.32822\include\xstring

; 4915 :     const auto _Right_size = _Right.size();

	mov	rdx, QWORD PTR ?Identifier@Editor@@3V?$basic_string@DU?$char_traits@D@std@@V?$allocator@D@2@@std@@A+16

; 4916 :     if (_Right.max_size() - _Right_size < _Left_size) {

	mov	rcx, r14
	sub	rcx, rdx
	cmp	rcx, 7
	jb	$LN1321@DrawToolsW

; 2236 :         if (_Large_string_engaged()) {

	mov	rcx, rsi
	cmp	QWORD PTR ?Identifier@Editor@@3V?$basic_string@DU?$char_traits@D@std@@V?$allocator@D@2@@std@@A+24, 16
	cmovae	rcx, QWORD PTR ?Identifier@Editor@@3V?$basic_string@DU?$char_traits@D@std@@V?$allocator@D@2@@std@@A

; 4920 :     return {_String_constructor_concat_tag{}, _Right, _Left, _Left_size, _Right.c_str(), _Right_size};

	mov	QWORD PTR [rsp+48], rdx
	mov	QWORD PTR [rsp+40], rcx
	mov	QWORD PTR [rsp+32], 7
	lea	r9, OFFSET FLAT:??_C@_07CELLBLHP@Dungeon@
	lea	rcx, QWORD PTR $T65[rbp-256]
	call	??0?$basic_string@DU?$char_traits@D@std@@V?$allocator@D@2@@std@@QEAA@U_String_constructor_concat_tag@1@AEBV01@QEBD_K23@Z ; std::basic_string<char,std::char_traits<char>,std::allocator<char> >::basic_string<char,std::char_traits<char>,std::allocator<char> >
; File H:\Paul\switchemulator\Zelda TotK\MapEditorV4\OldVersion\MapEditor\UITools.cpp

; 74   : 						StartPosByml.GetNode("OnElevator")->GetChild("Dungeon" + Editor::Identifier)->GetChild("Trans")->GetChild(0)->SetValue<float>(UIOutliner::SelectedActor->Translate.GetX());

	lea	rdx, QWORD PTR $T65[rbp-256]
	mov	rcx, rbx
	call	?GetChild@Node@BymlFile@@QEAAPEAV12@V?$basic_string@DU?$char_traits@D@std@@V?$allocator@D@2@@std@@@Z ; BymlFile::Node::GetChild
	mov	rbx, rax
	xorps	xmm0, xmm0
; File C:\Program Files\Microsoft Visual Studio\2022\Community\VC\Tools\MSVC\14.37.32822\include\xstring

; 2284 :         _CONSTEXPR20 _Bxty() noexcept : _Buf() {} // user-provided, for fancy pointers

	movups	XMMWORD PTR $T40[rbp-256], xmm0

; 2293 :     size_type _Mysize = 0; // current length of string

	mov	QWORD PTR $T40[rbp-240], rdi

; 2294 :     size_type _Myres  = 0; // current storage reserved for string

	mov	QWORD PTR $T40[rbp-232], rdi

; 2540 :         _Construct<_Construct_strategy::_From_ptr>(_Ptr, _Convert_size<size_type>(_Traits::length(_Ptr)));

	lea	r8d, QWORD PTR [r15-3]
	lea	rdx, OFFSET FLAT:??_C@_05JPPBPLGL@Trans@
	lea	rcx, QWORD PTR $T40[rbp-256]
	call	??$_Construct@$00PEBD@?$basic_string@DU?$char_traits@D@std@@V?$allocator@D@2@@std@@AEAAXQEBD_K@Z ; std::basic_string<char,std::char_traits<char>,std::allocator<char> >::_Construct<1,char const *>
; File H:\Paul\switchemulator\Zelda TotK\MapEditorV4\OldVersion\MapEditor\UITools.cpp

; 74   : 						StartPosByml.GetNode("OnElevator")->GetChild("Dungeon" + Editor::Identifier)->GetChild("Trans")->GetChild(0)->SetValue<float>(UIOutliner::SelectedActor->Translate.GetX());

	lea	rdx, QWORD PTR $T40[rbp-256]
	mov	rcx, rbx
	call	?GetChild@Node@BymlFile@@QEAAPEAV12@V?$basic_string@DU?$char_traits@D@std@@V?$allocator@D@2@@std@@@Z ; BymlFile::Node::GetChild
; File C:\Program Files\Microsoft Visual Studio\2022\Community\VC\Tools\MSVC\14.37.32822\include\vector

; 1889 :         return _My_data._Myfirst[_Pos];

	mov	rcx, QWORD PTR [rax+64]
; File H:\Paul\switchemulator\Zelda TotK\MapEditorV4\OldVersion\MapEditor\Vector3F.cpp

; 30   : 	return this->m_Data[0];

	mov	rax, QWORD PTR ?SelectedActor@UIOutliner@@3PEAUActor@@EA ; UIOutliner::SelectedActor
; File H:\Paul\switchemulator\Zelda TotK\MapEditorV4\OldVersion\MapEditor\UITools.cpp

; 74   : 						StartPosByml.GetNode("OnElevator")->GetChild("Dungeon" + Editor::Identifier)->GetChild("Trans")->GetChild(0)->SetValue<float>(UIOutliner::SelectedActor->Translate.GetX());

	movss	xmm1, DWORD PTR [rax+52]
	call	??$SetValue@M@Node@BymlFile@@QEAAXM@Z	; BymlFile::Node::SetValue<float>
	xorps	xmm0, xmm0
; File C:\Program Files\Microsoft Visual Studio\2022\Community\VC\Tools\MSVC\14.37.32822\include\xstring

; 2284 :         _CONSTEXPR20 _Bxty() noexcept : _Buf() {} // user-provided, for fancy pointers

	movups	XMMWORD PTR $T23[rsp], xmm0

; 2293 :     size_type _Mysize = 0; // current length of string

	mov	QWORD PTR $T23[rsp+16], rdi

; 2294 :     size_type _Myres  = 0; // current storage reserved for string

	mov	QWORD PTR $T23[rsp+24], rdi

; 2540 :         _Construct<_Construct_strategy::_From_ptr>(_Ptr, _Convert_size<size_type>(_Traits::length(_Ptr)));

	lea	r8d, QWORD PTR [r15+2]
	lea	rdx, OFFSET FLAT:??_C@_0L@BHNPBHIE@OnElevator@
	lea	rcx, QWORD PTR $T23[rsp]
	call	??$_Construct@$00PEBD@?$basic_string@DU?$char_traits@D@std@@V?$allocator@D@2@@std@@AEAAXQEBD_K@Z ; std::basic_string<char,std::char_traits<char>,std::allocator<char> >::_Construct<1,char const *>
; File H:\Paul\switchemulator\Zelda TotK\MapEditorV4\OldVersion\MapEditor\UITools.cpp

; 75   : 						StartPosByml.GetNode("OnElevator")->GetChild("Dungeon" + Editor::Identifier)->GetChild("Trans")->GetChild(1)->SetValue<float>(UIOutliner::SelectedActor->Translate.GetY());

	lea	rdx, QWORD PTR $T23[rsp]
	lea	rcx, QWORD PTR StartPosByml$67[rbp-256]
	call	?GetNode@BymlFile@@QEAAPEAVNode@1@V?$basic_string@DU?$char_traits@D@std@@V?$allocator@D@2@@std@@@Z ; BymlFile::GetNode
	mov	rbx, rax
; File C:\Program Files\Microsoft Visual Studio\2022\Community\VC\Tools\MSVC\14.37.32822\include\xstring

; 4915 :     const auto _Right_size = _Right.size();

	mov	rdx, QWORD PTR ?Identifier@Editor@@3V?$basic_string@DU?$char_traits@D@std@@V?$allocator@D@2@@std@@A+16

; 4916 :     if (_Right.max_size() - _Right_size < _Left_size) {

	mov	rcx, r14
	sub	rcx, rdx
	cmp	rcx, 7
	jb	$LN1321@DrawToolsW

; 2236 :         if (_Large_string_engaged()) {

	mov	rcx, rsi
	cmp	QWORD PTR ?Identifier@Editor@@3V?$basic_string@DU?$char_traits@D@std@@V?$allocator@D@2@@std@@A+24, 16
	cmovae	rcx, QWORD PTR ?Identifier@Editor@@3V?$basic_string@DU?$char_traits@D@std@@V?$allocator@D@2@@std@@A

; 4920 :     return {_String_constructor_concat_tag{}, _Right, _Left, _Left_size, _Right.c_str(), _Right_size};

	mov	QWORD PTR [rsp+48], rdx
	mov	QWORD PTR [rsp+40], rcx
	mov	QWORD PTR [rsp+32], 7
	lea	r9, OFFSET FLAT:??_C@_07CELLBLHP@Dungeon@
	lea	rcx, QWORD PTR $T49[rbp-256]
	call	??0?$basic_string@DU?$char_traits@D@std@@V?$allocator@D@2@@std@@QEAA@U_String_constructor_concat_tag@1@AEBV01@QEBD_K23@Z ; std::basic_string<char,std::char_traits<char>,std::allocator<char> >::basic_string<char,std::char_traits<char>,std::allocator<char> >
; File H:\Paul\switchemulator\Zelda TotK\MapEditorV4\OldVersion\MapEditor\UITools.cpp

; 75   : 						StartPosByml.GetNode("OnElevator")->GetChild("Dungeon" + Editor::Identifier)->GetChild("Trans")->GetChild(1)->SetValue<float>(UIOutliner::SelectedActor->Translate.GetY());

	lea	rdx, QWORD PTR $T49[rbp-256]
	mov	rcx, rbx
	call	?GetChild@Node@BymlFile@@QEAAPEAV12@V?$basic_string@DU?$char_traits@D@std@@V?$allocator@D@2@@std@@@Z ; BymlFile::Node::GetChild
	mov	rbx, rax
	xorps	xmm0, xmm0
; File C:\Program Files\Microsoft Visual Studio\2022\Community\VC\Tools\MSVC\14.37.32822\include\xstring

; 2284 :         _CONSTEXPR20 _Bxty() noexcept : _Buf() {} // user-provided, for fancy pointers

	movups	XMMWORD PTR $T39[rbp-256], xmm0

; 2293 :     size_type _Mysize = 0; // current length of string

	mov	QWORD PTR $T39[rbp-240], rdi

; 2294 :     size_type _Myres  = 0; // current storage reserved for string

	mov	QWORD PTR $T39[rbp-232], rdi

; 2540 :         _Construct<_Construct_strategy::_From_ptr>(_Ptr, _Convert_size<size_type>(_Traits::length(_Ptr)));

	lea	r8d, QWORD PTR [r15-3]
	lea	rdx, OFFSET FLAT:??_C@_05JPPBPLGL@Trans@
	lea	rcx, QWORD PTR $T39[rbp-256]
	call	??$_Construct@$00PEBD@?$basic_string@DU?$char_traits@D@std@@V?$allocator@D@2@@std@@AEAAXQEBD_K@Z ; std::basic_string<char,std::char_traits<char>,std::allocator<char> >::_Construct<1,char const *>
; File H:\Paul\switchemulator\Zelda TotK\MapEditorV4\OldVersion\MapEditor\UITools.cpp

; 75   : 						StartPosByml.GetNode("OnElevator")->GetChild("Dungeon" + Editor::Identifier)->GetChild("Trans")->GetChild(1)->SetValue<float>(UIOutliner::SelectedActor->Translate.GetY());

	lea	rdx, QWORD PTR $T39[rbp-256]
	mov	rcx, rbx
	call	?GetChild@Node@BymlFile@@QEAAPEAV12@V?$basic_string@DU?$char_traits@D@std@@V?$allocator@D@2@@std@@@Z ; BymlFile::Node::GetChild
; File C:\Program Files\Microsoft Visual Studio\2022\Community\VC\Tools\MSVC\14.37.32822\include\vector

; 1889 :         return _My_data._Myfirst[_Pos];

	mov	rcx, QWORD PTR [rax+64]
	add	rcx, 88					; 00000058H
; File H:\Paul\switchemulator\Zelda TotK\MapEditorV4\OldVersion\MapEditor\UITools.cpp

; 75   : 						StartPosByml.GetNode("OnElevator")->GetChild("Dungeon" + Editor::Identifier)->GetChild("Trans")->GetChild(1)->SetValue<float>(UIOutliner::SelectedActor->Translate.GetY());

	mov	rax, QWORD PTR ?SelectedActor@UIOutliner@@3PEAUActor@@EA ; UIOutliner::SelectedActor
	movss	xmm1, DWORD PTR [rax+56]
	call	??$SetValue@M@Node@BymlFile@@QEAAXM@Z	; BymlFile::Node::SetValue<float>
	xorps	xmm0, xmm0
; File C:\Program Files\Microsoft Visual Studio\2022\Community\VC\Tools\MSVC\14.37.32822\include\xstring

; 2284 :         _CONSTEXPR20 _Bxty() noexcept : _Buf() {} // user-provided, for fancy pointers

	movups	XMMWORD PTR $T22[rsp], xmm0

; 2293 :     size_type _Mysize = 0; // current length of string

	mov	QWORD PTR $T22[rsp+16], rdi

; 2294 :     size_type _Myres  = 0; // current storage reserved for string

	mov	QWORD PTR $T22[rsp+24], rdi

; 2540 :         _Construct<_Construct_strategy::_From_ptr>(_Ptr, _Convert_size<size_type>(_Traits::length(_Ptr)));

	lea	r8d, QWORD PTR [r15+2]
	lea	rdx, OFFSET FLAT:??_C@_0L@BHNPBHIE@OnElevator@
	lea	rcx, QWORD PTR $T22[rsp]
	call	??$_Construct@$00PEBD@?$basic_string@DU?$char_traits@D@std@@V?$allocator@D@2@@std@@AEAAXQEBD_K@Z ; std::basic_string<char,std::char_traits<char>,std::allocator<char> >::_Construct<1,char const *>
; File H:\Paul\switchemulator\Zelda TotK\MapEditorV4\OldVersion\MapEditor\UITools.cpp

; 76   : 						StartPosByml.GetNode("OnElevator")->GetChild("Dungeon" + Editor::Identifier)->GetChild("Trans")->GetChild(2)->SetValue<float>(UIOutliner::SelectedActor->Translate.GetZ());

	lea	rdx, QWORD PTR $T22[rsp]
	lea	rcx, QWORD PTR StartPosByml$67[rbp-256]
	call	?GetNode@BymlFile@@QEAAPEAVNode@1@V?$basic_string@DU?$char_traits@D@std@@V?$allocator@D@2@@std@@@Z ; BymlFile::GetNode
	mov	rbx, rax
; File C:\Program Files\Microsoft Visual Studio\2022\Community\VC\Tools\MSVC\14.37.32822\include\xstring

; 4915 :     const auto _Right_size = _Right.size();

	mov	rdx, QWORD PTR ?Identifier@Editor@@3V?$basic_string@DU?$char_traits@D@std@@V?$allocator@D@2@@std@@A+16

; 4916 :     if (_Right.max_size() - _Right_size < _Left_size) {

	mov	rcx, r14
	sub	rcx, rdx
	cmp	rcx, 7
	jb	$LN1321@DrawToolsW

; 2236 :         if (_Large_string_engaged()) {

	mov	rcx, rsi
	cmp	QWORD PTR ?Identifier@Editor@@3V?$basic_string@DU?$char_traits@D@std@@V?$allocator@D@2@@std@@A+24, 16
	cmovae	rcx, QWORD PTR ?Identifier@Editor@@3V?$basic_string@DU?$char_traits@D@std@@V?$allocator@D@2@@std@@A

; 4920 :     return {_String_constructor_concat_tag{}, _Right, _Left, _Left_size, _Right.c_str(), _Right_size};

	mov	QWORD PTR [rsp+48], rdx
	mov	QWORD PTR [rsp+40], rcx
	mov	QWORD PTR [rsp+32], 7
	lea	r9, OFFSET FLAT:??_C@_07CELLBLHP@Dungeon@
	lea	rcx, QWORD PTR $T48[rbp-256]
	call	??0?$basic_string@DU?$char_traits@D@std@@V?$allocator@D@2@@std@@QEAA@U_String_constructor_concat_tag@1@AEBV01@QEBD_K23@Z ; std::basic_string<char,std::char_traits<char>,std::allocator<char> >::basic_string<char,std::char_traits<char>,std::allocator<char> >
; File H:\Paul\switchemulator\Zelda TotK\MapEditorV4\OldVersion\MapEditor\UITools.cpp

; 76   : 						StartPosByml.GetNode("OnElevator")->GetChild("Dungeon" + Editor::Identifier)->GetChild("Trans")->GetChild(2)->SetValue<float>(UIOutliner::SelectedActor->Translate.GetZ());

	lea	rdx, QWORD PTR $T48[rbp-256]
	mov	rcx, rbx
	call	?GetChild@Node@BymlFile@@QEAAPEAV12@V?$basic_string@DU?$char_traits@D@std@@V?$allocator@D@2@@std@@@Z ; BymlFile::Node::GetChild
	mov	rbx, rax
	xorps	xmm0, xmm0
; File C:\Program Files\Microsoft Visual Studio\2022\Community\VC\Tools\MSVC\14.37.32822\include\xstring

; 2284 :         _CONSTEXPR20 _Bxty() noexcept : _Buf() {} // user-provided, for fancy pointers

	movups	XMMWORD PTR $T38[rbp-256], xmm0

; 2293 :     size_type _Mysize = 0; // current length of string

	mov	QWORD PTR $T38[rbp-240], rdi

; 2294 :     size_type _Myres  = 0; // current storage reserved for string

	mov	QWORD PTR $T38[rbp-232], rdi

; 2540 :         _Construct<_Construct_strategy::_From_ptr>(_Ptr, _Convert_size<size_type>(_Traits::length(_Ptr)));

	lea	r8d, QWORD PTR [r15-3]
	lea	rdx, OFFSET FLAT:??_C@_05JPPBPLGL@Trans@
	lea	rcx, QWORD PTR $T38[rbp-256]
	call	??$_Construct@$00PEBD@?$basic_string@DU?$char_traits@D@std@@V?$allocator@D@2@@std@@AEAAXQEBD_K@Z ; std::basic_string<char,std::char_traits<char>,std::allocator<char> >::_Construct<1,char const *>
; File H:\Paul\switchemulator\Zelda TotK\MapEditorV4\OldVersion\MapEditor\UITools.cpp

; 76   : 						StartPosByml.GetNode("OnElevator")->GetChild("Dungeon" + Editor::Identifier)->GetChild("Trans")->GetChild(2)->SetValue<float>(UIOutliner::SelectedActor->Translate.GetZ());

	lea	rdx, QWORD PTR $T38[rbp-256]
	mov	rcx, rbx
	call	?GetChild@Node@BymlFile@@QEAAPEAV12@V?$basic_string@DU?$char_traits@D@std@@V?$allocator@D@2@@std@@@Z ; BymlFile::Node::GetChild
; File C:\Program Files\Microsoft Visual Studio\2022\Community\VC\Tools\MSVC\14.37.32822\include\vector

; 1889 :         return _My_data._Myfirst[_Pos];

	mov	rcx, QWORD PTR [rax+64]
	add	rcx, 176				; 000000b0H
; File H:\Paul\switchemulator\Zelda TotK\MapEditorV4\OldVersion\MapEditor\UITools.cpp

; 76   : 						StartPosByml.GetNode("OnElevator")->GetChild("Dungeon" + Editor::Identifier)->GetChild("Trans")->GetChild(2)->SetValue<float>(UIOutliner::SelectedActor->Translate.GetZ());

	mov	rax, QWORD PTR ?SelectedActor@UIOutliner@@3PEAUActor@@EA ; UIOutliner::SelectedActor
	movss	xmm1, DWORD PTR [rax+60]
	call	??$SetValue@M@Node@BymlFile@@QEAAXM@Z	; BymlFile::Node::SetValue<float>
	xorps	xmm0, xmm0
; File C:\Program Files\Microsoft Visual Studio\2022\Community\VC\Tools\MSVC\14.37.32822\include\xstring

; 2284 :         _CONSTEXPR20 _Bxty() noexcept : _Buf() {} // user-provided, for fancy pointers

	movups	XMMWORD PTR $T21[rsp], xmm0

; 2293 :     size_type _Mysize = 0; // current length of string

	mov	QWORD PTR $T21[rsp+16], rdi

; 2294 :     size_type _Myres  = 0; // current storage reserved for string

	mov	QWORD PTR $T21[rsp+24], rdi

; 2540 :         _Construct<_Construct_strategy::_From_ptr>(_Ptr, _Convert_size<size_type>(_Traits::length(_Ptr)));

	lea	r8d, QWORD PTR [r15+2]
	lea	rdx, OFFSET FLAT:??_C@_0L@BHNPBHIE@OnElevator@
	lea	rcx, QWORD PTR $T21[rsp]
	call	??$_Construct@$00PEBD@?$basic_string@DU?$char_traits@D@std@@V?$allocator@D@2@@std@@AEAAXQEBD_K@Z ; std::basic_string<char,std::char_traits<char>,std::allocator<char> >::_Construct<1,char const *>
; File H:\Paul\switchemulator\Zelda TotK\MapEditorV4\OldVersion\MapEditor\UITools.cpp

; 78   : 						StartPosByml.GetNode("OnElevator")->GetChild("Dungeon" + Editor::Identifier)->GetChild("Rot")->GetChild(0)->SetValue<float>(Util::DegreesToRadians(UIOutliner::SelectedActor->Rotate.GetX()));

	lea	rdx, QWORD PTR $T21[rsp]
	lea	rcx, QWORD PTR StartPosByml$67[rbp-256]
	call	?GetNode@BymlFile@@QEAAPEAVNode@1@V?$basic_string@DU?$char_traits@D@std@@V?$allocator@D@2@@std@@@Z ; BymlFile::GetNode
	mov	rbx, rax
; File C:\Program Files\Microsoft Visual Studio\2022\Community\VC\Tools\MSVC\14.37.32822\include\xstring

; 4915 :     const auto _Right_size = _Right.size();

	mov	rdx, QWORD PTR ?Identifier@Editor@@3V?$basic_string@DU?$char_traits@D@std@@V?$allocator@D@2@@std@@A+16

; 4916 :     if (_Right.max_size() - _Right_size < _Left_size) {

	mov	rcx, r14
	sub	rcx, rdx
	cmp	rcx, 7
	jb	$LN1321@DrawToolsW

; 2236 :         if (_Large_string_engaged()) {

	mov	rcx, rsi
	cmp	QWORD PTR ?Identifier@Editor@@3V?$basic_string@DU?$char_traits@D@std@@V?$allocator@D@2@@std@@A+24, 16
	cmovae	rcx, QWORD PTR ?Identifier@Editor@@3V?$basic_string@DU?$char_traits@D@std@@V?$allocator@D@2@@std@@A

; 4920 :     return {_String_constructor_concat_tag{}, _Right, _Left, _Left_size, _Right.c_str(), _Right_size};

	mov	QWORD PTR [rsp+48], rdx
	mov	QWORD PTR [rsp+40], rcx
	mov	QWORD PTR [rsp+32], 7
	lea	r9, OFFSET FLAT:??_C@_07CELLBLHP@Dungeon@
	lea	rcx, QWORD PTR $T47[rbp-256]
	call	??0?$basic_string@DU?$char_traits@D@std@@V?$allocator@D@2@@std@@QEAA@U_String_constructor_concat_tag@1@AEBV01@QEBD_K23@Z ; std::basic_string<char,std::char_traits<char>,std::allocator<char> >::basic_string<char,std::char_traits<char>,std::allocator<char> >
; File H:\Paul\switchemulator\Zelda TotK\MapEditorV4\OldVersion\MapEditor\UITools.cpp

; 78   : 						StartPosByml.GetNode("OnElevator")->GetChild("Dungeon" + Editor::Identifier)->GetChild("Rot")->GetChild(0)->SetValue<float>(Util::DegreesToRadians(UIOutliner::SelectedActor->Rotate.GetX()));

	lea	rdx, QWORD PTR $T47[rbp-256]
	mov	rcx, rbx
	call	?GetChild@Node@BymlFile@@QEAAPEAV12@V?$basic_string@DU?$char_traits@D@std@@V?$allocator@D@2@@std@@@Z ; BymlFile::Node::GetChild
	mov	rbx, rax
	xorps	xmm0, xmm0
; File C:\Program Files\Microsoft Visual Studio\2022\Community\VC\Tools\MSVC\14.37.32822\include\xstring

; 2284 :         _CONSTEXPR20 _Bxty() noexcept : _Buf() {} // user-provided, for fancy pointers

	movups	XMMWORD PTR $T37[rbp-256], xmm0

; 2293 :     size_type _Mysize = 0; // current length of string

	mov	QWORD PTR $T37[rbp-240], rdi

; 2294 :     size_type _Myres  = 0; // current storage reserved for string

	mov	QWORD PTR $T37[rbp-232], rdi

; 2540 :         _Construct<_Construct_strategy::_From_ptr>(_Ptr, _Convert_size<size_type>(_Traits::length(_Ptr)));

	lea	r8d, QWORD PTR [r15-5]
	lea	rdx, OFFSET FLAT:??_C@_03LHGHNHCF@Rot@
	lea	rcx, QWORD PTR $T37[rbp-256]
	call	??$_Construct@$00PEBD@?$basic_string@DU?$char_traits@D@std@@V?$allocator@D@2@@std@@AEAAXQEBD_K@Z ; std::basic_string<char,std::char_traits<char>,std::allocator<char> >::_Construct<1,char const *>
; File H:\Paul\switchemulator\Zelda TotK\MapEditorV4\OldVersion\MapEditor\UITools.cpp

; 78   : 						StartPosByml.GetNode("OnElevator")->GetChild("Dungeon" + Editor::Identifier)->GetChild("Rot")->GetChild(0)->SetValue<float>(Util::DegreesToRadians(UIOutliner::SelectedActor->Rotate.GetX()));

	lea	rdx, QWORD PTR $T37[rbp-256]
	mov	rcx, rbx
	call	?GetChild@Node@BymlFile@@QEAAPEAV12@V?$basic_string@DU?$char_traits@D@std@@V?$allocator@D@2@@std@@@Z ; BymlFile::Node::GetChild
; File C:\Program Files\Microsoft Visual Studio\2022\Community\VC\Tools\MSVC\14.37.32822\include\vector

; 1889 :         return _My_data._Myfirst[_Pos];

	mov	rcx, QWORD PTR [rax+64]
; File H:\Paul\switchemulator\Zelda TotK\MapEditorV4\OldVersion\MapEditor\Vector3F.cpp

; 30   : 	return this->m_Data[0];

	mov	rax, QWORD PTR ?SelectedActor@UIOutliner@@3PEAUActor@@EA ; UIOutliner::SelectedActor
	movss	xmm1, DWORD PTR [rax+76]
; File H:\Paul\switchemulator\Zelda TotK\MapEditorV4\OldVersion\MapEditor\Libraries\include\glm\detail\func_trigonometric.inl

; 13   : 		return degrees * static_cast<genType>(0.01745329251994329576923690768489);

	movss	xmm6, DWORD PTR __real@3c8efa35
	mulss	xmm1, xmm6
; File H:\Paul\switchemulator\Zelda TotK\MapEditorV4\OldVersion\MapEditor\UITools.cpp

; 78   : 						StartPosByml.GetNode("OnElevator")->GetChild("Dungeon" + Editor::Identifier)->GetChild("Rot")->GetChild(0)->SetValue<float>(Util::DegreesToRadians(UIOutliner::SelectedActor->Rotate.GetX()));

	call	??$SetValue@M@Node@BymlFile@@QEAAXM@Z	; BymlFile::Node::SetValue<float>
	xorps	xmm0, xmm0
; File C:\Program Files\Microsoft Visual Studio\2022\Community\VC\Tools\MSVC\14.37.32822\include\xstring

; 2284 :         _CONSTEXPR20 _Bxty() noexcept : _Buf() {} // user-provided, for fancy pointers

	movups	XMMWORD PTR $T20[rsp], xmm0

; 2293 :     size_type _Mysize = 0; // current length of string

	mov	QWORD PTR $T20[rsp+16], rdi

; 2294 :     size_type _Myres  = 0; // current storage reserved for string

	mov	QWORD PTR $T20[rsp+24], rdi

; 2540 :         _Construct<_Construct_strategy::_From_ptr>(_Ptr, _Convert_size<size_type>(_Traits::length(_Ptr)));

	lea	r8d, QWORD PTR [r15+2]
	lea	rdx, OFFSET FLAT:??_C@_0L@BHNPBHIE@OnElevator@
	lea	rcx, QWORD PTR $T20[rsp]
	call	??$_Construct@$00PEBD@?$basic_string@DU?$char_traits@D@std@@V?$allocator@D@2@@std@@AEAAXQEBD_K@Z ; std::basic_string<char,std::char_traits<char>,std::allocator<char> >::_Construct<1,char const *>
; File H:\Paul\switchemulator\Zelda TotK\MapEditorV4\OldVersion\MapEditor\UITools.cpp

; 79   : 						StartPosByml.GetNode("OnElevator")->GetChild("Dungeon" + Editor::Identifier)->GetChild("Rot")->GetChild(1)->SetValue<float>(Util::DegreesToRadians(UIOutliner::SelectedActor->Rotate.GetY()));

	lea	rdx, QWORD PTR $T20[rsp]
	lea	rcx, QWORD PTR StartPosByml$67[rbp-256]
	call	?GetNode@BymlFile@@QEAAPEAVNode@1@V?$basic_string@DU?$char_traits@D@std@@V?$allocator@D@2@@std@@@Z ; BymlFile::GetNode
	mov	rbx, rax
; File C:\Program Files\Microsoft Visual Studio\2022\Community\VC\Tools\MSVC\14.37.32822\include\xstring

; 4915 :     const auto _Right_size = _Right.size();

	mov	rdx, QWORD PTR ?Identifier@Editor@@3V?$basic_string@DU?$char_traits@D@std@@V?$allocator@D@2@@std@@A+16

