; Listing generated by Microsoft (R) Optimizing Compiler Version 19.37.32822.0 

include listing.inc

INCLUDELIB OLDNAMES

PUBLIC	??_C@_06IONACMBM@Number@			; `string'
PUBLIC	??_C@_04KKIPOOLE@Race@				; `string'
PUBLIC	??_C@_05JIMBFNAF@Korog@				; `string'
PUBLIC	??_C@_02PLJDPFIO@00@				; `string'
PUBLIC	??_C@_06JHIPJLFD@SexAge@			; `string'
PUBLIC	??_C@_05EDLAKJEB@_Body@				; `string'
PUBLIC	??_C@_06CCLKLIGB@Korogu@			; `string'
PUBLIC	??_C@_06IOFIIDCB@Body?3?5@			; `string'
PUBLIC	??_C@_05IOBGFCFN@UMii_@				; `string'
;	COMDAT ??_C@_05IOBGFCFN@UMii_@
CONST	SEGMENT
??_C@_05IOBGFCFN@UMii_@ DB 'UMii_', 00H			; `string'
CONST	ENDS
;	COMDAT ??_C@_06IOFIIDCB@Body?3?5@
CONST	SEGMENT
??_C@_06IOFIIDCB@Body?3?5@ DB 'Body: ', 00H		; `string'
CONST	ENDS
;	COMDAT ??_C@_06CCLKLIGB@Korogu@
CONST	SEGMENT
??_C@_06CCLKLIGB@Korogu@ DB 'Korogu', 00H		; `string'
CONST	ENDS
;	COMDAT ??_C@_05EDLAKJEB@_Body@
CONST	SEGMENT
??_C@_05EDLAKJEB@_Body@ DB '_Body', 00H			; `string'
CONST	ENDS
;	COMDAT ??_C@_06JHIPJLFD@SexAge@
CONST	SEGMENT
??_C@_06JHIPJLFD@SexAge@ DB 'SexAge', 00H		; `string'
CONST	ENDS
;	COMDAT ??_C@_02PLJDPFIO@00@
CONST	SEGMENT
??_C@_02PLJDPFIO@00@ DB '00', 00H			; `string'
CONST	ENDS
;	COMDAT ??_C@_05JIMBFNAF@Korog@
CONST	SEGMENT
??_C@_05JIMBFNAF@Korog@ DB 'Korog', 00H			; `string'
CONST	ENDS
;	COMDAT ??_C@_04KKIPOOLE@Race@
CONST	SEGMENT
??_C@_04KKIPOOLE@Race@ DB 'Race', 00H			; `string'
CONST	ENDS
;	COMDAT ??_C@_06IONACMBM@Number@
CONST	SEGMENT
??_C@_06IONACMBM@Number@ DB 'Number', 00H		; `string'
PUBLIC	??$_Emplace_back@UModelElement@UMii@@@?$_Uninitialized_backout_al@V?$allocator@UModelElement@UMii@@@std@@@std@@QEAAX$$QEAUModelElement@UMii@@@Z ; std::_Uninitialized_backout_al<std::allocator<UMii::ModelElement> >::_Emplace_back<UMii::ModelElement>
PUBLIC	??$construct_at@UModelElement@UMii@@U12@$0A@@std@@YAPEAUModelElement@UMii@@QEAU12@$$QEAU12@@Z ; std::construct_at<UMii::ModelElement,UMii::ModelElement,0>
PUBLIC	??$addressof@UModelElement@UMii@@@std@@YAPEAUModelElement@UMii@@AEAU12@@Z ; std::addressof<UMii::ModelElement>
PUBLIC	??$_Uninitialized_move@PEAUModelElement@UMii@@V?$allocator@UModelElement@UMii@@@std@@@std@@YAPEAUModelElement@UMii@@QEAU12@0PEAU12@AEAV?$allocator@UModelElement@UMii@@@0@@Z ; std::_Uninitialized_move<UMii::ModelElement *,std::allocator<UMii::ModelElement> >
PUBLIC	??$_Get_unwrapped@AEBQEAUModelElement@UMii@@@std@@YA?A_TAEBQEAUModelElement@UMii@@@Z ; std::_Get_unwrapped<UMii::ModelElement * const &>
PUBLIC	??$construct@UModelElement@UMii@@U12@@?$_Default_allocator_traits@V?$allocator@UModelElement@UMii@@@std@@@std@@SAXAEAV?$allocator@UModelElement@UMii@@@1@QEAUModelElement@UMii@@$$QEAU34@@Z ; std::_Default_allocator_traits<std::allocator<UMii::ModelElement> >::construct<UMii::ModelElement,UMii::ModelElement>
PUBLIC	??$_Construct_in_place@UModelElement@UMii@@U12@@std@@YAXAEAUModelElement@UMii@@$$QEAU12@@Z ; std::_Construct_in_place<UMii::ModelElement,UMii::ModelElement>
PUBLIC	?_Change_array@?$vector@UModelElement@UMii@@V?$allocator@UModelElement@UMii@@@std@@@std@@AEAAXQEAUModelElement@UMii@@_K1@Z ; std::vector<UMii::ModelElement,std::allocator<UMii::ModelElement> >::_Change_array
PUBLIC	?_Orphan_range@?$vector@UModelElement@UMii@@V?$allocator@UModelElement@UMii@@@std@@@std@@AEBAXPEAUModelElement@UMii@@0@Z ; std::vector<UMii::ModelElement,std::allocator<UMii::ModelElement> >::_Orphan_range
PUBLIC	??$_Emplace_reallocate@UModelElement@UMii@@@?$vector@UModelElement@UMii@@V?$allocator@UModelElement@UMii@@@std@@@std@@AEAAPEAUModelElement@UMii@@QEAU23@$$QEAU23@@Z ; std::vector<UMii::ModelElement,std::allocator<UMii::ModelElement> >::_Emplace_reallocate<UMii::ModelElement>
PUBLIC	??$_Emplace_back_with_unused_capacity@UModelElement@UMii@@@?$vector@UModelElement@UMii@@V?$allocator@UModelElement@UMii@@@std@@@std@@AEAAAEAUModelElement@UMii@@$$QEAU23@@Z ; std::vector<UMii::ModelElement,std::allocator<UMii::ModelElement> >::_Emplace_back_with_unused_capacity<UMii::ModelElement>
PUBLIC	??$forward@UModelElement@UMii@@@std@@YA$$QEAUModelElement@UMii@@AEAU12@@Z ; std::forward<UMii::ModelElement>
PUBLIC	??$_Emplace_one_at_back@UModelElement@UMii@@@?$vector@UModelElement@UMii@@V?$allocator@UModelElement@UMii@@@std@@@std@@AEAAAEAUModelElement@UMii@@$$QEAU23@@Z ; std::vector<UMii::ModelElement,std::allocator<UMii::ModelElement> >::_Emplace_one_at_back<UMii::ModelElement>
PUBLIC	??$move@AEAUModelElement@UMii@@@std@@YA$$QEAUModelElement@UMii@@AEAU12@@Z ; std::move<UMii::ModelElement &>
PUBLIC	?push_back@?$vector@UModelElement@UMii@@V?$allocator@UModelElement@UMii@@@std@@@std@@QEAAX$$QEAUModelElement@UMii@@@Z ; std::vector<UMii::ModelElement,std::allocator<UMii::ModelElement> >::push_back
PUBLIC	?_Unchecked_begin@?$vector@UModelElement@UMii@@V?$allocator@UModelElement@UMii@@@std@@@std@@QEAAPEAUModelElement@UMii@@XZ ; std::vector<UMii::ModelElement,std::allocator<UMii::ModelElement> >::_Unchecked_begin
PUBLIC	?_Unchecked_end@?$vector@UModelElement@UMii@@V?$allocator@UModelElement@UMii@@@std@@@std@@QEAAPEAUModelElement@UMii@@XZ ; std::vector<UMii::ModelElement,std::allocator<UMii::ModelElement> >::_Unchecked_end
PUBLIC	?Draw@UMii@@QEAAXVVector3F@@00PEAVShader@@_NPEAVCamera@@@Z ; UMii::Draw
PUBLIC	??0UMii@@QEAA@V?$vector@EV?$allocator@E@std@@@std@@@Z ; UMii::UMii
;	COMDAT pdata
pdata	SEGMENT
$pdata$??$_Uninitialized_move@PEAUModelElement@UMii@@V?$allocator@UModelElement@UMii@@@std@@@std@@YAPEAUModelElement@UMii@@QEAU12@0PEAU12@AEAV?$allocator@UModelElement@UMii@@@0@@Z DD imagerel $LN27
	DD	imagerel $LN27+82
	DD	imagerel $unwind$??$_Uninitialized_move@PEAUModelElement@UMii@@V?$allocator@UModelElement@UMii@@@std@@@std@@YAPEAUModelElement@UMii@@QEAU12@0PEAU12@AEAV?$allocator@UModelElement@UMii@@@0@@Z
pdata	ENDS
;	COMDAT pdata
pdata	SEGMENT
$pdata$?_Change_array@?$vector@UModelElement@UMii@@V?$allocator@UModelElement@UMii@@@std@@@std@@AEAAXQEAUModelElement@UMii@@_K1@Z DD imagerel $LN30
	DD	imagerel $LN30+174
	DD	imagerel $unwind$?_Change_array@?$vector@UModelElement@UMii@@V?$allocator@UModelElement@UMii@@@std@@@std@@AEAAXQEAUModelElement@UMii@@_K1@Z
pdata	ENDS
;	COMDAT pdata
pdata	SEGMENT
$pdata$??$_Emplace_reallocate@UModelElement@UMii@@@?$vector@UModelElement@UMii@@V?$allocator@UModelElement@UMii@@@std@@@std@@AEAAPEAUModelElement@UMii@@QEAU23@$$QEAU23@@Z DD imagerel $LN130
	DD	imagerel $LN130+114
	DD	imagerel $unwind$??$_Emplace_reallocate@UModelElement@UMii@@@?$vector@UModelElement@UMii@@V?$allocator@UModelElement@UMii@@@std@@@std@@AEAAPEAUModelElement@UMii@@QEAU23@$$QEAU23@@Z
pdata	ENDS
;	COMDAT pdata
pdata	SEGMENT
$pdata$1$??$_Emplace_reallocate@UModelElement@UMii@@@?$vector@UModelElement@UMii@@V?$allocator@UModelElement@UMii@@@std@@@std@@AEAAPEAUModelElement@UMii@@QEAU23@$$QEAU23@@Z DD imagerel $LN130+114
	DD	imagerel $LN130+399
	DD	imagerel $chain$1$??$_Emplace_reallocate@UModelElement@UMii@@@?$vector@UModelElement@UMii@@V?$allocator@UModelElement@UMii@@@std@@@std@@AEAAPEAUModelElement@UMii@@QEAU23@$$QEAU23@@Z
pdata	ENDS
;	COMDAT pdata
pdata	SEGMENT
$pdata$3$??$_Emplace_reallocate@UModelElement@UMii@@@?$vector@UModelElement@UMii@@V?$allocator@UModelElement@UMii@@@std@@@std@@AEAAPEAUModelElement@UMii@@QEAU23@$$QEAU23@@Z DD imagerel $LN130+399
	DD	imagerel $LN130+406
	DD	imagerel $chain$3$??$_Emplace_reallocate@UModelElement@UMii@@@?$vector@UModelElement@UMii@@V?$allocator@UModelElement@UMii@@@std@@@std@@AEAAPEAUModelElement@UMii@@QEAU23@$$QEAU23@@Z
pdata	ENDS
;	COMDAT pdata
pdata	SEGMENT
$pdata$4$??$_Emplace_reallocate@UModelElement@UMii@@@?$vector@UModelElement@UMii@@V?$allocator@UModelElement@UMii@@@std@@@std@@AEAAPEAUModelElement@UMii@@QEAU23@$$QEAU23@@Z DD imagerel $LN130+406
	DD	imagerel $LN130+412
	DD	imagerel $chain$4$??$_Emplace_reallocate@UModelElement@UMii@@@?$vector@UModelElement@UMii@@V?$allocator@UModelElement@UMii@@@std@@@std@@AEAAPEAUModelElement@UMii@@QEAU23@$$QEAU23@@Z
pdata	ENDS
;	COMDAT pdata
pdata	SEGMENT
$pdata$?Draw@UMii@@QEAAXVVector3F@@00PEAVShader@@_NPEAVCamera@@@Z DD imagerel $LN370
	DD	imagerel $LN370+106
	DD	imagerel $unwind$?Draw@UMii@@QEAAXVVector3F@@00PEAVShader@@_NPEAVCamera@@@Z
pdata	ENDS
;	COMDAT pdata
pdata	SEGMENT
$pdata$12$?Draw@UMii@@QEAAXVVector3F@@00PEAVShader@@_NPEAVCamera@@@Z DD imagerel $LN370+106
	DD	imagerel $LN370+1529
	DD	imagerel $chain$12$?Draw@UMii@@QEAAXVVector3F@@00PEAVShader@@_NPEAVCamera@@@Z
pdata	ENDS
;	COMDAT pdata
pdata	SEGMENT
$pdata$13$?Draw@UMii@@QEAAXVVector3F@@00PEAVShader@@_NPEAVCamera@@@Z DD imagerel $LN370+1529
	DD	imagerel $LN370+1556
	DD	imagerel $chain$13$?Draw@UMii@@QEAAXVVector3F@@00PEAVShader@@_NPEAVCamera@@@Z
pdata	ENDS
;	COMDAT pdata
pdata	SEGMENT
$pdata$??0UMii@@QEAA@V?$vector@EV?$allocator@E@std@@@std@@@Z DD imagerel $LN2006
	DD	imagerel $LN2006+5386
	DD	imagerel $unwind$??0UMii@@QEAA@V?$vector@EV?$allocator@E@std@@@std@@@Z
pdata	ENDS
;	COMDAT pdata
pdata	SEGMENT
$pdata$?dtor$23@?0???0UMii@@QEAA@V?$vector@EV?$allocator@E@std@@@std@@@Z@4HA DD imagerel ?dtor$23@?0???0UMii@@QEAA@V?$vector@EV?$allocator@E@std@@@std@@@Z@4HA
	DD	imagerel ?dtor$23@?0???0UMii@@QEAA@V?$vector@EV?$allocator@E@std@@@std@@@Z@4HA+47
	DD	imagerel $unwind$?dtor$23@?0???0UMii@@QEAA@V?$vector@EV?$allocator@E@std@@@std@@@Z@4HA
;	COMDAT xdata
xdata	SEGMENT
$unwind$?dtor$23@?0???0UMii@@QEAA@V?$vector@EV?$allocator@E@std@@@std@@@Z@4HA DD 020601H
	DD	050023206H
xdata	ENDS
;	COMDAT xdata
xdata	SEGMENT
$ip2state$??0UMii@@QEAA@V?$vector@EV?$allocator@E@std@@@std@@@Z DB 'R'
	DB	'm', 03H
	DB	0cH
	DB	'*'
	DB	0eH
	DB	'E', 0fH
	DB	010H
	DB	'$'
	DB	0eH
	DB	0a5H, 02H
	DB	014H
	DB	'0'
	DB	016H
	DB	0b0H
	DB	018H
	DB	0a4H
	DB	01aH
	DB	0acH
	DB	01cH
	DB	0a4H
	DB	01eH
	DB	0b0H
	DB	' '
	DB	0a4H
	DB	'"'
	DB	0a4H
	DB	'$'
	DB	0c6H
	DB	'&'
	DB	'Z'
	DB	'('
	DB	'('
	DB	'*'
	DB	'.'
	DB	','
	DB	'&'
	DB	'.'
	DB	'.'
	DB	'0'
	DB	'('
	DB	'2'
	DB	08cH
	DB	'0'
	DB	01H, 04H
	DB	014H
	DB	'm', 04H
	DB	'4'
	DB	091H, 02H
	DB	'6'
	DB	096H
	DB	'8'
	DB	019H, 02H
	DB	':'
	DB	08eH
	DB	'<'
	DB	'1', 02H
	DB	'>'
	DB	096H
	DB	'@'
	DB	01H, 02H
	DB	'B'
	DB	089H, 02H
	DB	'D'
	DB	098H
	DB	'F'
	DB	089H, 02H
	DB	'H'
	DB	0aeH
	DB	'J'
	DB	0a4H
	DB	'L'
	DB	0acH
	DB	'N'
	DB	0a4H
	DB	'P'
	DB	09eH
	DB	'R'
	DB	'b'
	DB	'P'
	DB	081H, 0cH
	DB	00H
	DB	'P'
	DB	014H
xdata	ENDS
;	COMDAT xdata
xdata	SEGMENT
$stateUnwindMap$??0UMii@@QEAA@V?$vector@EV?$allocator@E@std@@@std@@@Z DB 052H
	DB	0cH
	DD	imagerel ??1?$vector@EV?$allocator@E@std@@@std@@QEAA@XZ
	DB	081H
	DB	013H
	DB	03cH
	DD	imagerel ??1?$basic_string@DU?$char_traits@D@std@@V?$allocator@D@2@@std@@QEAA@XZ
	DB	081H
	DB	0eH
	DB	03eH
	DD	imagerel ?dtor$2@?0???0UMii@@QEAA@V?$vector@EV?$allocator@E@std@@@std@@@Z@4HA
	DB	02eH
	DD	imagerel ?dtor$3@?0???0UMii@@QEAA@V?$vector@EV?$allocator@E@std@@@std@@@Z@4HA
	DB	02eH
	DD	imagerel ?dtor$4@?0???0UMii@@QEAA@V?$vector@EV?$allocator@E@std@@@std@@@Z@4HA
	DB	02eH
	DD	imagerel ?dtor$5@?0???0UMii@@QEAA@V?$vector@EV?$allocator@E@std@@@std@@@Z@4HA
	DB	02aH
	DD	imagerel ??1BymlFile@@QEAA@XZ
	DB	041H
	DB	014H
	DB	03eH
	DD	imagerel ?dtor$23@?0???0UMii@@QEAA@V?$vector@EV?$allocator@E@std@@@std@@@Z@4HA
	DB	02aH
	DD	imagerel ??1?$basic_string@DU?$char_traits@D@std@@V?$allocator@D@2@@std@@QEAA@XZ
	DB	0a1H
	DB	013H
	DB	09aH
	DD	imagerel ??1?$basic_string@DU?$char_traits@D@std@@V?$allocator@D@2@@std@@QEAA@XZ
	DB	0a1H
	DB	013H
	DB	03aH
	DD	imagerel ??1?$basic_string@DU?$char_traits@D@std@@V?$allocator@D@2@@std@@QEAA@XZ
	DB	0d0H
	DB	032H
	DD	imagerel ??1?$basic_string@DU?$char_traits@D@std@@V?$allocator@D@2@@std@@QEAA@XZ
	DB	061H
	DB	0aH
	DB	03aH
	DD	imagerel ??1?$basic_string@DU?$char_traits@D@std@@V?$allocator@D@2@@std@@QEAA@XZ
	DB	0e1H
	DB	0dH
	DB	03aH
	DD	imagerel ??1?$basic_string@DU?$char_traits@D@std@@V?$allocator@D@2@@std@@QEAA@XZ
	DB	061H
	DB	0dH
	DB	03aH
	DD	imagerel ??1?$basic_string@DU?$char_traits@D@std@@V?$allocator@D@2@@std@@QEAA@XZ
	DB	0e1H
	DB	0cH
	DB	03aH
	DD	imagerel ??1?$basic_string@DU?$char_traits@D@std@@V?$allocator@D@2@@std@@QEAA@XZ
	DB	061H
	DB	0cH
	DB	03aH
	DD	imagerel ??1?$basic_string@DU?$char_traits@D@std@@V?$allocator@D@2@@std@@QEAA@XZ
	DB	0e1H
	DB	0bH
	DB	03aH
	DD	imagerel ??1?$basic_string@DU?$char_traits@D@std@@V?$allocator@D@2@@std@@QEAA@XZ
	DB	061H
	DB	0bH
	DB	03aH
	DD	imagerel ??1?$basic_string@DU?$char_traits@D@std@@V?$allocator@D@2@@std@@QEAA@XZ
	DB	0e1H
	DB	0aH
	DB	03aH
	DD	imagerel ??1?$basic_string@DU?$char_traits@D@std@@V?$allocator@D@2@@std@@QEAA@XZ
	DB	041H
	DB	05H
	DB	03aH
	DD	imagerel ??1?$basic_string@DU?$char_traits@D@std@@V?$allocator@D@2@@std@@QEAA@XZ
	DB	01H
	DB	013H
	DB	03aH
	DD	imagerel ??1?$basic_string@DU?$char_traits@D@std@@V?$allocator@D@2@@std@@QEAA@XZ
	DB	081H
	DB	012H
	DB	03aH
	DD	imagerel ??1?$basic_string@DU?$char_traits@D@std@@V?$allocator@D@2@@std@@QEAA@XZ
	DB	01H
	DB	012H
	DB	03aH
	DD	imagerel ??1?$basic_string@DU?$char_traits@D@std@@V?$allocator@D@2@@std@@QEAA@XZ
	DB	081H
	DB	011H
	DB	03aH
	DD	imagerel ??1?$basic_string@DU?$char_traits@D@std@@V?$allocator@D@2@@std@@QEAA@XZ
	DB	01H
	DB	011H
	DB	0f5H
	DB	06H
	DD	imagerel ??1?$basic_string@DU?$char_traits@D@std@@V?$allocator@D@2@@std@@QEAA@XZ
	DB	0a1H
	DB	04H
	DB	042H
	DD	imagerel ??1?$basic_string@DU?$char_traits@D@std@@V?$allocator@D@2@@std@@QEAA@XZ
	DB	041H
	DB	06H
	DB	03aH
	DD	imagerel ??1?$basic_string@DU?$char_traits@D@std@@V?$allocator@D@2@@std@@QEAA@XZ
	DB	021H
	DB	04H
	DB	03aH
	DD	imagerel ??1?$basic_string@DU?$char_traits@D@std@@V?$allocator@D@2@@std@@QEAA@XZ
	DB	0c1H
	DB	05H
	DB	03aH
	DD	imagerel ??1?$basic_string@DU?$char_traits@D@std@@V?$allocator@D@2@@std@@QEAA@XZ
	DB	0a1H
	DB	03H
	DB	03aH
	DD	imagerel ??1?$basic_string@DU?$char_traits@D@std@@V?$allocator@D@2@@std@@QEAA@XZ
	DB	0c1H
	DB	09H
	DB	03aH
	DD	imagerel ??1?$basic_string@DU?$char_traits@D@std@@V?$allocator@D@2@@std@@QEAA@XZ
	DB	021H
	DB	03H
	DB	03aH
	DD	imagerel ??1?$basic_string@DU?$char_traits@D@std@@V?$allocator@D@2@@std@@QEAA@XZ
	DB	0a1H
	DB	02H
	DB	03aH
	DD	imagerel ??1?$basic_string@DU?$char_traits@D@std@@V?$allocator@D@2@@std@@QEAA@XZ
	DB	041H
	DB	09H
	DB	03aH
	DD	imagerel ??1?$basic_string@DU?$char_traits@D@std@@V?$allocator@D@2@@std@@QEAA@XZ
	DB	021H
	DB	02H
	DB	03aH
	DD	imagerel ??1?$basic_string@DU?$char_traits@D@std@@V?$allocator@D@2@@std@@QEAA@XZ
	DB	0c1H
	DB	08H
	DB	03aH
	DD	imagerel ??1?$basic_string@DU?$char_traits@D@std@@V?$allocator@D@2@@std@@QEAA@XZ
	DB	041H
	DB	08H
	DB	03aH
	DD	imagerel ??1?$basic_string@DU?$char_traits@D@std@@V?$allocator@D@2@@std@@QEAA@XZ
	DB	0c1H
	DB	07H
	DB	03aH
	DD	imagerel ??1?$basic_string@DU?$char_traits@D@std@@V?$allocator@D@2@@std@@QEAA@XZ
	DB	041H
	DB	07H
	DB	03aH
	DD	imagerel ??1?$basic_string@DU?$char_traits@D@std@@V?$allocator@D@2@@std@@QEAA@XZ
	DB	0c1H
	DB	06H
	DB	03aH
	DD	imagerel ??1?$basic_string@DU?$char_traits@D@std@@V?$allocator@D@2@@std@@QEAA@XZ
	DB	090H
xdata	ENDS
;	COMDAT xdata
xdata	SEGMENT
$cppxdata$??0UMii@@QEAA@V?$vector@EV?$allocator@E@std@@@std@@@Z DB 028H
	DD	imagerel $stateUnwindMap$??0UMii@@QEAA@V?$vector@EV?$allocator@E@std@@@std@@@Z
	DD	imagerel $ip2state$??0UMii@@QEAA@V?$vector@EV?$allocator@E@std@@@std@@@Z
xdata	ENDS
;	COMDAT xdata
xdata	SEGMENT
$unwind$??0UMii@@QEAA@V?$vector@EV?$allocator@E@std@@@std@@@Z DD 0d3819H
	DD	0606827H
	DD	0cc341fH
	DD	0c2011fH
	DD	0e00ef010H
	DD	0c00ad00cH
	DD	060077008H
	DD	05006H
	DD	imagerel __GSHandlerCheck_EH4
	DD	imagerel $cppxdata$??0UMii@@QEAA@V?$vector@EV?$allocator@E@std@@@std@@@Z
	DD	05f2H
xdata	ENDS
;	COMDAT xdata
xdata	SEGMENT
$chain$13$?Draw@UMii@@QEAAXVVector3F@@00PEAVShader@@_NPEAVCamera@@@Z DD 021H
	DD	imagerel $LN370
	DD	imagerel $LN370+106
	DD	imagerel $unwind$?Draw@UMii@@QEAAXVVector3F@@00PEAVShader@@_NPEAVCamera@@@Z
xdata	ENDS
;	COMDAT xdata
xdata	SEGMENT
$chain$12$?Draw@UMii@@QEAAXVVector3F@@00PEAVShader@@_NPEAVCamera@@@Z DD 01a7421H
	DD	014f874H
	DD	015e862H
	DD	016d856H
	DD	017c849H
	DD	018b83bH
	DD	019a82dH
	DD	01a9825H
	DD	01b881bH
	DD	01c7816H
	DD	01d6811H
	DD	03ce40cH
	DD	03dc408H
	DD	0457404H
	DD	imagerel $LN370
	DD	imagerel $LN370+106
	DD	imagerel $unwind$?Draw@UMii@@QEAAXVVector3F@@00PEAVShader@@_NPEAVCamera@@@Z
xdata	ENDS
;	COMDAT xdata
xdata	SEGMENT
$unwind$?Draw@UMii@@QEAAXVVector3F@@00PEAVShader@@_NPEAVCamera@@@Z DD 072619H
	DD	03e0118H
	DD	0d008f00aH
	DD	030056006H
	DD	05004H
	DD	imagerel __GSHandlerCheck
	DD	0130H
xdata	ENDS
;	COMDAT xdata
xdata	SEGMENT
$chain$4$??$_Emplace_reallocate@UModelElement@UMii@@@?$vector@UModelElement@UMii@@V?$allocator@UModelElement@UMii@@@std@@@std@@AEAAPEAUModelElement@UMii@@QEAU23@$$QEAU23@@Z DD 021H
	DD	imagerel $LN130
	DD	imagerel $LN130+114
	DD	imagerel $unwind$??$_Emplace_reallocate@UModelElement@UMii@@@?$vector@UModelElement@UMii@@V?$allocator@UModelElement@UMii@@@std@@@std@@AEAAPEAUModelElement@UMii@@QEAU23@$$QEAU23@@Z
xdata	ENDS
;	COMDAT xdata
xdata	SEGMENT
$chain$3$??$_Emplace_reallocate@UModelElement@UMii@@@?$vector@UModelElement@UMii@@V?$allocator@UModelElement@UMii@@@std@@@std@@AEAAPEAUModelElement@UMii@@QEAU23@$$QEAU23@@Z DD 040021H
	DD	046400H
	DD	0e5400H
	DD	imagerel $LN130
	DD	imagerel $LN130+114
	DD	imagerel $unwind$??$_Emplace_reallocate@UModelElement@UMii@@@?$vector@UModelElement@UMii@@V?$allocator@UModelElement@UMii@@@std@@@std@@AEAAPEAUModelElement@UMii@@QEAU23@$$QEAU23@@Z
xdata	ENDS
;	COMDAT xdata
xdata	SEGMENT
$chain$1$??$_Emplace_reallocate@UModelElement@UMii@@@?$vector@UModelElement@UMii@@V?$allocator@UModelElement@UMii@@@std@@@std@@AEAAPEAUModelElement@UMii@@QEAU23@$$QEAU23@@Z DD 041521H
	DD	046415H
	DD	0e5405H
	DD	imagerel $LN130
	DD	imagerel $LN130+114
	DD	imagerel $unwind$??$_Emplace_reallocate@UModelElement@UMii@@@?$vector@UModelElement@UMii@@V?$allocator@UModelElement@UMii@@@std@@@std@@AEAAPEAUModelElement@UMii@@QEAU23@$$QEAU23@@Z
xdata	ENDS
;	COMDAT xdata
xdata	SEGMENT
$unwind$??$_Emplace_reallocate@UModelElement@UMii@@@?$vector@UModelElement@UMii@@V?$allocator@UModelElement@UMii@@@std@@@std@@AEAAPEAUModelElement@UMii@@QEAU23@$$QEAU23@@Z DD 070f01H
	DD	0f00b420fH
	DD	0d007e009H
	DD	07003c005H
	DD	03002H
xdata	ENDS
;	COMDAT xdata
xdata	SEGMENT
$unwind$?_Change_array@?$vector@UModelElement@UMii@@V?$allocator@UModelElement@UMii@@@std@@@std@@AEAAXQEAUModelElement@UMii@@_K1@Z DD 081501H
	DD	097415H
	DD	086415H
	DD	073415H
	DD	0e0113215H
xdata	ENDS
;	COMDAT xdata
xdata	SEGMENT
$unwind$??$_Uninitialized_move@PEAUModelElement@UMii@@V?$allocator@UModelElement@UMii@@@std@@@std@@YAPEAUModelElement@UMii@@QEAU12@0PEAU12@AEAV?$allocator@UModelElement@UMii@@@0@@Z DD 040a01H
	DD	09340aH
	DD	07006320aH
; Function compile flags: /Ogtpy
; File H:\Paul\switchemulator\Zelda TotK\MapEditorV4\OldVersion\MapEditor\UMii.cpp
; File C:\Program Files\Microsoft Visual Studio\2022\Community\VC\Tools\MSVC\14.37.32822\include\xstring
; File C:\Program Files\Microsoft Visual Studio\2022\Community\VC\Tools\MSVC\14.37.32822\include\vector
; File H:\Paul\switchemulator\Zelda TotK\MapEditorV4\OldVersion\MapEditor\UMii.cpp
; File C:\Program Files\Microsoft Visual Studio\2022\Community\VC\Tools\MSVC\14.37.32822\include\xstring
; File H:\Paul\switchemulator\Zelda TotK\MapEditorV4\OldVersion\MapEditor\Byml.cpp
; File C:\Program Files\Microsoft Visual Studio\2022\Community\VC\Tools\MSVC\14.37.32822\include\xstring
; File H:\Paul\switchemulator\Zelda TotK\MapEditorV4\OldVersion\MapEditor\Byml.cpp
; File H:\Paul\switchemulator\Zelda TotK\MapEditorV4\OldVersion\MapEditor\UMii.cpp
; File C:\Program Files\Microsoft Visual Studio\2022\Community\VC\Tools\MSVC\14.37.32822\include\xstring
; File H:\Paul\switchemulator\Zelda TotK\MapEditorV4\OldVersion\MapEditor\Byml.cpp
; File C:\Program Files\Microsoft Visual Studio\2022\Community\VC\Tools\MSVC\14.37.32822\include\xstring
; File H:\Paul\switchemulator\Zelda TotK\MapEditorV4\OldVersion\MapEditor\Byml.cpp
; File H:\Paul\switchemulator\Zelda TotK\MapEditorV4\OldVersion\MapEditor\UMii.cpp
; File C:\Program Files\Microsoft Visual Studio\2022\Community\VC\Tools\MSVC\14.37.32822\include\xstring
; File H:\Paul\switchemulator\Zelda TotK\MapEditorV4\OldVersion\MapEditor\Byml.cpp
; File C:\Program Files\Microsoft Visual Studio\2022\Community\VC\Tools\MSVC\14.37.32822\include\xstring
; File H:\Paul\switchemulator\Zelda TotK\MapEditorV4\OldVersion\MapEditor\Byml.cpp
; File H:\Paul\switchemulator\Zelda TotK\MapEditorV4\OldVersion\MapEditor\UMii.cpp
; File C:\Program Files\Microsoft Visual Studio\2022\Community\VC\Tools\MSVC\14.37.32822\include\xstring
; File H:\Paul\switchemulator\Zelda TotK\MapEditorV4\OldVersion\MapEditor\UMii.cpp
; File C:\Program Files\Microsoft Visual Studio\2022\Community\VC\Tools\MSVC\14.37.32822\include\xstring
; File H:\Paul\switchemulator\Zelda TotK\MapEditorV4\OldVersion\MapEditor\UMii.cpp
; File C:\Program Files\Microsoft Visual Studio\2022\Community\VC\Tools\MSVC\14.37.32822\include\xstring
; File H:\Paul\switchemulator\Zelda TotK\MapEditorV4\OldVersion\MapEditor\UMii.cpp
; File H:\Paul\switchemulator\Zelda TotK\MapEditorV4\OldVersion\MapEditor\Byml.cpp
; File H:\Paul\switchemulator\Zelda TotK\MapEditorV4\OldVersion\MapEditor\UMii.cpp
; File C:\Program Files\Microsoft Visual Studio\2022\Community\VC\Tools\MSVC\14.37.32822\include\xstring
; File H:\Paul\switchemulator\Zelda TotK\MapEditorV4\OldVersion\MapEditor\UMii.cpp
; File C:\Program Files\Microsoft Visual Studio\2022\Community\VC\Tools\MSVC\14.37.32822\include\xstring
; File H:\Paul\switchemulator\Zelda TotK\MapEditorV4\OldVersion\MapEditor\UMii.cpp
; File C:\Program Files\Microsoft Visual Studio\2022\Community\VC\Tools\MSVC\14.37.32822\include\xstring
; File H:\Paul\switchemulator\Zelda TotK\MapEditorV4\OldVersion\MapEditor\UMii.cpp
; File C:\Program Files\Microsoft Visual Studio\2022\Community\VC\Tools\MSVC\14.37.32822\include\xstring
; File H:\Paul\switchemulator\Zelda TotK\MapEditorV4\OldVersion\MapEditor\UMii.cpp
; File C:\Program Files\Microsoft Visual Studio\2022\Community\VC\Tools\MSVC\14.37.32822\include\xstring
; File H:\Paul\switchemulator\Zelda TotK\MapEditorV4\OldVersion\MapEditor\UMii.cpp
; File C:\Program Files\Microsoft Visual Studio\2022\Community\VC\Tools\MSVC\14.37.32822\include\xstring
; File H:\Paul\switchemulator\Zelda TotK\MapEditorV4\OldVersion\MapEditor\UMii.cpp
; File C:\Program Files\Microsoft Visual Studio\2022\Community\VC\Tools\MSVC\14.37.32822\include\xstring
; File H:\Paul\switchemulator\Zelda TotK\MapEditorV4\OldVersion\MapEditor\UMii.cpp
; File C:\Program Files\Microsoft Visual Studio\2022\Community\VC\Tools\MSVC\14.37.32822\include\xstring
; File H:\Paul\switchemulator\Zelda TotK\MapEditorV4\OldVersion\MapEditor\UMii.cpp
; File C:\Program Files\Microsoft Visual Studio\2022\Community\VC\Tools\MSVC\14.37.32822\include\xstring
; File H:\Paul\switchemulator\Zelda TotK\MapEditorV4\OldVersion\MapEditor\UMii.cpp
; File C:\Program Files\Microsoft Visual Studio\2022\Community\VC\Tools\MSVC\14.37.32822\include\xstring
; File H:\Paul\switchemulator\Zelda TotK\MapEditorV4\OldVersion\MapEditor\UMii.cpp
; File C:\Program Files\Microsoft Visual Studio\2022\Community\VC\Tools\MSVC\14.37.32822\include\xstring
; File H:\Paul\switchemulator\Zelda TotK\MapEditorV4\OldVersion\MapEditor\UMii.cpp
; File C:\Program Files\Microsoft Visual Studio\2022\Community\VC\Tools\MSVC\14.37.32822\include\xstring
; File H:\Paul\switchemulator\Zelda TotK\MapEditorV4\OldVersion\MapEditor\UMii.cpp
; File H:\Paul\switchemulator\Zelda TotK\MapEditorV4\OldVersion\MapEditor\Vector3F.cpp
; File H:\Paul\switchemulator\Zelda TotK\MapEditorV4\OldVersion\MapEditor\UMii.cpp
; File C:\Program Files\Microsoft Visual Studio\2022\Community\VC\Tools\MSVC\14.37.32822\include\xstring
; File C:\Program Files\Microsoft Visual Studio\2022\Community\VC\Tools\MSVC\14.37.32822\include\xmemory
; File H:\Paul\switchemulator\Zelda TotK\MapEditorV4\OldVersion\MapEditor\UMii.cpp
; File C:\Program Files\Microsoft Visual Studio\2022\Community\VC\Tools\MSVC\14.37.32822\include\xstring
; File C:\Program Files\Microsoft Visual Studio\2022\Community\VC\Tools\MSVC\14.37.32822\include\xmemory
; File C:\Program Files\Microsoft Visual Studio\2022\Community\VC\Tools\MSVC\14.37.32822\include\xstring
; File H:\Paul\switchemulator\Zelda TotK\MapEditorV4\OldVersion\MapEditor\UMii.cpp
; File C:\Program Files\Microsoft Visual Studio\2022\Community\VC\Tools\MSVC\14.37.32822\include\xstring
; File H:\Paul\switchemulator\Zelda TotK\MapEditorV4\OldVersion\MapEditor\UMii.cpp
; File C:\Program Files\Microsoft Visual Studio\2022\Community\VC\Tools\MSVC\14.37.32822\include\xstring
; File H:\Paul\switchemulator\Zelda TotK\MapEditorV4\OldVersion\MapEditor\UMii.cpp
; File C:\Program Files\Microsoft Visual Studio\2022\Community\VC\Tools\MSVC\14.37.32822\include\xstring
; File H:\Paul\switchemulator\Zelda TotK\MapEditorV4\OldVersion\MapEditor\UMii.cpp
; File C:\Program Files\Microsoft Visual Studio\2022\Community\VC\Tools\MSVC\14.37.32822\include\xstring
; File H:\Paul\switchemulator\Zelda TotK\MapEditorV4\OldVersion\MapEditor\UMii.cpp
; File C:\Program Files\Microsoft Visual Studio\2022\Community\VC\Tools\MSVC\14.37.32822\include\xstring
; File H:\Paul\switchemulator\Zelda TotK\MapEditorV4\OldVersion\MapEditor\UMii.cpp
; File C:\Program Files\Microsoft Visual Studio\2022\Community\VC\Tools\MSVC\14.37.32822\include\xstring
; File H:\Paul\switchemulator\Zelda TotK\MapEditorV4\OldVersion\MapEditor\UMii.cpp
; File C:\Program Files\Microsoft Visual Studio\2022\Community\VC\Tools\MSVC\14.37.32822\include\xstring
; File H:\Paul\switchemulator\Zelda TotK\MapEditorV4\OldVersion\MapEditor\UMii.cpp
; File C:\Program Files\Microsoft Visual Studio\2022\Community\VC\Tools\MSVC\14.37.32822\include\xstring
; File H:\Paul\switchemulator\Zelda TotK\MapEditorV4\OldVersion\MapEditor\UMii.cpp
; File C:\Program Files\Microsoft Visual Studio\2022\Community\VC\Tools\MSVC\14.37.32822\include\xstring
; File H:\Paul\switchemulator\Zelda TotK\MapEditorV4\OldVersion\MapEditor\UMii.cpp
; File C:\Program Files\Microsoft Visual Studio\2022\Community\VC\Tools\MSVC\14.37.32822\include\xstring
; File H:\Paul\switchemulator\Zelda TotK\MapEditorV4\OldVersion\MapEditor\UMii.cpp
; File C:\Program Files\Microsoft Visual Studio\2022\Community\VC\Tools\MSVC\14.37.32822\include\xstring
; File H:\Paul\switchemulator\Zelda TotK\MapEditorV4\OldVersion\MapEditor\UMii.cpp
; File C:\Program Files\Microsoft Visual Studio\2022\Community\VC\Tools\MSVC\14.37.32822\include\xstring
; File H:\Paul\switchemulator\Zelda TotK\MapEditorV4\OldVersion\MapEditor\UMii.cpp
; File C:\Program Files\Microsoft Visual Studio\2022\Community\VC\Tools\MSVC\14.37.32822\include\xstring
; File H:\Paul\switchemulator\Zelda TotK\MapEditorV4\OldVersion\MapEditor\UMii.cpp
; File C:\Program Files\Microsoft Visual Studio\2022\Community\VC\Tools\MSVC\14.37.32822\include\xstring
; File H:\Paul\switchemulator\Zelda TotK\MapEditorV4\OldVersion\MapEditor\UMii.cpp
; File C:\Program Files\Microsoft Visual Studio\2022\Community\VC\Tools\MSVC\14.37.32822\include\xstring
; File H:\Paul\switchemulator\Zelda TotK\MapEditorV4\OldVersion\MapEditor\UMii.cpp
; File C:\Program Files\Microsoft Visual Studio\2022\Community\VC\Tools\MSVC\14.37.32822\include\xstring
; File C:\Program Files\Microsoft Visual Studio\2022\Community\VC\Tools\MSVC\14.37.32822\include\vector
; File H:\Paul\switchemulator\Zelda TotK\MapEditorV4\OldVersion\MapEditor\UMii.cpp
; File C:\Program Files\Microsoft Visual Studio\2022\Community\VC\Tools\MSVC\14.37.32822\include\xmemory
; File C:\Program Files\Microsoft Visual Studio\2022\Community\VC\Tools\MSVC\14.37.32822\include\xstring
; File H:\Paul\switchemulator\Zelda TotK\MapEditorV4\OldVersion\MapEditor\UMii.cpp
;	COMDAT ??0UMii@@QEAA@V?$vector@EV?$allocator@E@std@@@std@@@Z
_TEXT	SEGMENT
$T1 = 64
$T2 = 72
$T3 = 72
$T4 = 72
$T5 = 72
$T6 = 104
$T7 = 104
$T8 = 104
$T9 = 104
$T10 = 104
$T11 = 104
$T12 = 104
$T13 = 136
$T14 = 136
$T15 = 168
$T16 = 200
$T17 = 232
$T18 = 264
$T19 = 296
ModelRace$3$ = 328
$T20 = 328
$T21 = 336
$T22 = 336
$T23 = 336
$T24 = 336
$T25 = 336
$T26 = 368
$T27 = 400
$T28 = 432
$T29 = 464
$T30 = 496
$T31 = 528
$T32 = 560
$T33 = 592
$T34 = 624
BymlBytes$GSCopy$1$ = 656
$T35 = 664
$T36 = 664
$T37 = 696
$T38 = 728
$T39 = 760
$T40 = 792
$T41 = 824
$T42 = 856
$T43 = 888
this$GSCopy$ = 928
$T44 = 944
$T45 = 992
$T46 = 1024
$T47 = 1056
$T48 = 1088
$T49 = 1120
$T50 = 1152
$T51 = 1184
$T52 = 1216
BymlBytes$GSCopy$ = 1248
ModelRace$ = 1256
UMiiByml$ = 1296
__$ArrayPad$ = 1520
this$ = 1616
BymlBytes$ = 1624
??0UMii@@QEAA@V?$vector@EV?$allocator@E@std@@@std@@@Z PROC ; UMii::UMii, COMDAT

; 8    : {

$LN2006:
	mov	QWORD PTR [rsp+24], rbx
	push	rbp
	push	rsi
	push	rdi
	push	r12
	push	r13
	push	r14
	push	r15
	lea	rbp, QWORD PTR [rsp-1296]
	sub	rsp, 1552				; 00000610H
	movaps	XMMWORD PTR [rsp+1536], xmm6
	mov	rax, QWORD PTR __security_cookie
	xor	rax, rsp
	mov	QWORD PTR __$ArrayPad$[rbp-256], rax
	mov	rbx, rdx
	mov	QWORD PTR BymlBytes$GSCopy$1$[rbp-256], rdx
	mov	rdi, rcx
	mov	QWORD PTR this$GSCopy$[rbp-256], rcx
	mov	QWORD PTR BymlBytes$GSCopy$[rbp-256], rdx
	xor	r15d, r15d
	mov	DWORD PTR $T20[rbp-256], r15d
	xorps	xmm0, xmm0
; File C:\Program Files\Microsoft Visual Studio\2022\Community\VC\Tools\MSVC\14.37.32822\include\xstring

; 2284 :         _CONSTEXPR20 _Bxty() noexcept : _Buf() {} // user-provided, for fancy pointers

	movups	XMMWORD PTR [rcx], xmm0

; 4821 :         _My_data._Mysize = 0;

	mov	QWORD PTR [rcx+16], r15

; 4822 :         _My_data._Myres  = _BUF_SIZE - 1;

	mov	QWORD PTR [rcx+24], 15

; 4823 :         _My_data._Activate_SSO_buffer();
; 4824 : 
; 4825 :         // the _Traits::assign is last so the codegen doesn't think the char write can alias this
; 4826 :         _Traits::assign(_My_data._Bx._Buf[0], _Elem());

	mov	BYTE PTR [rcx], r15b

; 2284 :         _CONSTEXPR20 _Bxty() noexcept : _Buf() {} // user-provided, for fancy pointers

	movups	XMMWORD PTR [rcx+32], xmm0

; 4821 :         _My_data._Mysize = 0;

	mov	QWORD PTR [rcx+48], r15

; 4822 :         _My_data._Myres  = _BUF_SIZE - 1;

	mov	QWORD PTR [rcx+56], 15

; 4823 :         _My_data._Activate_SSO_buffer();
; 4824 : 
; 4825 :         // the _Traits::assign is last so the codegen doesn't think the char write can alias this
; 4826 :         _Traits::assign(_My_data._Bx._Buf[0], _Elem());

	mov	BYTE PTR [rcx+32], r15b

; 2284 :         _CONSTEXPR20 _Bxty() noexcept : _Buf() {} // user-provided, for fancy pointers

	movups	XMMWORD PTR [rcx+64], xmm0

; 4821 :         _My_data._Mysize = 0;

	mov	QWORD PTR [rcx+80], r15

; 4822 :         _My_data._Myres  = _BUF_SIZE - 1;

	mov	QWORD PTR [rcx+88], 15

; 4823 :         _My_data._Activate_SSO_buffer();
; 4824 : 
; 4825 :         // the _Traits::assign is last so the codegen doesn't think the char write can alias this
; 4826 :         _Traits::assign(_My_data._Bx._Buf[0], _Elem());

	mov	BYTE PTR [rcx+64], r15b

; 2284 :         _CONSTEXPR20 _Bxty() noexcept : _Buf() {} // user-provided, for fancy pointers

	movups	XMMWORD PTR [rcx+96], xmm0

; 4821 :         _My_data._Mysize = 0;

	mov	QWORD PTR [rcx+112], r15

; 4822 :         _My_data._Myres  = _BUF_SIZE - 1;

	mov	QWORD PTR [rcx+120], 15

; 4823 :         _My_data._Activate_SSO_buffer();
; 4824 : 
; 4825 :         // the _Traits::assign is last so the codegen doesn't think the char write can alias this
; 4826 :         _Traits::assign(_My_data._Bx._Buf[0], _Elem());

	mov	BYTE PTR [rcx+96], r15b
; File C:\Program Files\Microsoft Visual Studio\2022\Community\VC\Tools\MSVC\14.37.32822\include\vector

; 398  :     _CONSTEXPR20 _Vector_val() noexcept : _Myfirst(), _Mylast(), _Myend() {}

	mov	QWORD PTR [rcx+128], r15
	mov	QWORD PTR [rcx+136], r15
	mov	QWORD PTR [rcx+144], r15
	xor	edx, edx
	mov	r8d, 224				; 000000e0H
	lea	rcx, QWORD PTR UMiiByml$[rbp-256]
	call	memset
; File H:\Paul\switchemulator\Zelda TotK\MapEditorV4\OldVersion\MapEditor\UMii.cpp

; 9    : 	BymlFile UMiiByml(BymlBytes);

	mov	rdx, rbx
	lea	rcx, QWORD PTR $T14[rbp-256]
	call	??0?$vector@EV?$allocator@E@std@@@std@@QEAA@AEBV01@@Z ; std::vector<unsigned char,std::allocator<unsigned char> >::vector<unsigned char,std::allocator<unsigned char> >
	mov	rdx, rax
	lea	rcx, QWORD PTR UMiiByml$[rbp-256]
	call	??0BymlFile@@QEAA@V?$vector@EV?$allocator@E@std@@@std@@@Z ; BymlFile::BymlFile
	npad	1
	xorps	xmm0, xmm0
; File C:\Program Files\Microsoft Visual Studio\2022\Community\VC\Tools\MSVC\14.37.32822\include\xstring

; 2284 :         _CONSTEXPR20 _Bxty() noexcept : _Buf() {} // user-provided, for fancy pointers

	movups	XMMWORD PTR $T5[rsp], xmm0

; 2293 :     size_type _Mysize = 0; // current length of string

	mov	QWORD PTR $T5[rsp+16], r15

; 2294 :     size_type _Myres  = 0; // current storage reserved for string

	mov	QWORD PTR $T5[rsp+24], r15

; 2540 :         _Construct<_Construct_strategy::_From_ptr>(_Ptr, _Convert_size<size_type>(_Traits::length(_Ptr)));

	lea	r8d, QWORD PTR [r15+6]
	lea	rdx, OFFSET FLAT:??_C@_06JHIPJLFD@SexAge@
	lea	rcx, QWORD PTR $T5[rsp]
	call	??$_Construct@$00PEBD@?$basic_string@DU?$char_traits@D@std@@V?$allocator@D@2@@std@@AEAAXQEBD_K@Z ; std::basic_string<char,std::char_traits<char>,std::allocator<char> >::_Construct<1,char const *>
; File H:\Paul\switchemulator\Zelda TotK\MapEditorV4\OldVersion\MapEditor\Byml.cpp

; 89   :     for (BymlFile::Node& Node : this->m_Nodes)

	mov	rbx, QWORD PTR UMiiByml$[rbp-256]
	mov	r15, QWORD PTR UMiiByml$[rbp-248]
	cmp	rbx, r15
	je	SHORT $LN148@UMii
	add	rbx, 32					; 00000020H
	mov	r13, QWORD PTR $T5[rsp+24]
	mov	r12, QWORD PTR $T5[rsp+16]
	npad	8
$LL149@UMii:
; File C:\Program Files\Microsoft Visual Studio\2022\Community\VC\Tools\MSVC\14.37.32822\include\xstring

; 2235 :         const value_type* _Result = _Bx._Buf;

	lea	rdx, QWORD PTR $T5[rsp]

; 2236 :         if (_Large_string_engaged()) {

	cmp	r13, 16
	cmovae	rdx, QWORD PTR $T5[rsp]

; 4584 :         return _Traits_equal<_Traits>(_Mypair._Myval2._Myptr(), _Mypair._Myval2._Mysize,

	mov	r8, QWORD PTR [rbx+16]

; 2235 :         const value_type* _Result = _Bx._Buf;

	mov	rcx, rbx

; 2236 :         if (_Large_string_engaged()) {

	cmp	QWORD PTR [rbx+24], 16
	jb	SHORT $LN162@UMii

; 2237 :             _Result = _Unfancy(_Bx._Ptr);

	mov	rcx, QWORD PTR [rbx]
$LN162@UMii:

; 548  :     return _Left_size == _Right_size && _Traits::compare(_Left, _Right, _Left_size) == 0;

	cmp	r8, r12
	jne	SHORT $LN168@UMii

; 381  :         return __builtin_memcmp(_First1, _First2, _Count);

	call	memcmp

; 548  :     return _Left_size == _Right_size && _Traits::compare(_Left, _Right, _Left_size) == 0;

	test	eax, eax
	je	$LN1760@UMii
$LN168@UMii:
; File H:\Paul\switchemulator\Zelda TotK\MapEditorV4\OldVersion\MapEditor\Byml.cpp

; 89   :     for (BymlFile::Node& Node : this->m_Nodes)

	add	rbx, 88					; 00000058H
	lea	rax, QWORD PTR [rbx-32]
	cmp	rax, r15
	jne	SHORT $LL149@UMii
$LN148@UMii:

; 94   :         }
; 95   :     }
; 96   :     return false;

	xor	bl, bl
$LN146@UMii:
; File H:\Paul\switchemulator\Zelda TotK\MapEditorV4\OldVersion\MapEditor\UMii.cpp

; 11   : 	if (UMiiByml.HasChild("SexAge"))

	lea	rcx, QWORD PTR $T5[rsp]
	call	?_Tidy_deallocate@?$basic_string@DU?$char_traits@D@std@@V?$allocator@D@2@@std@@AEAAXXZ ; std::basic_string<char,std::char_traits<char>,std::allocator<char> >::_Tidy_deallocate
	test	bl, bl
	je	SHORT $LN1687@UMii

; 12   : 	{
; 13   : 		this->SexAge = UMiiByml.GetNode("SexAge")->GetValue<std::string>();

	lea	rdx, OFFSET FLAT:??_C@_06JHIPJLFD@SexAge@
	lea	rcx, QWORD PTR $T12[rsp]
	call	??0?$basic_string@DU?$char_traits@D@std@@V?$allocator@D@2@@std@@QEAA@QEBD@Z ; std::basic_string<char,std::char_traits<char>,std::allocator<char> >::basic_string<char,std::char_traits<char>,std::allocator<char> >
	mov	rdx, rax
	lea	rcx, QWORD PTR UMiiByml$[rbp-256]
	call	?GetNode@BymlFile@@QEAAPEAVNode@1@V?$basic_string@DU?$char_traits@D@std@@V?$allocator@D@2@@std@@@Z ; BymlFile::GetNode
	lea	rdx, QWORD PTR $T25[rbp-256]
	mov	rcx, rax
	call	??$GetValue@V?$basic_string@DU?$char_traits@D@std@@V?$allocator@D@2@@std@@@Node@BymlFile@@QEAA?AV?$basic_string@DU?$char_traits@D@std@@V?$allocator@D@2@@std@@XZ ; BymlFile::Node::GetValue<std::basic_string<char,std::char_traits<char>,std::allocator<char> > >
	mov	rdx, rax
	mov	rcx, rdi
	call	??4?$basic_string@DU?$char_traits@D@std@@V?$allocator@D@2@@std@@QEAAAEAV01@$$QEAV01@@Z ; std::basic_string<char,std::char_traits<char>,std::allocator<char> >::operator=
; File C:\Program Files\Microsoft Visual Studio\2022\Community\VC\Tools\MSVC\14.37.32822\include\xstring

; 3119 :         _Tidy_deallocate();

	lea	rcx, QWORD PTR $T25[rbp-256]
	call	?_Tidy_deallocate@?$basic_string@DU?$char_traits@D@std@@V?$allocator@D@2@@std@@AEAAXXZ ; std::basic_string<char,std::char_traits<char>,std::allocator<char> >::_Tidy_deallocate
$LN1687@UMii:
	xorps	xmm0, xmm0

; 2284 :         _CONSTEXPR20 _Bxty() noexcept : _Buf() {} // user-provided, for fancy pointers

	movups	XMMWORD PTR $T4[rsp], xmm0

; 2293 :     size_type _Mysize = 0; // current length of string

	mov	QWORD PTR $T4[rsp+16], 0

; 2294 :     size_type _Myres  = 0; // current storage reserved for string

	mov	QWORD PTR $T4[rsp+24], 0

; 2540 :         _Construct<_Construct_strategy::_From_ptr>(_Ptr, _Convert_size<size_type>(_Traits::length(_Ptr)));

	mov	r8d, 4
	lea	rdx, OFFSET FLAT:??_C@_04KKIPOOLE@Race@
	lea	rcx, QWORD PTR $T4[rsp]
	call	??$_Construct@$00PEBD@?$basic_string@DU?$char_traits@D@std@@V?$allocator@D@2@@std@@AEAAXQEBD_K@Z ; std::basic_string<char,std::char_traits<char>,std::allocator<char> >::_Construct<1,char const *>
; File H:\Paul\switchemulator\Zelda TotK\MapEditorV4\OldVersion\MapEditor\Byml.cpp

; 89   :     for (BymlFile::Node& Node : this->m_Nodes)

	mov	rbx, QWORD PTR UMiiByml$[rbp-256]
	mov	r15, QWORD PTR UMiiByml$[rbp-248]
	cmp	rbx, r15
	je	SHORT $LN454@UMii
	add	rbx, 32					; 00000020H
	mov	r13, QWORD PTR $T4[rsp+24]
	mov	r12, QWORD PTR $T4[rsp+16]
$LL455@UMii:
; File C:\Program Files\Microsoft Visual Studio\2022\Community\VC\Tools\MSVC\14.37.32822\include\xstring

; 2235 :         const value_type* _Result = _Bx._Buf;

	lea	rdx, QWORD PTR $T4[rsp]

; 2236 :         if (_Large_string_engaged()) {

	cmp	r13, 16
	cmovae	rdx, QWORD PTR $T4[rsp]

; 4584 :         return _Traits_equal<_Traits>(_Mypair._Myval2._Myptr(), _Mypair._Myval2._Mysize,

	mov	r8, QWORD PTR [rbx+16]

; 2235 :         const value_type* _Result = _Bx._Buf;

	mov	rcx, rbx

; 2236 :         if (_Large_string_engaged()) {

	cmp	QWORD PTR [rbx+24], 16
	jb	SHORT $LN468@UMii

; 2237 :             _Result = _Unfancy(_Bx._Ptr);

	mov	rcx, QWORD PTR [rbx]
$LN468@UMii:

; 548  :     return _Left_size == _Right_size && _Traits::compare(_Left, _Right, _Left_size) == 0;

	cmp	r8, r12
	jne	SHORT $LN474@UMii

; 381  :         return __builtin_memcmp(_First1, _First2, _Count);

	call	memcmp

; 548  :     return _Left_size == _Right_size && _Traits::compare(_Left, _Right, _Left_size) == 0;

	test	eax, eax
	je	$LN1761@UMii
$LN474@UMii:
; File H:\Paul\switchemulator\Zelda TotK\MapEditorV4\OldVersion\MapEditor\Byml.cpp

; 89   :     for (BymlFile::Node& Node : this->m_Nodes)

	add	rbx, 88					; 00000058H
	lea	rax, QWORD PTR [rbx-32]
	cmp	rax, r15
	jne	SHORT $LL455@UMii
$LN454@UMii:

; 94   :         }
; 95   :     }
; 96   :     return false;

	xor	bl, bl
$LN452@UMii:
; File H:\Paul\switchemulator\Zelda TotK\MapEditorV4\OldVersion\MapEditor\UMii.cpp

; 15   : 	if (UMiiByml.HasChild("Race"))

	lea	rcx, QWORD PTR $T4[rsp]
	call	?_Tidy_deallocate@?$basic_string@DU?$char_traits@D@std@@V?$allocator@D@2@@std@@AEAAXXZ ; std::basic_string<char,std::char_traits<char>,std::allocator<char> >::_Tidy_deallocate
	test	bl, bl
	je	SHORT $LN1690@UMii

; 16   : 	{
; 17   : 		this->Race = UMiiByml.GetNode("Race")->GetValue<std::string>();

	lea	rdx, OFFSET FLAT:??_C@_04KKIPOOLE@Race@
	lea	rcx, QWORD PTR $T11[rsp]
	call	??0?$basic_string@DU?$char_traits@D@std@@V?$allocator@D@2@@std@@QEAA@QEBD@Z ; std::basic_string<char,std::char_traits<char>,std::allocator<char> >::basic_string<char,std::char_traits<char>,std::allocator<char> >
	mov	rdx, rax
	lea	rcx, QWORD PTR UMiiByml$[rbp-256]
	call	?GetNode@BymlFile@@QEAAPEAVNode@1@V?$basic_string@DU?$char_traits@D@std@@V?$allocator@D@2@@std@@@Z ; BymlFile::GetNode
	lea	rdx, QWORD PTR $T24[rbp-256]
	mov	rcx, rax
	call	??$GetValue@V?$basic_string@DU?$char_traits@D@std@@V?$allocator@D@2@@std@@@Node@BymlFile@@QEAA?AV?$basic_string@DU?$char_traits@D@std@@V?$allocator@D@2@@std@@XZ ; BymlFile::Node::GetValue<std::basic_string<char,std::char_traits<char>,std::allocator<char> > >
	mov	rdx, rax
	lea	rcx, QWORD PTR [rdi+96]
	call	??4?$basic_string@DU?$char_traits@D@std@@V?$allocator@D@2@@std@@QEAAAEAV01@$$QEAV01@@Z ; std::basic_string<char,std::char_traits<char>,std::allocator<char> >::operator=
; File C:\Program Files\Microsoft Visual Studio\2022\Community\VC\Tools\MSVC\14.37.32822\include\xstring

; 3119 :         _Tidy_deallocate();

	lea	rcx, QWORD PTR $T24[rbp-256]
	call	?_Tidy_deallocate@?$basic_string@DU?$char_traits@D@std@@V?$allocator@D@2@@std@@AEAAXXZ ; std::basic_string<char,std::char_traits<char>,std::allocator<char> >::_Tidy_deallocate
$LN1690@UMii:
	xorps	xmm0, xmm0

; 2284 :         _CONSTEXPR20 _Bxty() noexcept : _Buf() {} // user-provided, for fancy pointers

	movups	XMMWORD PTR $T3[rsp], xmm0

; 2293 :     size_type _Mysize = 0; // current length of string

	xor	r12d, r12d
	mov	QWORD PTR $T3[rsp+16], r12

; 2294 :     size_type _Myres  = 0; // current storage reserved for string

	mov	QWORD PTR $T3[rsp+24], r12

; 2540 :         _Construct<_Construct_strategy::_From_ptr>(_Ptr, _Convert_size<size_type>(_Traits::length(_Ptr)));

	lea	r8d, QWORD PTR [r12+4]
	lea	rdx, OFFSET FLAT:??_C@_04MJIIEFNN@Body@
	lea	rcx, QWORD PTR $T3[rsp]
	call	??$_Construct@$00PEBD@?$basic_string@DU?$char_traits@D@std@@V?$allocator@D@2@@std@@AEAAXQEBD_K@Z ; std::basic_string<char,std::char_traits<char>,std::allocator<char> >::_Construct<1,char const *>
; File H:\Paul\switchemulator\Zelda TotK\MapEditorV4\OldVersion\MapEditor\Byml.cpp

; 233  :     for (BymlFile::Node& Node : this->m_Nodes)

	mov	rbx, QWORD PTR UMiiByml$[rbp-256]
	mov	r15, QWORD PTR UMiiByml$[rbp-248]
	cmp	rbx, r15
	je	SHORT $LN763@UMii
	mov	r13, QWORD PTR $T3[rsp+24]
	mov	r12, QWORD PTR $T3[rsp+16]
	npad	7
$LL764@UMii:
; File C:\Program Files\Microsoft Visual Studio\2022\Community\VC\Tools\MSVC\14.37.32822\include\xstring

; 2235 :         const value_type* _Result = _Bx._Buf;

	lea	rdx, QWORD PTR $T3[rsp]

; 2236 :         if (_Large_string_engaged()) {

	cmp	r13, 16
	cmovae	rdx, QWORD PTR $T3[rsp]

; 4584 :         return _Traits_equal<_Traits>(_Mypair._Myval2._Myptr(), _Mypair._Myval2._Mysize,

	mov	r8, QWORD PTR [rbx+48]

; 2235 :         const value_type* _Result = _Bx._Buf;

	lea	rcx, QWORD PTR [rbx+32]

; 2236 :         if (_Large_string_engaged()) {

	cmp	QWORD PTR [rbx+56], 16
	jb	SHORT $LN777@UMii

; 2237 :             _Result = _Unfancy(_Bx._Ptr);

	mov	rcx, QWORD PTR [rcx]
$LN777@UMii:

; 548  :     return _Left_size == _Right_size && _Traits::compare(_Left, _Right, _Left_size) == 0;

	cmp	r8, r12
	jne	SHORT $LN783@UMii

; 381  :         return __builtin_memcmp(_First1, _First2, _Count);

	call	memcmp

; 548  :     return _Left_size == _Right_size && _Traits::compare(_Left, _Right, _Left_size) == 0;

	test	eax, eax
	je	$LN1762@UMii
$LN783@UMii:
; File H:\Paul\switchemulator\Zelda TotK\MapEditorV4\OldVersion\MapEditor\Byml.cpp

; 233  :     for (BymlFile::Node& Node : this->m_Nodes)

	add	rbx, 88					; 00000058H
	cmp	rbx, r15
	jne	SHORT $LL764@UMii
	xor	r12d, r12d
$LN763@UMii:

; 238  :         }
; 239  :     }
; 240  : 
; 241  :     return nullptr;

	mov	rbx, r12
$LN761@UMii:
; File H:\Paul\switchemulator\Zelda TotK\MapEditorV4\OldVersion\MapEditor\UMii.cpp

; 21   : 	if (BodyDict != nullptr)

	lea	rcx, QWORD PTR $T3[rsp]
	call	?_Tidy_deallocate@?$basic_string@DU?$char_traits@D@std@@V?$allocator@D@2@@std@@AEAAXXZ ; std::basic_string<char,std::char_traits<char>,std::allocator<char> >::_Tidy_deallocate
	mov	r15, -1
	test	rbx, rbx
	je	$LN1711@UMii

; 22   : 	{
; 23   : 		this->Type = BodyDict->GetChild("Type")->GetValue<std::string>();

	lea	rdx, OFFSET FLAT:??_C@_04KOACHJEN@Type@
	lea	rcx, QWORD PTR $T10[rsp]
	call	??0?$basic_string@DU?$char_traits@D@std@@V?$allocator@D@2@@std@@QEAA@QEBD@Z ; std::basic_string<char,std::char_traits<char>,std::allocator<char> >::basic_string<char,std::char_traits<char>,std::allocator<char> >
	mov	rdx, rax
	mov	rcx, rbx
	call	?GetChild@Node@BymlFile@@QEAAPEAV12@V?$basic_string@DU?$char_traits@D@std@@V?$allocator@D@2@@std@@@Z ; BymlFile::Node::GetChild
	lea	rdx, QWORD PTR $T23[rbp-256]
	mov	rcx, rax
	call	??$GetValue@V?$basic_string@DU?$char_traits@D@std@@V?$allocator@D@2@@std@@@Node@BymlFile@@QEAA?AV?$basic_string@DU?$char_traits@D@std@@V?$allocator@D@2@@std@@XZ ; BymlFile::Node::GetValue<std::basic_string<char,std::char_traits<char>,std::allocator<char> > >
	mov	rdx, rax
	lea	rcx, QWORD PTR [rdi+32]
	call	??4?$basic_string@DU?$char_traits@D@std@@V?$allocator@D@2@@std@@QEAAAEAV01@$$QEAV01@@Z ; std::basic_string<char,std::char_traits<char>,std::allocator<char> >::operator=
; File C:\Program Files\Microsoft Visual Studio\2022\Community\VC\Tools\MSVC\14.37.32822\include\xstring

; 3119 :         _Tidy_deallocate();

	lea	rcx, QWORD PTR $T23[rbp-256]
	call	?_Tidy_deallocate@?$basic_string@DU?$char_traits@D@std@@V?$allocator@D@2@@std@@AEAAXXZ ; std::basic_string<char,std::char_traits<char>,std::allocator<char> >::_Tidy_deallocate
; File H:\Paul\switchemulator\Zelda TotK\MapEditorV4\OldVersion\MapEditor\UMii.cpp

; 25   : 		if (BodyDict->HasChild("Number"))

	lea	rdx, OFFSET FLAT:??_C@_06IONACMBM@Number@
	lea	rcx, QWORD PTR $T9[rsp]
	call	??0?$basic_string@DU?$char_traits@D@std@@V?$allocator@D@2@@std@@QEAA@QEBD@Z ; std::basic_string<char,std::char_traits<char>,std::allocator<char> >::basic_string<char,std::char_traits<char>,std::allocator<char> >
	mov	rdx, rax
	mov	rcx, rbx
	call	?HasChild@Node@BymlFile@@QEAA_NV?$basic_string@DU?$char_traits@D@std@@V?$allocator@D@2@@std@@@Z ; BymlFile::Node::HasChild
	test	al, al
	je	$LN1711@UMii

; 26   : 		{
; 27   : 			this->Number = BodyDict->GetChild("Number")->GetValue<std::string>();

	lea	rdx, OFFSET FLAT:??_C@_06IONACMBM@Number@
	lea	rcx, QWORD PTR $T22[rbp-256]
	call	??0?$basic_string@DU?$char_traits@D@std@@V?$allocator@D@2@@std@@QEAA@QEBD@Z ; std::basic_string<char,std::char_traits<char>,std::allocator<char> >::basic_string<char,std::char_traits<char>,std::allocator<char> >
	mov	rdx, rax
	mov	rcx, rbx
	call	?GetChild@Node@BymlFile@@QEAAPEAV12@V?$basic_string@DU?$char_traits@D@std@@V?$allocator@D@2@@std@@@Z ; BymlFile::Node::GetChild
	lea	rdx, QWORD PTR $T36[rbp-256]
	mov	rcx, rax
	call	??$GetValue@V?$basic_string@DU?$char_traits@D@std@@V?$allocator@D@2@@std@@@Node@BymlFile@@QEAA?AV?$basic_string@DU?$char_traits@D@std@@V?$allocator@D@2@@std@@XZ ; BymlFile::Node::GetValue<std::basic_string<char,std::char_traits<char>,std::allocator<char> > >
	mov	rdx, rax
	lea	rcx, QWORD PTR [rdi+64]
	call	??4?$basic_string@DU?$char_traits@D@std@@V?$allocator@D@2@@std@@QEAAAEAV01@$$QEAV01@@Z ; std::basic_string<char,std::char_traits<char>,std::allocator<char> >::operator=
; File C:\Program Files\Microsoft Visual Studio\2022\Community\VC\Tools\MSVC\14.37.32822\include\xstring

; 3119 :         _Tidy_deallocate();

	lea	rcx, QWORD PTR $T36[rbp-256]
	call	?_Tidy_deallocate@?$basic_string@DU?$char_traits@D@std@@V?$allocator@D@2@@std@@AEAAXXZ ; std::basic_string<char,std::char_traits<char>,std::allocator<char> >::_Tidy_deallocate
; File H:\Paul\switchemulator\Zelda TotK\MapEditorV4\OldVersion\MapEditor\UMii.cpp

; 28   : 			this->Number = this->Number.substr(6);

	mov	r9, r15
	lea	r8d, QWORD PTR [r15+7]
	lea	rdx, QWORD PTR $T8[rsp]
	lea	rcx, QWORD PTR [rdi+64]
	call	?substr@?$basic_string@DU?$char_traits@D@std@@V?$allocator@D@2@@std@@QEBA?AV12@_K0@Z ; std::basic_string<char,std::char_traits<char>,std::allocator<char> >::substr
	mov	rdx, rax
	lea	rcx, QWORD PTR [rdi+64]
	call	??4?$basic_string@DU?$char_traits@D@std@@V?$allocator@D@2@@std@@QEAAAEAV01@$$QEAV01@@Z ; std::basic_string<char,std::char_traits<char>,std::allocator<char> >::operator=
; File C:\Program Files\Microsoft Visual Studio\2022\Community\VC\Tools\MSVC\14.37.32822\include\xstring

; 3119 :         _Tidy_deallocate();

	lea	rcx, QWORD PTR $T8[rsp]
	call	?_Tidy_deallocate@?$basic_string@DU?$char_traits@D@std@@V?$allocator@D@2@@std@@AEAAXXZ ; std::basic_string<char,std::char_traits<char>,std::allocator<char> >::_Tidy_deallocate
; File H:\Paul\switchemulator\Zelda TotK\MapEditorV4\OldVersion\MapEditor\UMii.cpp

; 29   : 			if (this->Number.length() == 1)

	mov	rax, QWORD PTR [rdi+80]
	cmp	rax, 1
	jne	SHORT $LN6@UMii

; 30   : 				Number = "00" + Number;

	lea	rdx, OFFSET FLAT:??_C@_02PLJDPFIO@00@
	jmp	SHORT $LN2000@UMii
$LN1760@UMii:
; File H:\Paul\switchemulator\Zelda TotK\MapEditorV4\OldVersion\MapEditor\Byml.cpp

; 93   :             return true;

	mov	bl, 1
	jmp	$LN146@UMii
$LN1761@UMii:
	mov	bl, 1
	jmp	$LN452@UMii
$LN1762@UMii:

; 237  :             return &Node;

	xor	r12d, r12d
	jmp	$LN761@UMii
$LN6@UMii:
; File H:\Paul\switchemulator\Zelda TotK\MapEditorV4\OldVersion\MapEditor\UMii.cpp

; 31   : 			else if (this->Number.length() == 2)

	cmp	rax, 2
	jne	SHORT $LN1711@UMii

; 32   : 				Number = "0" + Number;

	lea	rdx, OFFSET FLAT:??_C@_01GBGANLPD@0@
$LN2000@UMii:
; File C:\Program Files\Microsoft Visual Studio\2022\Community\VC\Tools\MSVC\14.37.32822\include\xstring

; 4590 :         return _Traits_equal<_Traits>(_Mypair._Myval2._Myptr(), _Mypair._Myval2._Mysize, _Ptr, _Traits::length(_Ptr));

	lea	r8, QWORD PTR [rdi+64]
	lea	rcx, QWORD PTR $T7[rsp]
	call	??$?HDU?$char_traits@D@std@@V?$allocator@D@1@@std@@YA?AV?$basic_string@DU?$char_traits@D@std@@V?$allocator@D@2@@0@QEBDAEBV10@@Z ; std::operator+<char,std::char_traits<char>,std::allocator<char> >
	mov	rdx, rax
	lea	rcx, QWORD PTR [rdi+64]
	call	??4?$basic_string@DU?$char_traits@D@std@@V?$allocator@D@2@@std@@QEAAAEAV01@$$QEAV01@@Z ; std::basic_string<char,std::char_traits<char>,std::allocator<char> >::operator=
	lea	rcx, QWORD PTR $T7[rsp]
	call	?_Tidy_deallocate@?$basic_string@DU?$char_traits@D@std@@V?$allocator@D@2@@std@@AEAAXXZ ; std::basic_string<char,std::char_traits<char>,std::allocator<char> >::_Tidy_deallocate
$LN1711@UMii:
	mov	r8, QWORD PTR [rdi+112]

; 2235 :         const value_type* _Result = _Bx._Buf;

	lea	rcx, QWORD PTR [rdi+96]

; 2236 :         if (_Large_string_engaged()) {

	cmp	QWORD PTR [rdi+120], 16
	jb	SHORT $LN1230@UMii

; 2237 :             _Result = _Unfancy(_Bx._Ptr);

	mov	rcx, QWORD PTR [rdi+96]
$LN1230@UMii:

; 548  :     return _Left_size == _Right_size && _Traits::compare(_Left, _Right, _Left_size) == 0;

	cmp	r8, 5
	jne	SHORT $LN10@UMii

; 381  :         return __builtin_memcmp(_First1, _First2, _Count);

	lea	rdx, OFFSET FLAT:??_C@_05JIMBFNAF@Korog@
	call	memcmp

; 548  :     return _Left_size == _Right_size && _Traits::compare(_Left, _Right, _Left_size) == 0;

	test	eax, eax
	jne	SHORT $LN10@UMii
; File H:\Paul\switchemulator\Zelda TotK\MapEditorV4\OldVersion\MapEditor\UMii.cpp

; 37   : 	std::string ModelRace = Race == "Korog" ? "Korogu" : Race;

	lea	rdx, OFFSET FLAT:??_C@_06CCLKLIGB@Korogu@
	lea	rcx, QWORD PTR $T46[rbp-256]
	call	??0?$basic_string@DU?$char_traits@D@std@@V?$allocator@D@2@@std@@QEAA@QEBD@Z ; std::basic_string<char,std::char_traits<char>,std::allocator<char> >::basic_string<char,std::char_traits<char>,std::allocator<char> >
	npad	1
	mov	ebx, 1
	jmp	SHORT $LN11@UMii
$LN10@UMii:
	lea	rdx, QWORD PTR [rdi+96]
	lea	rcx, QWORD PTR $T45[rbp-256]
	call	??0?$basic_string@DU?$char_traits@D@std@@V?$allocator@D@2@@std@@QEAA@AEBV01@@Z ; std::basic_string<char,std::char_traits<char>,std::allocator<char> >::basic_string<char,std::char_traits<char>,std::allocator<char> >
	mov	ebx, 2
$LN11@UMii:
; File C:\Program Files\Microsoft Visual Studio\2022\Community\VC\Tools\MSVC\14.37.32822\include\xstring

; 2999 :         _CSTD memcpy(_My_data_mem, _Right_data_mem, _Memcpy_val_size);

	movups	xmm0, XMMWORD PTR [rax]
	movups	XMMWORD PTR ModelRace$[rbp-256], xmm0
	movups	xmm6, XMMWORD PTR [rax+16]
	movups	XMMWORD PTR ModelRace$[rbp-240], xmm6
; File H:\Paul\switchemulator\Zelda TotK\MapEditorV4\OldVersion\MapEditor\UMii.cpp

; 37   : 	std::string ModelRace = Race == "Korog" ? "Korogu" : Race;

	mov	QWORD PTR [rax+16], r12
	mov	QWORD PTR [rax+24], 15
	mov	BYTE PTR [rax], 0
	test	bl, 2
	je	SHORT $LN1696@UMii
	and	ebx, -3
; File C:\Program Files\Microsoft Visual Studio\2022\Community\VC\Tools\MSVC\14.37.32822\include\xstring

; 3119 :         _Tidy_deallocate();

	lea	rcx, QWORD PTR $T45[rbp-256]
	call	?_Tidy_deallocate@?$basic_string@DU?$char_traits@D@std@@V?$allocator@D@2@@std@@AEAAXXZ ; std::basic_string<char,std::char_traits<char>,std::allocator<char> >::_Tidy_deallocate
	npad	1
$LN1696@UMii:
; File H:\Paul\switchemulator\Zelda TotK\MapEditorV4\OldVersion\MapEditor\UMii.cpp

; 37   : 	std::string ModelRace = Race == "Korog" ? "Korogu" : Race;

	test	bl, 1
	je	SHORT $LN1699@UMii
; File C:\Program Files\Microsoft Visual Studio\2022\Community\VC\Tools\MSVC\14.37.32822\include\xstring

; 3119 :         _Tidy_deallocate();

	lea	rcx, QWORD PTR $T46[rbp-256]
	call	?_Tidy_deallocate@?$basic_string@DU?$char_traits@D@std@@V?$allocator@D@2@@std@@AEAAXXZ ; std::basic_string<char,std::char_traits<char>,std::allocator<char> >::_Tidy_deallocate
$LN1699@UMii:

; 4916 :     if (_Right.max_size() - _Right_size < _Left_size) {

	mov	r15, 9223372036854775807		; 7fffffffffffffffH
	mov	rax, r15
	movq	rcx, xmm6
	sub	rax, rcx
	cmp	rax, 5
	jb	$LN2002@UMii

; 2235 :         const value_type* _Result = _Bx._Buf;

	lea	rax, QWORD PTR ModelRace$[rbp-256]

; 2236 :         if (_Large_string_engaged()) {

	cmp	QWORD PTR ModelRace$[rbp-232], 16
	cmovae	rax, QWORD PTR ModelRace$[rbp-256]

; 4920 :     return {_String_constructor_concat_tag{}, _Right, _Left, _Left_size, _Right.c_str(), _Right_size};

	mov	QWORD PTR [rsp+48], rcx
	mov	QWORD PTR [rsp+40], rax
	mov	QWORD PTR [rsp+32], 5
	lea	r9, OFFSET FLAT:??_C@_05IOBGFCFN@UMii_@
	lea	rcx, QWORD PTR $T6[rsp]
	call	??0?$basic_string@DU?$char_traits@D@std@@V?$allocator@D@2@@std@@QEAA@U_String_constructor_concat_tag@1@AEBV01@QEBD_K23@Z ; std::basic_string<char,std::char_traits<char>,std::allocator<char> >::basic_string<char,std::char_traits<char>,std::allocator<char> >
	npad	1

; 3292 :         return append(_Ptr, _Convert_size<size_type>(_Traits::length(_Ptr)));

	mov	r8d, 5
	lea	rdx, OFFSET FLAT:??_C@_05EDLAKJEB@_Body@
	lea	rcx, QWORD PTR $T6[rsp]
	call	?append@?$basic_string@DU?$char_traits@D@std@@V?$allocator@D@2@@std@@QEAAAEAV12@QEBD_K@Z ; std::basic_string<char,std::char_traits<char>,std::allocator<char> >::append
	xorps	xmm0, xmm0

; 2284 :         _CONSTEXPR20 _Bxty() noexcept : _Buf() {} // user-provided, for fancy pointers

	movups	XMMWORD PTR $T35[rbp-256], xmm0
	xorps	xmm1, xmm1

; 2293 :     size_type _Mysize = 0; // current length of string

	movdqu	XMMWORD PTR $T35[rbp-240], xmm1

; 2999 :         _CSTD memcpy(_My_data_mem, _Right_data_mem, _Memcpy_val_size);

	movups	xmm0, XMMWORD PTR [rax]
	movups	XMMWORD PTR $T35[rbp-256], xmm0
	movups	xmm1, XMMWORD PTR [rax+16]
	movups	XMMWORD PTR $T35[rbp-240], xmm1
; File H:\Paul\switchemulator\Zelda TotK\MapEditorV4\OldVersion\MapEditor\UMii.cpp

; 38   : 	this->m_ModelElements.push_back(ModelElement{

	mov	QWORD PTR [rax+16], r12
	mov	QWORD PTR [rax+24], 15
	mov	BYTE PTR [rax], 0
; File C:\Program Files\Microsoft Visual Studio\2022\Community\VC\Tools\MSVC\14.37.32822\include\xstring

; 2235 :         const value_type* _Result = _Bx._Buf;

	lea	rdx, QWORD PTR [rdi+32]

; 2236 :         if (_Large_string_engaged()) {

	cmp	QWORD PTR [rdi+56], 16
	jb	SHORT $LN1350@UMii

; 2237 :             _Result = _Unfancy(_Bx._Ptr);

	mov	rdx, QWORD PTR [rdi+32]
$LN1350@UMii:

; 3241 :         return append(_Right._Mypair._Myval2._Myptr(), _Right._Mypair._Myval2._Mysize);

	mov	r8, QWORD PTR [rdi+48]
	lea	rcx, QWORD PTR $T35[rbp-256]
	call	?append@?$basic_string@DU?$char_traits@D@std@@V?$allocator@D@2@@std@@QEAAAEAV12@QEBD_K@Z ; std::basic_string<char,std::char_traits<char>,std::allocator<char> >::append
	xorps	xmm0, xmm0

; 2284 :         _CONSTEXPR20 _Bxty() noexcept : _Buf() {} // user-provided, for fancy pointers

	movups	XMMWORD PTR $T43[rbp-256], xmm0
	xorps	xmm1, xmm1

; 2293 :     size_type _Mysize = 0; // current length of string

	movdqu	XMMWORD PTR $T43[rbp-240], xmm1

; 2999 :         _CSTD memcpy(_My_data_mem, _Right_data_mem, _Memcpy_val_size);

	movups	xmm0, XMMWORD PTR [rax]
	movups	XMMWORD PTR $T43[rbp-256], xmm0
	movups	xmm1, XMMWORD PTR [rax+16]
	movups	XMMWORD PTR $T43[rbp-240], xmm1
; File H:\Paul\switchemulator\Zelda TotK\MapEditorV4\OldVersion\MapEditor\UMii.cpp

; 38   : 	this->m_ModelElements.push_back(ModelElement{

	mov	QWORD PTR [rax+16], r12
	mov	QWORD PTR [rax+24], 15
	mov	BYTE PTR [rax], 0
; File C:\Program Files\Microsoft Visual Studio\2022\Community\VC\Tools\MSVC\14.37.32822\include\xstring

; 3292 :         return append(_Ptr, _Convert_size<size_type>(_Traits::length(_Ptr)));

	mov	r8d, 1
	lea	rdx, OFFSET FLAT:??_C@_01IDAFKMJL@_@
	lea	rcx, QWORD PTR $T43[rbp-256]
	call	?append@?$basic_string@DU?$char_traits@D@std@@V?$allocator@D@2@@std@@QEAAAEAV12@QEBD_K@Z ; std::basic_string<char,std::char_traits<char>,std::allocator<char> >::append
	xorps	xmm0, xmm0

; 2284 :         _CONSTEXPR20 _Bxty() noexcept : _Buf() {} // user-provided, for fancy pointers

	movups	XMMWORD PTR $T42[rbp-256], xmm0
	xorps	xmm1, xmm1

; 2293 :     size_type _Mysize = 0; // current length of string

	movdqu	XMMWORD PTR $T42[rbp-240], xmm1

; 2999 :         _CSTD memcpy(_My_data_mem, _Right_data_mem, _Memcpy_val_size);

	movups	xmm0, XMMWORD PTR [rax]
	movups	XMMWORD PTR $T42[rbp-256], xmm0
	movups	xmm1, XMMWORD PTR [rax+16]
	movups	XMMWORD PTR $T42[rbp-240], xmm1
; File H:\Paul\switchemulator\Zelda TotK\MapEditorV4\OldVersion\MapEditor\UMii.cpp

; 38   : 	this->m_ModelElements.push_back(ModelElement{

	mov	QWORD PTR [rax+16], r12
	mov	QWORD PTR [rax+24], 15
	mov	BYTE PTR [rax], 0
; File C:\Program Files\Microsoft Visual Studio\2022\Community\VC\Tools\MSVC\14.37.32822\include\xstring

; 2235 :         const value_type* _Result = _Bx._Buf;

	mov	rdx, rdi

; 2236 :         if (_Large_string_engaged()) {

	cmp	QWORD PTR [rdi+24], 16
	jb	SHORT $LN1429@UMii

; 2237 :             _Result = _Unfancy(_Bx._Ptr);

	mov	rdx, QWORD PTR [rdi]
$LN1429@UMii:

; 3241 :         return append(_Right._Mypair._Myval2._Myptr(), _Right._Mypair._Myval2._Mysize);

	mov	r8, QWORD PTR [rdi+16]
	lea	rcx, QWORD PTR $T42[rbp-256]
	call	?append@?$basic_string@DU?$char_traits@D@std@@V?$allocator@D@2@@std@@QEAAAEAV12@QEBD_K@Z ; std::basic_string<char,std::char_traits<char>,std::allocator<char> >::append
	xorps	xmm0, xmm0

; 2284 :         _CONSTEXPR20 _Bxty() noexcept : _Buf() {} // user-provided, for fancy pointers

	movups	XMMWORD PTR $T41[rbp-256], xmm0
	xorps	xmm1, xmm1

; 2293 :     size_type _Mysize = 0; // current length of string

	movdqu	XMMWORD PTR $T41[rbp-240], xmm1

; 2999 :         _CSTD memcpy(_My_data_mem, _Right_data_mem, _Memcpy_val_size);

	movups	xmm0, XMMWORD PTR [rax]
	movups	XMMWORD PTR $T41[rbp-256], xmm0
	movups	xmm1, XMMWORD PTR [rax+16]
	movups	XMMWORD PTR $T41[rbp-240], xmm1
; File H:\Paul\switchemulator\Zelda TotK\MapEditorV4\OldVersion\MapEditor\UMii.cpp

; 38   : 	this->m_ModelElements.push_back(ModelElement{

	mov	QWORD PTR [rax+16], r12
	mov	QWORD PTR [rax+24], 15
	mov	BYTE PTR [rax], 0
; File C:\Program Files\Microsoft Visual Studio\2022\Community\VC\Tools\MSVC\14.37.32822\include\xstring

; 3292 :         return append(_Ptr, _Convert_size<size_type>(_Traits::length(_Ptr)));

	mov	r8d, 1
	lea	rdx, OFFSET FLAT:??_C@_01IDAFKMJL@_@
	lea	rcx, QWORD PTR $T41[rbp-256]
	call	?append@?$basic_string@DU?$char_traits@D@std@@V?$allocator@D@2@@std@@QEAAAEAV12@QEBD_K@Z ; std::basic_string<char,std::char_traits<char>,std::allocator<char> >::append
	xorps	xmm0, xmm0

; 2284 :         _CONSTEXPR20 _Bxty() noexcept : _Buf() {} // user-provided, for fancy pointers

	movups	XMMWORD PTR $T40[rbp-256], xmm0
	xorps	xmm1, xmm1

; 2293 :     size_type _Mysize = 0; // current length of string

	movdqu	XMMWORD PTR $T40[rbp-240], xmm1

; 2999 :         _CSTD memcpy(_My_data_mem, _Right_data_mem, _Memcpy_val_size);

	movups	xmm0, XMMWORD PTR [rax]
	movups	XMMWORD PTR $T40[rbp-256], xmm0
	movups	xmm1, XMMWORD PTR [rax+16]
	movups	XMMWORD PTR $T40[rbp-240], xmm1
; File H:\Paul\switchemulator\Zelda TotK\MapEditorV4\OldVersion\MapEditor\UMii.cpp

; 38   : 	this->m_ModelElements.push_back(ModelElement{

	mov	QWORD PTR [rax+16], r12
	mov	QWORD PTR [rax+24], 15
	mov	BYTE PTR [rax], 0
; File C:\Program Files\Microsoft Visual Studio\2022\Community\VC\Tools\MSVC\14.37.32822\include\xstring

; 2235 :         const value_type* _Result = _Bx._Buf;

	lea	rdx, QWORD PTR [rdi+64]

; 2236 :         if (_Large_string_engaged()) {

	cmp	QWORD PTR [rdi+88], 16
	jb	SHORT $LN1508@UMii

; 2237 :             _Result = _Unfancy(_Bx._Ptr);

	mov	rdx, QWORD PTR [rdi+64]
$LN1508@UMii:

; 3241 :         return append(_Right._Mypair._Myval2._Myptr(), _Right._Mypair._Myval2._Mysize);

	mov	r8, QWORD PTR [rdi+80]
	lea	rcx, QWORD PTR $T40[rbp-256]
	call	?append@?$basic_string@DU?$char_traits@D@std@@V?$allocator@D@2@@std@@QEAAAEAV12@QEBD_K@Z ; std::basic_string<char,std::char_traits<char>,std::allocator<char> >::append
	xorps	xmm0, xmm0

; 2284 :         _CONSTEXPR20 _Bxty() noexcept : _Buf() {} // user-provided, for fancy pointers

	movups	XMMWORD PTR $T39[rbp-256], xmm0
	xorps	xmm1, xmm1

; 2293 :     size_type _Mysize = 0; // current length of string

	movdqu	XMMWORD PTR $T39[rbp-240], xmm1

; 2999 :         _CSTD memcpy(_My_data_mem, _Right_data_mem, _Memcpy_val_size);

	movups	xmm0, XMMWORD PTR [rax]
	movups	XMMWORD PTR $T39[rbp-256], xmm0
	movups	xmm1, XMMWORD PTR [rax+16]
	movups	XMMWORD PTR $T39[rbp-240], xmm1
; File H:\Paul\switchemulator\Zelda TotK\MapEditorV4\OldVersion\MapEditor\UMii.cpp

; 38   : 	this->m_ModelElements.push_back(ModelElement{

	mov	QWORD PTR [rax+16], r12
	mov	QWORD PTR [rax+24], 15
	mov	BYTE PTR [rax], 0
; File C:\Program Files\Microsoft Visual Studio\2022\Community\VC\Tools\MSVC\14.37.32822\include\xstring

; 3292 :         return append(_Ptr, _Convert_size<size_type>(_Traits::length(_Ptr)));

	mov	r8d, 1
	lea	rdx, OFFSET FLAT:??_C@_01LFCBOECM@?4@
	lea	rcx, QWORD PTR $T39[rbp-256]
	call	?append@?$basic_string@DU?$char_traits@D@std@@V?$allocator@D@2@@std@@QEAAAEAV12@QEBD_K@Z ; std::basic_string<char,std::char_traits<char>,std::allocator<char> >::append
	xorps	xmm0, xmm0

; 2284 :         _CONSTEXPR20 _Bxty() noexcept : _Buf() {} // user-provided, for fancy pointers

	movups	XMMWORD PTR $T38[rbp-256], xmm0
	xorps	xmm1, xmm1

; 2293 :     size_type _Mysize = 0; // current length of string

	movdqu	XMMWORD PTR $T38[rbp-240], xmm1

; 2999 :         _CSTD memcpy(_My_data_mem, _Right_data_mem, _Memcpy_val_size);

	movups	xmm0, XMMWORD PTR [rax]
	movups	XMMWORD PTR $T38[rbp-256], xmm0
	movups	xmm1, XMMWORD PTR [rax+16]
	movups	XMMWORD PTR $T38[rbp-240], xmm1
; File H:\Paul\switchemulator\Zelda TotK\MapEditorV4\OldVersion\MapEditor\UMii.cpp

; 38   : 	this->m_ModelElements.push_back(ModelElement{

	mov	QWORD PTR [rax+16], r12
	mov	QWORD PTR [rax+24], 15
	mov	BYTE PTR [rax], 0
; File C:\Program Files\Microsoft Visual Studio\2022\Community\VC\Tools\MSVC\14.37.32822\include\xstring

; 3292 :         return append(_Ptr, _Convert_size<size_type>(_Traits::length(_Ptr)));

	mov	r8d, 5
	lea	rdx, OFFSET FLAT:??_C@_05IOBGFCFN@UMii_@
	lea	rcx, QWORD PTR $T38[rbp-256]
	call	?append@?$basic_string@DU?$char_traits@D@std@@V?$allocator@D@2@@std@@QEAAAEAV12@QEBD_K@Z ; std::basic_string<char,std::char_traits<char>,std::allocator<char> >::append
	xorps	xmm0, xmm0

; 2284 :         _CONSTEXPR20 _Bxty() noexcept : _Buf() {} // user-provided, for fancy pointers

	movups	XMMWORD PTR $T37[rbp-256], xmm0
	xorps	xmm1, xmm1

; 2293 :     size_type _Mysize = 0; // current length of string

	movdqu	XMMWORD PTR $T37[rbp-240], xmm1

; 2999 :         _CSTD memcpy(_My_data_mem, _Right_data_mem, _Memcpy_val_size);

	movups	xmm0, XMMWORD PTR [rax]
	movups	XMMWORD PTR $T37[rbp-256], xmm0
	movups	xmm1, XMMWORD PTR [rax+16]
	movups	XMMWORD PTR $T37[rbp-240], xmm1
; File H:\Paul\switchemulator\Zelda TotK\MapEditorV4\OldVersion\MapEditor\UMii.cpp

; 38   : 	this->m_ModelElements.push_back(ModelElement{

	mov	QWORD PTR [rax+16], r12
	mov	QWORD PTR [rax+24], 15
	mov	BYTE PTR [rax], 0
; File C:\Program Files\Microsoft Visual Studio\2022\Community\VC\Tools\MSVC\14.37.32822\include\xstring

; 2235 :         const value_type* _Result = _Bx._Buf;

	lea	rdx, QWORD PTR ModelRace$[rbp-256]

; 2236 :         if (_Large_string_engaged()) {

	cmp	QWORD PTR ModelRace$[rbp-232], 16
	cmovae	rdx, QWORD PTR ModelRace$[rbp-256]

; 3241 :         return append(_Right._Mypair._Myval2._Myptr(), _Right._Mypair._Myval2._Mysize);

	mov	r8, QWORD PTR ModelRace$[rbp-240]
	lea	rcx, QWORD PTR $T37[rbp-256]
	call	?append@?$basic_string@DU?$char_traits@D@std@@V?$allocator@D@2@@std@@QEAAAEAV12@QEBD_K@Z ; std::basic_string<char,std::char_traits<char>,std::allocator<char> >::append
	mov	rdx, rax

; 2759 :         : _Mypair(_One_then_variadic_args_t{}, _STD move(_Right._Getal())) {

	lea	rcx, QWORD PTR $T21[rbp-256]
	call	??$?0V?$allocator@D@std@@$$V@?$_Compressed_pair@V?$allocator@D@std@@V?$_String_val@U?$_Simple_types@D@std@@@2@$00@std@@QEAA@U_One_then_variadic_args_t@1@$$QEAV?$allocator@D@1@@Z ; std::_Compressed_pair<std::allocator<char>,std::_String_val<std::_Simple_types<char> >,1>::_Compressed_pair<std::allocator<char>,std::_String_val<std::_Simple_types<char> >,1><std::allocator<char> >

; 2760 :         _Mypair._Myval2._Alloc_proxy(_GET_PROXY_ALLOCATOR(_Alty, _Getal()));
; 2761 :         _Take_contents(_Right);

	lea	rcx, QWORD PTR $T21[rbp-256]
	call	?_Take_contents@?$basic_string@DU?$char_traits@D@std@@V?$allocator@D@2@@std@@AEAAXAEAV12@@Z ; std::basic_string<char,std::char_traits<char>,std::allocator<char> >::_Take_contents
	npad	1
; File H:\Paul\switchemulator\Zelda TotK\MapEditorV4\OldVersion\MapEditor\UMii.cpp

; 38   : 	this->m_ModelElements.push_back(ModelElement{

	lea	r8, OFFSET FLAT:??_C@_05EDLAKJEB@_Body@
	lea	rdx, QWORD PTR $T21[rbp-256]
	lea	rcx, QWORD PTR $T52[rbp-256]
	call	??$?HDU?$char_traits@D@std@@V?$allocator@D@1@@std@@YA?AV?$basic_string@DU?$char_traits@D@std@@V?$allocator@D@2@@0@$$QEAV10@QEBD@Z ; std::operator+<char,std::char_traits<char>,std::allocator<char> >
	npad	1
	lea	r8, QWORD PTR [rdi+32]
	mov	rdx, rax
	lea	rcx, QWORD PTR $T51[rbp-256]
	call	??$?HDU?$char_traits@D@std@@V?$allocator@D@1@@std@@YA?AV?$basic_string@DU?$char_traits@D@std@@V?$allocator@D@2@@0@$$QEAV10@AEBV10@@Z ; std::operator+<char,std::char_traits<char>,std::allocator<char> >
	npad	1
	lea	r8, OFFSET FLAT:??_C@_01IDAFKMJL@_@
	mov	rdx, rax
	lea	rcx, QWORD PTR $T50[rbp-256]
	call	??$?HDU?$char_traits@D@std@@V?$allocator@D@1@@std@@YA?AV?$basic_string@DU?$char_traits@D@std@@V?$allocator@D@2@@0@$$QEAV10@QEBD@Z ; std::operator+<char,std::char_traits<char>,std::allocator<char> >
	npad	1
	mov	r8, rdi
	mov	rdx, rax
	lea	rcx, QWORD PTR $T49[rbp-256]
	call	??$?HDU?$char_traits@D@std@@V?$allocator@D@1@@std@@YA?AV?$basic_string@DU?$char_traits@D@std@@V?$allocator@D@2@@0@$$QEAV10@AEBV10@@Z ; std::operator+<char,std::char_traits<char>,std::allocator<char> >
	npad	1
	lea	r8, OFFSET FLAT:??_C@_01IDAFKMJL@_@
	mov	rdx, rax
	lea	rcx, QWORD PTR $T48[rbp-256]
	call	??$?HDU?$char_traits@D@std@@V?$allocator@D@1@@std@@YA?AV?$basic_string@DU?$char_traits@D@std@@V?$allocator@D@2@@0@$$QEAV10@QEBD@Z ; std::operator+<char,std::char_traits<char>,std::allocator<char> >
	npad	1
	lea	r8, QWORD PTR [rdi+64]
	mov	rdx, rax
	lea	rcx, QWORD PTR $T47[rbp-256]
	call	??$?HDU?$char_traits@D@std@@V?$allocator@D@1@@std@@YA?AV?$basic_string@DU?$char_traits@D@std@@V?$allocator@D@2@@0@$$QEAV10@AEBV10@@Z ; std::operator+<char,std::char_traits<char>,std::allocator<char> >
	mov	rcx, rax
	call	?GetModel@BfresLibrary@@YAPEAVBfresFile@@V?$basic_string@DU?$char_traits@D@std@@V?$allocator@D@2@@std@@@Z ; BfresLibrary::GetModel
	mov	QWORD PTR $T44[rbp-256], rax
	xorps	xmm0, xmm0
; File H:\Paul\switchemulator\Zelda TotK\MapEditorV4\OldVersion\MapEditor\Vector3F.cpp

; 8    : 	this->m_Data[0] = x;

	movups	XMMWORD PTR $T44[rbp-248], xmm0
	xorps	xmm1, xmm1

; 9    : 	this->m_Data[1] = y;

	movups	XMMWORD PTR $T44[rbp-232], xmm1

; 10   : 	this->m_Data[2] = z;

	mov	DWORD PTR $T44[rbp-216], 0
; File H:\Paul\switchemulator\Zelda TotK\MapEditorV4\OldVersion\MapEditor\UMii.cpp

; 38   : 	this->m_ModelElements.push_back(ModelElement{

	lea	rdx, QWORD PTR $T44[rbp-256]
	lea	rcx, QWORD PTR [rdi+128]
	call	?push_back@?$vector@UModelElement@UMii@@V?$allocator@UModelElement@UMii@@@std@@@std@@QEAAX$$QEAUModelElement@UMii@@@Z ; std::vector<UMii::ModelElement,std::allocator<UMii::ModelElement> >::push_back
	npad	1
; File C:\Program Files\Microsoft Visual Studio\2022\Community\VC\Tools\MSVC\14.37.32822\include\xstring

; 3119 :         _Tidy_deallocate();

	lea	rcx, QWORD PTR $T48[rbp-256]
	call	?_Tidy_deallocate@?$basic_string@DU?$char_traits@D@std@@V?$allocator@D@2@@std@@AEAAXXZ ; std::basic_string<char,std::char_traits<char>,std::allocator<char> >::_Tidy_deallocate
	npad	1
	lea	rcx, QWORD PTR $T49[rbp-256]
	call	?_Tidy_deallocate@?$basic_string@DU?$char_traits@D@std@@V?$allocator@D@2@@std@@AEAAXXZ ; std::basic_string<char,std::char_traits<char>,std::allocator<char> >::_Tidy_deallocate
	npad	1
	lea	rcx, QWORD PTR $T50[rbp-256]
	call	?_Tidy_deallocate@?$basic_string@DU?$char_traits@D@std@@V?$allocator@D@2@@std@@AEAAXXZ ; std::basic_string<char,std::char_traits<char>,std::allocator<char> >::_Tidy_deallocate
	npad	1
	lea	rcx, QWORD PTR $T51[rbp-256]
	call	?_Tidy_deallocate@?$basic_string@DU?$char_traits@D@std@@V?$allocator@D@2@@std@@AEAAXXZ ; std::basic_string<char,std::char_traits<char>,std::allocator<char> >::_Tidy_deallocate
	npad	1
	lea	rcx, QWORD PTR $T52[rbp-256]
	call	?_Tidy_deallocate@?$basic_string@DU?$char_traits@D@std@@V?$allocator@D@2@@std@@AEAAXXZ ; std::basic_string<char,std::char_traits<char>,std::allocator<char> >::_Tidy_deallocate
	npad	1
	lea	rcx, QWORD PTR $T21[rbp-256]
	call	?_Tidy_deallocate@?$basic_string@DU?$char_traits@D@std@@V?$allocator@D@2@@std@@AEAAXXZ ; std::basic_string<char,std::char_traits<char>,std::allocator<char> >::_Tidy_deallocate
	npad	1
	lea	rcx, QWORD PTR $T37[rbp-256]
	call	?_Tidy_deallocate@?$basic_string@DU?$char_traits@D@std@@V?$allocator@D@2@@std@@AEAAXXZ ; std::basic_string<char,std::char_traits<char>,std::allocator<char> >::_Tidy_deallocate
	npad	1
	lea	rcx, QWORD PTR $T38[rbp-256]
	call	?_Tidy_deallocate@?$basic_string@DU?$char_traits@D@std@@V?$allocator@D@2@@std@@AEAAXXZ ; std::basic_string<char,std::char_traits<char>,std::allocator<char> >::_Tidy_deallocate
	npad	1
	lea	rcx, QWORD PTR $T39[rbp-256]
	call	?_Tidy_deallocate@?$basic_string@DU?$char_traits@D@std@@V?$allocator@D@2@@std@@AEAAXXZ ; std::basic_string<char,std::char_traits<char>,std::allocator<char> >::_Tidy_deallocate
	npad	1
	lea	rcx, QWORD PTR $T40[rbp-256]
	call	?_Tidy_deallocate@?$basic_string@DU?$char_traits@D@std@@V?$allocator@D@2@@std@@AEAAXXZ ; std::basic_string<char,std::char_traits<char>,std::allocator<char> >::_Tidy_deallocate
	npad	1
	lea	rcx, QWORD PTR $T41[rbp-256]
	call	?_Tidy_deallocate@?$basic_string@DU?$char_traits@D@std@@V?$allocator@D@2@@std@@AEAAXXZ ; std::basic_string<char,std::char_traits<char>,std::allocator<char> >::_Tidy_deallocate
	npad	1
	lea	rcx, QWORD PTR $T42[rbp-256]
	call	?_Tidy_deallocate@?$basic_string@DU?$char_traits@D@std@@V?$allocator@D@2@@std@@AEAAXXZ ; std::basic_string<char,std::char_traits<char>,std::allocator<char> >::_Tidy_deallocate
	npad	1
	lea	rcx, QWORD PTR $T43[rbp-256]
	call	?_Tidy_deallocate@?$basic_string@DU?$char_traits@D@std@@V?$allocator@D@2@@std@@AEAAXXZ ; std::basic_string<char,std::char_traits<char>,std::allocator<char> >::_Tidy_deallocate
	npad	1
	lea	rcx, QWORD PTR $T35[rbp-256]
	call	?_Tidy_deallocate@?$basic_string@DU?$char_traits@D@std@@V?$allocator@D@2@@std@@AEAAXXZ ; std::basic_string<char,std::char_traits<char>,std::allocator<char> >::_Tidy_deallocate
	npad	1

; 4832 :         if (_My_data._Large_string_engaged()) {

	mov	rdx, QWORD PTR $T6[rbp-232]
	cmp	rdx, 16
	jb	SHORT $LN190@UMii

; 4833 :             _ASAN_STRING_REMOVE(*this);
; 4834 :             const pointer _Ptr = _My_data._Bx._Ptr;
; 4835 :             auto& _Al          = _Getal();
; 4836 :             _Destroy_in_place(_My_data._Bx._Ptr);
; 4837 :             _My_data._Activate_SSO_buffer();
; 4838 :             _Al.deallocate(_Ptr, _My_data._Myres + 1);

	inc	rdx
; File C:\Program Files\Microsoft Visual Studio\2022\Community\VC\Tools\MSVC\14.37.32822\include\xmemory

; 969  :         _Deallocate<_New_alignof<_Ty>>(_Ptr, sizeof(_Ty) * _Count);

	mov	rcx, QWORD PTR $T6[rsp]
	mov	rax, rcx

; 261  :         if (_Bytes >= _Big_allocation_threshold) { // boost the alignment of big allocations to help autovectorization

	cmp	rdx, 4096				; 00001000H
	jb	SHORT $LN202@UMii

; 157  :     _Bytes += _Non_user_size;

	add	rdx, 39					; 00000027H

; 158  : 
; 159  :     const uintptr_t* const _Ptr_user = static_cast<uintptr_t*>(_Ptr);
; 160  :     const uintptr_t _Ptr_container   = _Ptr_user[-1];

	mov	rcx, QWORD PTR [rcx-8]
	sub	rax, rcx

; 161  : 
; 162  :     // If the following asserts, it likely means that we are performing
; 163  :     // an aligned delete on memory coming from an unaligned allocation.
; 164  :     _STL_ASSERT(_Ptr_user[-2] == _Big_allocation_sentinel, "invalid argument");
; 165  : 
; 166  :     // Extra paranoia on aligned allocation/deallocation; ensure _Ptr_container is
; 167  :     // in range [_Min_back_shift, _Non_user_size]
; 168  : #ifdef _DEBUG
; 169  :     constexpr uintptr_t _Min_back_shift = 2 * sizeof(void*);
; 170  : #else // ^^^ _DEBUG / !_DEBUG vvv
; 171  :     constexpr uintptr_t _Min_back_shift = sizeof(void*);
; 172  : #endif // _DEBUG
; 173  :     const uintptr_t _Back_shift = reinterpret_cast<uintptr_t>(_Ptr) - _Ptr_container;
; 174  :     _STL_VERIFY(_Back_shift >= _Min_back_shift && _Back_shift <= _Non_user_size, "invalid argument");

	add	rax, -8
	cmp	rax, 31
	jbe	SHORT $LN202@UMii
	call	QWORD PTR __imp__invalid_parameter_noinfo_noreturn
	int	3
$LN202@UMii:

; 265  :         ::operator delete(_Ptr, _Bytes);

	call	??3@YAXPEAX_K@Z				; operator delete
$LN190@UMii:
; File H:\Paul\switchemulator\Zelda TotK\MapEditorV4\OldVersion\MapEditor\UMii.cpp

; 42   : 	std::cout << "Body: " << ("UMii_" + ModelRace + "_Body" + Type + "_" + SexAge + "_" + Number + "." + "UMii_" + ModelRace + "_Body" + Type + "_" + SexAge + "_" + Number) << std::endl;

	lea	rdx, OFFSET FLAT:??_C@_06IOFIIDCB@Body?3?5@
	mov	rcx, QWORD PTR __imp_?cout@std@@3V?$basic_ostream@DU?$char_traits@D@std@@@1@A
	call	??$?6U?$char_traits@D@std@@@std@@YAAEAV?$basic_ostream@DU?$char_traits@D@std@@@0@AEAV10@PEBD@Z ; std::operator<<<std::char_traits<char> >
	mov	QWORD PTR $T1[rsp], rax
; File C:\Program Files\Microsoft Visual Studio\2022\Community\VC\Tools\MSVC\14.37.32822\include\xstring

; 4916 :     if (_Right.max_size() - _Right_size < _Left_size) {

	mov	rcx, r15
	mov	r15, QWORD PTR ModelRace$[rbp-240]
	sub	rcx, r15
	cmp	rcx, 5
	jb	$LN2003@UMii

; 2235 :         const value_type* _Result = _Bx._Buf;

	lea	r12, QWORD PTR ModelRace$[rbp-256]

; 2236 :         if (_Large_string_engaged()) {

	mov	r13, QWORD PTR ModelRace$[rbp-256]
	mov	rax, QWORD PTR ModelRace$[rbp-232]
	mov	QWORD PTR ModelRace$3$[rbp-256], rax
	cmp	rax, 16
	cmovae	r12, r13
	xorps	xmm0, xmm0

; 2284 :         _CONSTEXPR20 _Bxty() noexcept : _Buf() {} // user-provided, for fancy pointers

	movups	XMMWORD PTR $T19[rbp-256], xmm0
	xorps	xmm1, xmm1

; 2293 :     size_type _Mysize = 0; // current length of string

	movdqu	XMMWORD PTR $T19[rbp-240], xmm1

; 2787 :         const auto _New_size    = static_cast<size_type>(_Left_size + _Right_size);

	lea	r14, QWORD PTR [r15+5]

; 2788 :         size_type _New_capacity = _BUF_SIZE - 1;

	mov	esi, 15

; 2789 :         auto& _My_data          = _Mypair._Myval2;
; 2790 :         _Elem* _Ptr             = _My_data._Bx._Buf;

	lea	rbx, QWORD PTR $T19[rbp-256]

; 2791 :         auto&& _Alproxy         = _GET_PROXY_ALLOCATOR(_Alty, _Getal());
; 2792 :         _Container_proxy_ptr<_Alty> _Proxy(_Alproxy, _My_data); // throws
; 2793 : 
; 2794 :         if (_New_capacity < _New_size) {

	cmp	r14, rsi
	jbe	$LN223@UMii

; 4714 :         const size_type _Masked = _Requested | _ALLOC_MASK;

	mov	rsi, r14
	or	rsi, 15
	mov	rax, 9223372036854775807		; 7fffffffffffffffH
	cmp	rsi, rax

; 4715 :         if (_Masked > _Max) { // the mask overflows, settle for max_size()

	jbe	SHORT $LN246@UMii

; 4716 :             return _Max;

	mov	rsi, rax
	jmp	SHORT $LN245@UMii
$LN246@UMii:

; 4717 :         }
; 4718 : 
; 4719 :         if (_Old > _Max - _Old / 2) { // similarly, geometric overflows
; 4720 :             return _Max;
; 4721 :         }
; 4722 : 
; 4723 :         return (_STD max)(_Masked, _Old + _Old / 2);

	mov	eax, 22
	cmp	rsi, rax
	cmovb	rsi, rax
$LN245@UMii:

; 2796 :             const pointer _Fancyptr = _Getal().allocate(_New_capacity + 1); // throws

	mov	rcx, rsi
	add	rcx, 1
	mov	rax, -1
	cmovb	rcx, rax
; File C:\Program Files\Microsoft Visual Studio\2022\Community\VC\Tools\MSVC\14.37.32822\include\xmemory

; 238  :         if (_Bytes >= _Big_allocation_threshold) { // boost the alignment of big allocations to help autovectorization

	cmp	rcx, 4096				; 00001000H
	jb	SHORT $LN255@UMii

; 139  :     const size_t _Block_size = _Non_user_size + _Bytes;

	lea	rax, QWORD PTR [rcx+39]

; 140  :     if (_Block_size <= _Bytes) {

	cmp	rax, rcx
	jbe	$LN2004@UMii

; 87   :         return ::operator new(_Bytes);

	mov	rcx, rax
	call	??2@YAPEAX_K@Z				; operator new

; 145  :     _STL_VERIFY(_Ptr_container != 0, "invalid argument"); // validate even in release since we're doing p[-1]

	test	rax, rax
	je	SHORT $LN264@UMii

; 146  :     void* const _Ptr = reinterpret_cast<void*>((_Ptr_container + _Non_user_size) & ~(_Big_allocation_alignment - 1));

	lea	rbx, QWORD PTR [rax+39]
	and	rbx, -32				; ffffffffffffffe0H

; 147  :     static_cast<uintptr_t*>(_Ptr)[-1] = _Ptr_container;

	mov	QWORD PTR [rbx-8], rax

; 239  :             return _Allocate_manually_vector_aligned<_Traits>(_Bytes);

	jmp	SHORT $LN253@UMii
$LN264@UMii:

; 145  :     _STL_VERIFY(_Ptr_container != 0, "invalid argument"); // validate even in release since we're doing p[-1]

	call	QWORD PTR __imp__invalid_parameter_noinfo_noreturn
	int	3
$LN255@UMii:

; 244  :     if (_Bytes != 0) {

	test	rcx, rcx
	je	SHORT $LN256@UMii

; 87   :         return ::operator new(_Bytes);

	call	??2@YAPEAX_K@Z				; operator new
	mov	rbx, rax

; 245  :         return _Traits::_Allocate(_Bytes);

	jmp	SHORT $LN253@UMii
$LN256@UMii:

; 246  :     }
; 247  : 
; 248  :     return nullptr;

	xor	ebx, ebx
$LN253@UMii:
; File C:\Program Files\Microsoft Visual Studio\2022\Community\VC\Tools\MSVC\14.37.32822\include\xstring

; 2798 :             _Construct_in_place(_My_data._Bx._Ptr, _Fancyptr);

	mov	QWORD PTR $T19[rbp-256], rbx
$LN223@UMii:

; 2799 : 
; 2800 :             _Start_element_lifetimes(_Ptr, _New_capacity + 1);
; 2801 :         }
; 2802 : 
; 2803 :         _My_data._Mysize = _New_size;

	mov	QWORD PTR $T19[rbp-240], r14

; 2804 :         _My_data._Myres  = _New_capacity;

	mov	QWORD PTR $T19[rbp-232], rsi

; 66   :         _CSTD memcpy(_First1, _First2, _Count * sizeof(_Elem));

	mov	eax, DWORD PTR ??_C@_05IOBGFCFN@UMii_@
	mov	DWORD PTR [rbx], eax
	movzx	eax, BYTE PTR ??_C@_05IOBGFCFN@UMii_@+4
	mov	BYTE PTR [rbx+4], al

; 2806 :         _Traits::copy(_Ptr + static_cast<ptrdiff_t>(_Left_size), _Right_ptr, _Right_size);

	lea	rcx, QWORD PTR [rbx+5]

; 66   :         _CSTD memcpy(_First1, _First2, _Count * sizeof(_Elem));

	mov	r8, r15
	mov	rdx, r12
	call	memcpy

; 2807 :         _Traits::assign(_Ptr[_New_size], _Elem());

	mov	BYTE PTR [rbx+r14], 0

; 3270 :         const size_type _Old_size = _Mypair._Myval2._Mysize;

	mov	rcx, QWORD PTR $T19[rbp-240]
	mov	rdx, QWORD PTR $T19[rbp-232]
	mov	rax, rdx
	sub	rax, rcx

; 3271 :         if (_Count <= _Mypair._Myval2._Myres - _Old_size) {

	cmp	rax, 5
	jb	SHORT $LN286@UMii

; 3272 :             _ASAN_STRING_MODIFY(*this, _Old_size, _Old_size + _Count);
; 3273 :             _Mypair._Myval2._Mysize = _Old_size + _Count;

	lea	rax, QWORD PTR [rcx+5]
	mov	QWORD PTR $T19[rbp-240], rax

; 2226 :         value_type* _Result = _Bx._Buf;

	lea	rbx, QWORD PTR $T19[rbp-256]

; 2227 :         if (_Large_string_engaged()) {

	cmp	rdx, 16
	cmovae	rbx, QWORD PTR $T19[rbp-256]

; 3275 :             _Traits::move(_Old_ptr + _Old_size, _Ptr, _Count);

	add	rbx, rcx

; 119  :         _CSTD memmove(_First1, _First2, _Count * sizeof(_Elem));

	mov	r8d, 5
	lea	rdx, OFFSET FLAT:??_C@_05EDLAKJEB@_Body@
	mov	rcx, rbx
	call	memmove

; 3276 :             _Traits::assign(_Old_ptr[_Old_size + _Count], _Elem());

	mov	BYTE PTR [rbx+5], 0

; 3277 :             return *this;

	lea	rax, QWORD PTR $T19[rbp-256]
	jmp	SHORT $LN285@UMii
$LN286@UMii:

; 3278 :         }
; 3279 : 
; 3280 :         return _Reallocate_grow_by(

	mov	QWORD PTR [rsp+32], 5
	lea	r9, OFFSET FLAT:??_C@_05EDLAKJEB@_Body@
	mov	edx, 5
	lea	rcx, QWORD PTR $T19[rbp-256]
	call	??$_Reallocate_grow_by@V<lambda_1>@?1??append@?$basic_string@DU?$char_traits@D@std@@V?$allocator@D@2@@std@@QEAAAEAV34@QEBD_K@Z@PEBD_K@?$basic_string@DU?$char_traits@D@std@@V?$allocator@D@2@@std@@AEAAAEAV01@_KV<lambda_1>@?1??append@01@QEAAAEAV01@QEBD0@Z@PEBD_K@Z ; std::basic_string<char,std::char_traits<char>,std::allocator<char> >::_Reallocate_grow_by<`std::basic_string<char,std::char_traits<char>,std::allocator<char> >::append'::`2'::<lambda_1>,char const *,unsigned __int64>
$LN285@UMii:
	xorps	xmm0, xmm0

; 2284 :         _CONSTEXPR20 _Bxty() noexcept : _Buf() {} // user-provided, for fancy pointers

	movups	XMMWORD PTR $T27[rbp-256], xmm0
	xorps	xmm1, xmm1

; 2293 :     size_type _Mysize = 0; // current length of string

	movdqu	XMMWORD PTR $T27[rbp-240], xmm1

; 2999 :         _CSTD memcpy(_My_data_mem, _Right_data_mem, _Memcpy_val_size);

	movups	xmm0, XMMWORD PTR [rax]
	movups	XMMWORD PTR $T27[rbp-256], xmm0
	movups	xmm1, XMMWORD PTR [rax+16]
	movups	XMMWORD PTR $T27[rbp-240], xmm1
; File H:\Paul\switchemulator\Zelda TotK\MapEditorV4\OldVersion\MapEditor\UMii.cpp

; 42   : 	std::cout << "Body: " << ("UMii_" + ModelRace + "_Body" + Type + "_" + SexAge + "_" + Number + "." + "UMii_" + ModelRace + "_Body" + Type + "_" + SexAge + "_" + Number) << std::endl;

	xor	esi, esi
	mov	QWORD PTR [rax+16], rsi
	mov	QWORD PTR [rax+24], 15
	mov	BYTE PTR [rax], sil
	lea	rdx, QWORD PTR [rdi+32]
; File C:\Program Files\Microsoft Visual Studio\2022\Community\VC\Tools\MSVC\14.37.32822\include\xstring

; 3241 :         return append(_Right._Mypair._Myval2._Myptr(), _Right._Mypair._Myval2._Mysize);

	mov	r8, QWORD PTR [rdx+16]

; 2236 :         if (_Large_string_engaged()) {

	cmp	QWORD PTR [rdx+24], 16
	jb	SHORT $LN345@UMii

; 2237 :             _Result = _Unfancy(_Bx._Ptr);

	mov	rdx, QWORD PTR [rdx]
$LN345@UMii:

; 3241 :         return append(_Right._Mypair._Myval2._Myptr(), _Right._Mypair._Myval2._Mysize);

	lea	rcx, QWORD PTR $T27[rbp-256]
	call	?append@?$basic_string@DU?$char_traits@D@std@@V?$allocator@D@2@@std@@QEAAAEAV12@QEBD_K@Z ; std::basic_string<char,std::char_traits<char>,std::allocator<char> >::append
	xorps	xmm0, xmm0

; 2284 :         _CONSTEXPR20 _Bxty() noexcept : _Buf() {} // user-provided, for fancy pointers

	movups	XMMWORD PTR $T18[rbp-256], xmm0
	xorps	xmm1, xmm1

; 2293 :     size_type _Mysize = 0; // current length of string

	movdqu	XMMWORD PTR $T18[rbp-240], xmm1

; 2999 :         _CSTD memcpy(_My_data_mem, _Right_data_mem, _Memcpy_val_size);

	movups	xmm0, XMMWORD PTR [rax]
	movups	XMMWORD PTR $T18[rbp-256], xmm0
	movups	xmm1, XMMWORD PTR [rax+16]
	movups	XMMWORD PTR $T18[rbp-240], xmm1
; File H:\Paul\switchemulator\Zelda TotK\MapEditorV4\OldVersion\MapEditor\UMii.cpp

; 42   : 	std::cout << "Body: " << ("UMii_" + ModelRace + "_Body" + Type + "_" + SexAge + "_" + Number + "." + "UMii_" + ModelRace + "_Body" + Type + "_" + SexAge + "_" + Number) << std::endl;

	mov	QWORD PTR [rax+16], rsi
	mov	QWORD PTR [rax+24], 15
	mov	BYTE PTR [rax], 0
; File C:\Program Files\Microsoft Visual Studio\2022\Community\VC\Tools\MSVC\14.37.32822\include\xstring

; 3270 :         const size_type _Old_size = _Mypair._Myval2._Mysize;

	mov	rcx, QWORD PTR $T18[rbp-240]
	mov	rdx, QWORD PTR $T18[rbp-232]
	mov	rax, rdx
	sub	rax, rcx

; 3271 :         if (_Count <= _Mypair._Myval2._Myres - _Old_size) {

	cmp	rax, 1
	jb	SHORT $LN388@UMii

; 3272 :             _ASAN_STRING_MODIFY(*this, _Old_size, _Old_size + _Count);
; 3273 :             _Mypair._Myval2._Mysize = _Old_size + _Count;

	lea	rax, QWORD PTR [rcx+1]
	mov	QWORD PTR $T18[rbp-240], rax

; 2226 :         value_type* _Result = _Bx._Buf;

	lea	rax, QWORD PTR $T18[rbp-256]

; 2227 :         if (_Large_string_engaged()) {

	cmp	rdx, 16
	cmovae	rax, QWORD PTR $T18[rbp-256]

; 119  :         _CSTD memmove(_First1, _First2, _Count * sizeof(_Elem));

	mov	WORD PTR [rax+rcx], 95			; 0000005fH

; 3277 :             return *this;

	lea	rax, QWORD PTR $T18[rbp-256]
	jmp	SHORT $LN387@UMii
$LN388@UMii:

; 3278 :         }
; 3279 : 
; 3280 :         return _Reallocate_grow_by(

	mov	QWORD PTR [rsp+32], 1
	lea	r9, OFFSET FLAT:??_C@_01IDAFKMJL@_@
	mov	edx, 1
	lea	rcx, QWORD PTR $T18[rbp-256]
	call	??$_Reallocate_grow_by@V<lambda_1>@?1??append@?$basic_string@DU?$char_traits@D@std@@V?$allocator@D@2@@std@@QEAAAEAV34@QEBD_K@Z@PEBD_K@?$basic_string@DU?$char_traits@D@std@@V?$allocator@D@2@@std@@AEAAAEAV01@_KV<lambda_1>@?1??append@01@QEAAAEAV01@QEBD0@Z@PEBD_K@Z ; std::basic_string<char,std::char_traits<char>,std::allocator<char> >::_Reallocate_grow_by<`std::basic_string<char,std::char_traits<char>,std::allocator<char> >::append'::`2'::<lambda_1>,char const *,unsigned __int64>
$LN387@UMii:
	xorps	xmm0, xmm0

; 2284 :         _CONSTEXPR20 _Bxty() noexcept : _Buf() {} // user-provided, for fancy pointers

	movups	XMMWORD PTR $T26[rbp-256], xmm0
	xorps	xmm1, xmm1

; 2293 :     size_type _Mysize = 0; // current length of string

	movdqu	XMMWORD PTR $T26[rbp-240], xmm1

; 2999 :         _CSTD memcpy(_My_data_mem, _Right_data_mem, _Memcpy_val_size);

	movups	xmm0, XMMWORD PTR [rax]
	movups	XMMWORD PTR $T26[rbp-256], xmm0
	movups	xmm1, XMMWORD PTR [rax+16]
	movups	XMMWORD PTR $T26[rbp-240], xmm1
; File H:\Paul\switchemulator\Zelda TotK\MapEditorV4\OldVersion\MapEditor\UMii.cpp

; 42   : 	std::cout << "Body: " << ("UMii_" + ModelRace + "_Body" + Type + "_" + SexAge + "_" + Number + "." + "UMii_" + ModelRace + "_Body" + Type + "_" + SexAge + "_" + Number) << std::endl;

	mov	QWORD PTR [rax+16], rsi
	mov	QWORD PTR [rax+24], 15
	mov	BYTE PTR [rax], 0
; File C:\Program Files\Microsoft Visual Studio\2022\Community\VC\Tools\MSVC\14.37.32822\include\xstring

; 2235 :         const value_type* _Result = _Bx._Buf;

	mov	rdx, rdi

; 2236 :         if (_Large_string_engaged()) {

	cmp	QWORD PTR [rdi+24], 16
	jb	SHORT $LN491@UMii

; 2237 :             _Result = _Unfancy(_Bx._Ptr);

	mov	rdx, QWORD PTR [rdi]
$LN491@UMii:

; 3241 :         return append(_Right._Mypair._Myval2._Myptr(), _Right._Mypair._Myval2._Mysize);

	mov	r8, QWORD PTR [rdi+16]
	lea	rcx, QWORD PTR $T26[rbp-256]
	call	?append@?$basic_string@DU?$char_traits@D@std@@V?$allocator@D@2@@std@@QEAAAEAV12@QEBD_K@Z ; std::basic_string<char,std::char_traits<char>,std::allocator<char> >::append
	xorps	xmm0, xmm0

; 2284 :         _CONSTEXPR20 _Bxty() noexcept : _Buf() {} // user-provided, for fancy pointers

	movups	XMMWORD PTR $T17[rbp-256], xmm0
	xorps	xmm1, xmm1

; 2293 :     size_type _Mysize = 0; // current length of string

	movdqu	XMMWORD PTR $T17[rbp-240], xmm1

; 2999 :         _CSTD memcpy(_My_data_mem, _Right_data_mem, _Memcpy_val_size);

	movups	xmm0, XMMWORD PTR [rax]
	movups	XMMWORD PTR $T17[rbp-256], xmm0
	movups	xmm1, XMMWORD PTR [rax+16]
	movups	XMMWORD PTR $T17[rbp-240], xmm1
; File H:\Paul\switchemulator\Zelda TotK\MapEditorV4\OldVersion\MapEditor\UMii.cpp

; 42   : 	std::cout << "Body: " << ("UMii_" + ModelRace + "_Body" + Type + "_" + SexAge + "_" + Number + "." + "UMii_" + ModelRace + "_Body" + Type + "_" + SexAge + "_" + Number) << std::endl;

	mov	QWORD PTR [rax+16], rsi
	mov	QWORD PTR [rax+24], 15
	mov	BYTE PTR [rax], 0
; File C:\Program Files\Microsoft Visual Studio\2022\Community\VC\Tools\MSVC\14.37.32822\include\xstring

; 3270 :         const size_type _Old_size = _Mypair._Myval2._Mysize;

	mov	rcx, QWORD PTR $T17[rbp-240]
	mov	rdx, QWORD PTR $T17[rbp-232]
	mov	rax, rdx
	sub	rax, rcx

; 3271 :         if (_Count <= _Mypair._Myval2._Myres - _Old_size) {

	cmp	rax, 1
	jb	SHORT $LN534@UMii

; 3272 :             _ASAN_STRING_MODIFY(*this, _Old_size, _Old_size + _Count);
; 3273 :             _Mypair._Myval2._Mysize = _Old_size + _Count;

	lea	rax, QWORD PTR [rcx+1]
	mov	QWORD PTR $T17[rbp-240], rax

; 2226 :         value_type* _Result = _Bx._Buf;

	lea	rax, QWORD PTR $T17[rbp-256]

; 2227 :         if (_Large_string_engaged()) {

	cmp	rdx, 16
	cmovae	rax, QWORD PTR $T17[rbp-256]

; 119  :         _CSTD memmove(_First1, _First2, _Count * sizeof(_Elem));

	mov	WORD PTR [rax+rcx], 95			; 0000005fH

; 3277 :             return *this;

	lea	rax, QWORD PTR $T17[rbp-256]
	jmp	SHORT $LN533@UMii
$LN534@UMii:

; 3278 :         }
; 3279 : 
; 3280 :         return _Reallocate_grow_by(

	mov	QWORD PTR [rsp+32], 1
	lea	r9, OFFSET FLAT:??_C@_01IDAFKMJL@_@
	mov	edx, 1
	lea	rcx, QWORD PTR $T17[rbp-256]
	call	??$_Reallocate_grow_by@V<lambda_1>@?1??append@?$basic_string@DU?$char_traits@D@std@@V?$allocator@D@2@@std@@QEAAAEAV34@QEBD_K@Z@PEBD_K@?$basic_string@DU?$char_traits@D@std@@V?$allocator@D@2@@std@@AEAAAEAV01@_KV<lambda_1>@?1??append@01@QEAAAEAV01@QEBD0@Z@PEBD_K@Z ; std::basic_string<char,std::char_traits<char>,std::allocator<char> >::_Reallocate_grow_by<`std::basic_string<char,std::char_traits<char>,std::allocator<char> >::append'::`2'::<lambda_1>,char const *,unsigned __int64>
$LN533@UMii:
	xorps	xmm0, xmm0

; 2284 :         _CONSTEXPR20 _Bxty() noexcept : _Buf() {} // user-provided, for fancy pointers

	movups	XMMWORD PTR $T34[rbp-256], xmm0
	xorps	xmm1, xmm1

; 2293 :     size_type _Mysize = 0; // current length of string

	movdqu	XMMWORD PTR $T34[rbp-240], xmm1

; 2999 :         _CSTD memcpy(_My_data_mem, _Right_data_mem, _Memcpy_val_size);

	movups	xmm0, XMMWORD PTR [rax]
	movups	XMMWORD PTR $T34[rbp-256], xmm0
	movups	xmm1, XMMWORD PTR [rax+16]
	movups	XMMWORD PTR $T34[rbp-240], xmm1
; File H:\Paul\switchemulator\Zelda TotK\MapEditorV4\OldVersion\MapEditor\UMii.cpp

; 42   : 	std::cout << "Body: " << ("UMii_" + ModelRace + "_Body" + Type + "_" + SexAge + "_" + Number + "." + "UMii_" + ModelRace + "_Body" + Type + "_" + SexAge + "_" + Number) << std::endl;

	mov	QWORD PTR [rax+16], rsi
	mov	QWORD PTR [rax+24], 15
	mov	BYTE PTR [rax], 0
	lea	rdx, QWORD PTR [rdi+64]
; File C:\Program Files\Microsoft Visual Studio\2022\Community\VC\Tools\MSVC\14.37.32822\include\xstring

; 3241 :         return append(_Right._Mypair._Myval2._Myptr(), _Right._Mypair._Myval2._Mysize);

	mov	r8, QWORD PTR [rdx+16]

; 2236 :         if (_Large_string_engaged()) {

	cmp	QWORD PTR [rdx+24], 16
	jb	SHORT $LN593@UMii

; 2237 :             _Result = _Unfancy(_Bx._Ptr);

	mov	rdx, QWORD PTR [rdx]
$LN593@UMii:

; 3241 :         return append(_Right._Mypair._Myval2._Myptr(), _Right._Mypair._Myval2._Mysize);

	lea	rcx, QWORD PTR $T34[rbp-256]
	call	?append@?$basic_string@DU?$char_traits@D@std@@V?$allocator@D@2@@std@@QEAAAEAV12@QEBD_K@Z ; std::basic_string<char,std::char_traits<char>,std::allocator<char> >::append
	xorps	xmm0, xmm0

; 2284 :         _CONSTEXPR20 _Bxty() noexcept : _Buf() {} // user-provided, for fancy pointers

	movups	XMMWORD PTR $T16[rbp-256], xmm0
	xorps	xmm1, xmm1

; 2293 :     size_type _Mysize = 0; // current length of string

	movdqu	XMMWORD PTR $T16[rbp-240], xmm1

; 2999 :         _CSTD memcpy(_My_data_mem, _Right_data_mem, _Memcpy_val_size);

	movups	xmm0, XMMWORD PTR [rax]
	movups	XMMWORD PTR $T16[rbp-256], xmm0
	movups	xmm1, XMMWORD PTR [rax+16]
	movups	XMMWORD PTR $T16[rbp-240], xmm1
; File H:\Paul\switchemulator\Zelda TotK\MapEditorV4\OldVersion\MapEditor\UMii.cpp

; 42   : 	std::cout << "Body: " << ("UMii_" + ModelRace + "_Body" + Type + "_" + SexAge + "_" + Number + "." + "UMii_" + ModelRace + "_Body" + Type + "_" + SexAge + "_" + Number) << std::endl;

	mov	QWORD PTR [rax+16], rsi
	mov	QWORD PTR [rax+24], 15
	mov	BYTE PTR [rax], 0
; File C:\Program Files\Microsoft Visual Studio\2022\Community\VC\Tools\MSVC\14.37.32822\include\xstring

; 3270 :         const size_type _Old_size = _Mypair._Myval2._Mysize;

	mov	rcx, QWORD PTR $T16[rbp-240]
	mov	rdx, QWORD PTR $T16[rbp-232]
	mov	rax, rdx
	sub	rax, rcx

; 3271 :         if (_Count <= _Mypair._Myval2._Myres - _Old_size) {

	cmp	rax, 1
	jb	SHORT $LN636@UMii

; 3272 :             _ASAN_STRING_MODIFY(*this, _Old_size, _Old_size + _Count);
; 3273 :             _Mypair._Myval2._Mysize = _Old_size + _Count;

	lea	rax, QWORD PTR [rcx+1]
	mov	QWORD PTR $T16[rbp-240], rax

; 2226 :         value_type* _Result = _Bx._Buf;

	lea	rax, QWORD PTR $T16[rbp-256]

; 2227 :         if (_Large_string_engaged()) {

	cmp	rdx, 16
	cmovae	rax, QWORD PTR $T16[rbp-256]

; 119  :         _CSTD memmove(_First1, _First2, _Count * sizeof(_Elem));

	mov	WORD PTR [rax+rcx], 46			; 0000002eH

; 3277 :             return *this;

	lea	rax, QWORD PTR $T16[rbp-256]
	jmp	SHORT $LN635@UMii
$LN636@UMii:

; 3278 :         }
; 3279 : 
; 3280 :         return _Reallocate_grow_by(

	mov	QWORD PTR [rsp+32], 1
	lea	r9, OFFSET FLAT:??_C@_01LFCBOECM@?4@
	mov	edx, 1
	lea	rcx, QWORD PTR $T16[rbp-256]
	call	??$_Reallocate_grow_by@V<lambda_1>@?1??append@?$basic_string@DU?$char_traits@D@std@@V?$allocator@D@2@@std@@QEAAAEAV34@QEBD_K@Z@PEBD_K@?$basic_string@DU?$char_traits@D@std@@V?$allocator@D@2@@std@@AEAAAEAV01@_KV<lambda_1>@?1??append@01@QEAAAEAV01@QEBD0@Z@PEBD_K@Z ; std::basic_string<char,std::char_traits<char>,std::allocator<char> >::_Reallocate_grow_by<`std::basic_string<char,std::char_traits<char>,std::allocator<char> >::append'::`2'::<lambda_1>,char const *,unsigned __int64>
$LN635@UMii:
	xorps	xmm0, xmm0

; 2284 :         _CONSTEXPR20 _Bxty() noexcept : _Buf() {} // user-provided, for fancy pointers

	movups	XMMWORD PTR $T15[rbp-256], xmm0
	xorps	xmm1, xmm1

; 2293 :     size_type _Mysize = 0; // current length of string

	movdqu	XMMWORD PTR $T15[rbp-240], xmm1

; 2999 :         _CSTD memcpy(_My_data_mem, _Right_data_mem, _Memcpy_val_size);

	movups	xmm0, XMMWORD PTR [rax]
	movups	XMMWORD PTR $T15[rbp-256], xmm0
	movups	xmm1, XMMWORD PTR [rax+16]
	movups	XMMWORD PTR $T15[rbp-240], xmm1
; File H:\Paul\switchemulator\Zelda TotK\MapEditorV4\OldVersion\MapEditor\UMii.cpp

; 42   : 	std::cout << "Body: " << ("UMii_" + ModelRace + "_Body" + Type + "_" + SexAge + "_" + Number + "." + "UMii_" + ModelRace + "_Body" + Type + "_" + SexAge + "_" + Number) << std::endl;

	mov	QWORD PTR [rax+16], rsi
	mov	QWORD PTR [rax+24], 15
	mov	BYTE PTR [rax], 0
; File C:\Program Files\Microsoft Visual Studio\2022\Community\VC\Tools\MSVC\14.37.32822\include\xstring

; 3270 :         const size_type _Old_size = _Mypair._Myval2._Mysize;

	mov	rcx, QWORD PTR $T15[rbp-240]
	mov	r8, QWORD PTR $T15[rbp-232]
	mov	rax, r8
	sub	rax, rcx

; 3271 :         if (_Count <= _Mypair._Myval2._Myres - _Old_size) {

	cmp	rax, 5
	jb	SHORT $LN697@UMii

; 3272 :             _ASAN_STRING_MODIFY(*this, _Old_size, _Old_size + _Count);
; 3273 :             _Mypair._Myval2._Mysize = _Old_size + _Count;

	lea	rax, QWORD PTR [rcx+5]
	mov	QWORD PTR $T15[rbp-240], rax

; 2226 :         value_type* _Result = _Bx._Buf;

	lea	rbx, QWORD PTR $T15[rbp-256]

; 2227 :         if (_Large_string_engaged()) {

	cmp	r8, 16
	cmovae	rbx, QWORD PTR $T15[rbp-256]

; 3275 :             _Traits::move(_Old_ptr + _Old_size, _Ptr, _Count);

	add	rbx, rcx

; 119  :         _CSTD memmove(_First1, _First2, _Count * sizeof(_Elem));

	mov	r8d, 5
	lea	rdx, OFFSET FLAT:??_C@_05IOBGFCFN@UMii_@
	mov	rcx, rbx
	call	memmove

; 3276 :             _Traits::assign(_Old_ptr[_Old_size + _Count], _Elem());

	mov	BYTE PTR [rbx+5], 0

; 3277 :             return *this;

	lea	rax, QWORD PTR $T15[rbp-256]
	jmp	SHORT $LN696@UMii
$LN697@UMii:

; 3278 :         }
; 3279 : 
; 3280 :         return _Reallocate_grow_by(

	mov	QWORD PTR [rsp+32], 5
	lea	r9, OFFSET FLAT:??_C@_05IOBGFCFN@UMii_@
	mov	edx, 5
	lea	rcx, QWORD PTR $T15[rbp-256]
	call	??$_Reallocate_grow_by@V<lambda_1>@?1??append@?$basic_string@DU?$char_traits@D@std@@V?$allocator@D@2@@std@@QEAAAEAV34@QEBD_K@Z@PEBD_K@?$basic_string@DU?$char_traits@D@std@@V?$allocator@D@2@@std@@AEAAAEAV01@_KV<lambda_1>@?1??append@01@QEAAAEAV01@QEBD0@Z@PEBD_K@Z ; std::basic_string<char,std::char_traits<char>,std::allocator<char> >::_Reallocate_grow_by<`std::basic_string<char,std::char_traits<char>,std::allocator<char> >::append'::`2'::<lambda_1>,char const *,unsigned __int64>
$LN696@UMii:
	xorps	xmm0, xmm0

; 2284 :         _CONSTEXPR20 _Bxty() noexcept : _Buf() {} // user-provided, for fancy pointers

	movups	XMMWORD PTR $T33[rbp-256], xmm0
	xorps	xmm1, xmm1

; 2293 :     size_type _Mysize = 0; // current length of string

	movdqu	XMMWORD PTR $T33[rbp-240], xmm1

; 2999 :         _CSTD memcpy(_My_data_mem, _Right_data_mem, _Memcpy_val_size);

	movups	xmm0, XMMWORD PTR [rax]
	movups	XMMWORD PTR $T33[rbp-256], xmm0
	movups	xmm1, XMMWORD PTR [rax+16]
	movups	XMMWORD PTR $T33[rbp-240], xmm1
; File H:\Paul\switchemulator\Zelda TotK\MapEditorV4\OldVersion\MapEditor\UMii.cpp

; 42   : 	std::cout << "Body: " << ("UMii_" + ModelRace + "_Body" + Type + "_" + SexAge + "_" + Number + "." + "UMii_" + ModelRace + "_Body" + Type + "_" + SexAge + "_" + Number) << std::endl;

	mov	QWORD PTR [rax+16], rsi
	mov	QWORD PTR [rax+24], 15
	mov	BYTE PTR [rax], 0
; File C:\Program Files\Microsoft Visual Studio\2022\Community\VC\Tools\MSVC\14.37.32822\include\xstring

; 2235 :         const value_type* _Result = _Bx._Buf;

	lea	rdx, QWORD PTR ModelRace$[rbp-256]

; 2236 :         if (_Large_string_engaged()) {

	cmp	QWORD PTR ModelRace$3$[rbp-256], 16
	cmovae	rdx, r13

; 3241 :         return append(_Right._Mypair._Myval2._Myptr(), _Right._Mypair._Myval2._Mysize);

	mov	r8, r15
	lea	rcx, QWORD PTR $T33[rbp-256]
	call	?append@?$basic_string@DU?$char_traits@D@std@@V?$allocator@D@2@@std@@QEAAAEAV12@QEBD_K@Z ; std::basic_string<char,std::char_traits<char>,std::allocator<char> >::append
	xorps	xmm0, xmm0

; 2284 :         _CONSTEXPR20 _Bxty() noexcept : _Buf() {} // user-provided, for fancy pointers

	movups	XMMWORD PTR $T13[rbp-256], xmm0
	xorps	xmm1, xmm1

; 2293 :     size_type _Mysize = 0; // current length of string

	movdqu	XMMWORD PTR $T13[rbp-240], xmm1

; 2999 :         _CSTD memcpy(_My_data_mem, _Right_data_mem, _Memcpy_val_size);

	movups	xmm0, XMMWORD PTR [rax]
	movups	XMMWORD PTR $T13[rbp-256], xmm0
	movups	xmm1, XMMWORD PTR [rax+16]
	movups	XMMWORD PTR $T13[rbp-240], xmm1
; File H:\Paul\switchemulator\Zelda TotK\MapEditorV4\OldVersion\MapEditor\UMii.cpp

; 42   : 	std::cout << "Body: " << ("UMii_" + ModelRace + "_Body" + Type + "_" + SexAge + "_" + Number + "." + "UMii_" + ModelRace + "_Body" + Type + "_" + SexAge + "_" + Number) << std::endl;

	mov	QWORD PTR [rax+16], rsi
	mov	QWORD PTR [rax+24], 15
	mov	BYTE PTR [rax], 0
; File C:\Program Files\Microsoft Visual Studio\2022\Community\VC\Tools\MSVC\14.37.32822\include\xstring

; 3270 :         const size_type _Old_size = _Mypair._Myval2._Mysize;

	mov	rcx, QWORD PTR $T13[rbp-240]
	mov	r9, QWORD PTR $T13[rbp-232]
	mov	rax, r9
	sub	rax, rcx

; 3271 :         if (_Count <= _Mypair._Myval2._Myres - _Old_size) {

	cmp	rax, 5
	jb	SHORT $LN843@UMii

; 3272 :             _ASAN_STRING_MODIFY(*this, _Old_size, _Old_size + _Count);
; 3273 :             _Mypair._Myval2._Mysize = _Old_size + _Count;

	lea	rax, QWORD PTR [rcx+5]
	mov	QWORD PTR $T13[rbp-240], rax

; 2226 :         value_type* _Result = _Bx._Buf;

	lea	rbx, QWORD PTR $T13[rbp-256]

; 2227 :         if (_Large_string_engaged()) {

	cmp	r9, 16
	cmovae	rbx, QWORD PTR $T13[rbp-256]

; 3275 :             _Traits::move(_Old_ptr + _Old_size, _Ptr, _Count);

	add	rbx, rcx

; 119  :         _CSTD memmove(_First1, _First2, _Count * sizeof(_Elem));

	mov	r8d, 5
	lea	rdx, OFFSET FLAT:??_C@_05EDLAKJEB@_Body@
	mov	rcx, rbx
	call	memmove

; 3276 :             _Traits::assign(_Old_ptr[_Old_size + _Count], _Elem());

	mov	BYTE PTR [rbx+5], 0

; 3277 :             return *this;

	lea	rax, QWORD PTR $T13[rbp-256]
	jmp	SHORT $LN842@UMii
$LN843@UMii:

; 3278 :         }
; 3279 : 
; 3280 :         return _Reallocate_grow_by(

	mov	QWORD PTR [rsp+32], 5
	lea	r9, OFFSET FLAT:??_C@_05EDLAKJEB@_Body@
	mov	edx, 5
	lea	rcx, QWORD PTR $T13[rbp-256]
	call	??$_Reallocate_grow_by@V<lambda_1>@?1??append@?$basic_string@DU?$char_traits@D@std@@V?$allocator@D@2@@std@@QEAAAEAV34@QEBD_K@Z@PEBD_K@?$basic_string@DU?$char_traits@D@std@@V?$allocator@D@2@@std@@AEAAAEAV01@_KV<lambda_1>@?1??append@01@QEAAAEAV01@QEBD0@Z@PEBD_K@Z ; std::basic_string<char,std::char_traits<char>,std::allocator<char> >::_Reallocate_grow_by<`std::basic_string<char,std::char_traits<char>,std::allocator<char> >::append'::`2'::<lambda_1>,char const *,unsigned __int64>
$LN842@UMii:
	xorps	xmm0, xmm0

; 2284 :         _CONSTEXPR20 _Bxty() noexcept : _Buf() {} // user-provided, for fancy pointers

	movups	XMMWORD PTR $T32[rbp-256], xmm0
	xorps	xmm1, xmm1

; 2293 :     size_type _Mysize = 0; // current length of string

	movdqu	XMMWORD PTR $T32[rbp-240], xmm1

; 2999 :         _CSTD memcpy(_My_data_mem, _Right_data_mem, _Memcpy_val_size);

	movups	xmm0, XMMWORD PTR [rax]
	movups	XMMWORD PTR $T32[rbp-256], xmm0
	movups	xmm1, XMMWORD PTR [rax+16]
	movups	XMMWORD PTR $T32[rbp-240], xmm1
; File H:\Paul\switchemulator\Zelda TotK\MapEditorV4\OldVersion\MapEditor\UMii.cpp

; 42   : 	std::cout << "Body: " << ("UMii_" + ModelRace + "_Body" + Type + "_" + SexAge + "_" + Number + "." + "UMii_" + ModelRace + "_Body" + Type + "_" + SexAge + "_" + Number) << std::endl;

	mov	QWORD PTR [rax+16], rsi
	mov	QWORD PTR [rax+24], 15
	mov	BYTE PTR [rax], 0
	lea	rdx, QWORD PTR [rdi+32]
; File C:\Program Files\Microsoft Visual Studio\2022\Community\VC\Tools\MSVC\14.37.32822\include\xstring

; 3241 :         return append(_Right._Mypair._Myval2._Myptr(), _Right._Mypair._Myval2._Mysize);

	mov	r8, QWORD PTR [rdx+16]

; 2236 :         if (_Large_string_engaged()) {

	cmp	QWORD PTR [rdx+24], 16
	jb	SHORT $LN902@UMii

; 2237 :             _Result = _Unfancy(_Bx._Ptr);

	mov	rdx, QWORD PTR [rdx]
$LN902@UMii:

; 3241 :         return append(_Right._Mypair._Myval2._Myptr(), _Right._Mypair._Myval2._Mysize);

	lea	rcx, QWORD PTR $T32[rbp-256]
	call	?append@?$basic_string@DU?$char_traits@D@std@@V?$allocator@D@2@@std@@QEAAAEAV12@QEBD_K@Z ; std::basic_string<char,std::char_traits<char>,std::allocator<char> >::append
	xorps	xmm0, xmm0

; 2284 :         _CONSTEXPR20 _Bxty() noexcept : _Buf() {} // user-provided, for fancy pointers

	movups	XMMWORD PTR $T31[rbp-256], xmm0
	xorps	xmm1, xmm1

; 2293 :     size_type _Mysize = 0; // current length of string

	movdqu	XMMWORD PTR $T31[rbp-240], xmm1

; 2999 :         _CSTD memcpy(_My_data_mem, _Right_data_mem, _Memcpy_val_size);

	movups	xmm0, XMMWORD PTR [rax]
	movups	XMMWORD PTR $T31[rbp-256], xmm0
	movups	xmm1, XMMWORD PTR [rax+16]
	movups	XMMWORD PTR $T31[rbp-240], xmm1
; File H:\Paul\switchemulator\Zelda TotK\MapEditorV4\OldVersion\MapEditor\UMii.cpp

; 42   : 	std::cout << "Body: " << ("UMii_" + ModelRace + "_Body" + Type + "_" + SexAge + "_" + Number + "." + "UMii_" + ModelRace + "_Body" + Type + "_" + SexAge + "_" + Number) << std::endl;

	mov	QWORD PTR [rax+16], rsi
	mov	QWORD PTR [rax+24], 15
	mov	BYTE PTR [rax], 0
; File C:\Program Files\Microsoft Visual Studio\2022\Community\VC\Tools\MSVC\14.37.32822\include\xstring

; 3292 :         return append(_Ptr, _Convert_size<size_type>(_Traits::length(_Ptr)));

	mov	r8d, 1
	lea	rdx, OFFSET FLAT:??_C@_01IDAFKMJL@_@
	lea	rcx, QWORD PTR $T31[rbp-256]
	call	?append@?$basic_string@DU?$char_traits@D@std@@V?$allocator@D@2@@std@@QEAAAEAV12@QEBD_K@Z ; std::basic_string<char,std::char_traits<char>,std::allocator<char> >::append
	xorps	xmm0, xmm0

; 2284 :         _CONSTEXPR20 _Bxty() noexcept : _Buf() {} // user-provided, for fancy pointers

	movups	XMMWORD PTR $T30[rbp-256], xmm0
	xorps	xmm1, xmm1

; 2293 :     size_type _Mysize = 0; // current length of string

	movdqu	XMMWORD PTR $T30[rbp-240], xmm1

; 2999 :         _CSTD memcpy(_My_data_mem, _Right_data_mem, _Memcpy_val_size);

	movups	xmm0, XMMWORD PTR [rax]
	movups	XMMWORD PTR $T30[rbp-256], xmm0
	movups	xmm1, XMMWORD PTR [rax+16]
	movups	XMMWORD PTR $T30[rbp-240], xmm1
; File H:\Paul\switchemulator\Zelda TotK\MapEditorV4\OldVersion\MapEditor\UMii.cpp

; 42   : 	std::cout << "Body: " << ("UMii_" + ModelRace + "_Body" + Type + "_" + SexAge + "_" + Number + "." + "UMii_" + ModelRace + "_Body" + Type + "_" + SexAge + "_" + Number) << std::endl;

	mov	QWORD PTR [rax+16], rsi
	mov	QWORD PTR [rax+24], 15
	mov	BYTE PTR [rax], 0
; File C:\Program Files\Microsoft Visual Studio\2022\Community\VC\Tools\MSVC\14.37.32822\include\xstring

; 2235 :         const value_type* _Result = _Bx._Buf;

	mov	rdx, rdi

; 2236 :         if (_Large_string_engaged()) {

	cmp	QWORD PTR [rdi+24], 16
	jb	SHORT $LN981@UMii

; 2237 :             _Result = _Unfancy(_Bx._Ptr);

	mov	rdx, QWORD PTR [rdi]
$LN981@UMii:

; 3241 :         return append(_Right._Mypair._Myval2._Myptr(), _Right._Mypair._Myval2._Mysize);

	mov	r8, QWORD PTR [rdi+16]
	lea	rcx, QWORD PTR $T30[rbp-256]
	call	?append@?$basic_string@DU?$char_traits@D@std@@V?$allocator@D@2@@std@@QEAAAEAV12@QEBD_K@Z ; std::basic_string<char,std::char_traits<char>,std::allocator<char> >::append
	xorps	xmm0, xmm0

; 2284 :         _CONSTEXPR20 _Bxty() noexcept : _Buf() {} // user-provided, for fancy pointers

	movups	XMMWORD PTR $T29[rbp-256], xmm0
	xorps	xmm1, xmm1

; 2293 :     size_type _Mysize = 0; // current length of string

	movdqu	XMMWORD PTR $T29[rbp-240], xmm1

; 2999 :         _CSTD memcpy(_My_data_mem, _Right_data_mem, _Memcpy_val_size);

	movups	xmm0, XMMWORD PTR [rax]
	movups	XMMWORD PTR $T29[rbp-256], xmm0
	movups	xmm1, XMMWORD PTR [rax+16]
	movups	XMMWORD PTR $T29[rbp-240], xmm1
; File H:\Paul\switchemulator\Zelda TotK\MapEditorV4\OldVersion\MapEditor\UMii.cpp

; 42   : 	std::cout << "Body: " << ("UMii_" + ModelRace + "_Body" + Type + "_" + SexAge + "_" + Number + "." + "UMii_" + ModelRace + "_Body" + Type + "_" + SexAge + "_" + Number) << std::endl;

	mov	QWORD PTR [rax+16], rsi
	mov	QWORD PTR [rax+24], 15
	mov	BYTE PTR [rax], 0
; File C:\Program Files\Microsoft Visual Studio\2022\Community\VC\Tools\MSVC\14.37.32822\include\xstring

; 3292 :         return append(_Ptr, _Convert_size<size_type>(_Traits::length(_Ptr)));

	mov	r8d, 1
	lea	rdx, OFFSET FLAT:??_C@_01IDAFKMJL@_@
	lea	rcx, QWORD PTR $T29[rbp-256]
	call	?append@?$basic_string@DU?$char_traits@D@std@@V?$allocator@D@2@@std@@QEAAAEAV12@QEBD_K@Z ; std::basic_string<char,std::char_traits<char>,std::allocator<char> >::append
	xorps	xmm0, xmm0

; 2284 :         _CONSTEXPR20 _Bxty() noexcept : _Buf() {} // user-provided, for fancy pointers

	movups	XMMWORD PTR $T28[rbp-256], xmm0
	xorps	xmm1, xmm1

; 2293 :     size_type _Mysize = 0; // current length of string

	movdqu	XMMWORD PTR $T28[rbp-240], xmm1

; 2999 :         _CSTD memcpy(_My_data_mem, _Right_data_mem, _Memcpy_val_size);

	movups	xmm0, XMMWORD PTR [rax]
	movups	XMMWORD PTR $T28[rbp-256], xmm0
	movups	xmm1, XMMWORD PTR [rax+16]
	movups	XMMWORD PTR $T28[rbp-240], xmm1
; File H:\Paul\switchemulator\Zelda TotK\MapEditorV4\OldVersion\MapEditor\UMii.cpp

; 42   : 	std::cout << "Body: " << ("UMii_" + ModelRace + "_Body" + Type + "_" + SexAge + "_" + Number + "." + "UMii_" + ModelRace + "_Body" + Type + "_" + SexAge + "_" + Number) << std::endl;

	mov	QWORD PTR [rax+16], rsi
	mov	QWORD PTR [rax+24], 15
	mov	BYTE PTR [rax], 0
	lea	rdx, QWORD PTR [rdi+64]
; File C:\Program Files\Microsoft Visual Studio\2022\Community\VC\Tools\MSVC\14.37.32822\include\xstring

; 3241 :         return append(_Right._Mypair._Myval2._Myptr(), _Right._Mypair._Myval2._Mysize);

	mov	r8, QWORD PTR [rdx+16]

; 2236 :         if (_Large_string_engaged()) {

	cmp	QWORD PTR [rdx+24], 16
	jb	SHORT $LN1060@UMii

; 2237 :             _Result = _Unfancy(_Bx._Ptr);

	mov	rdx, QWORD PTR [rdx]
$LN1060@UMii:

; 3241 :         return append(_Right._Mypair._Myval2._Myptr(), _Right._Mypair._Myval2._Mysize);

	lea	rcx, QWORD PTR $T28[rbp-256]
	call	?append@?$basic_string@DU?$char_traits@D@std@@V?$allocator@D@2@@std@@QEAAAEAV12@QEBD_K@Z ; std::basic_string<char,std::char_traits<char>,std::allocator<char> >::append
	xorps	xmm0, xmm0

; 2284 :         _CONSTEXPR20 _Bxty() noexcept : _Buf() {} // user-provided, for fancy pointers

	movups	XMMWORD PTR $T2[rsp], xmm0
	xorps	xmm1, xmm1

; 2293 :     size_type _Mysize = 0; // current length of string

	movdqu	XMMWORD PTR $T2[rsp+16], xmm1

; 2999 :         _CSTD memcpy(_My_data_mem, _Right_data_mem, _Memcpy_val_size);

	movups	xmm0, XMMWORD PTR [rax]
	movups	XMMWORD PTR $T2[rsp], xmm0
	movups	xmm1, XMMWORD PTR [rax+16]
	movups	XMMWORD PTR $T2[rsp+16], xmm1
; File H:\Paul\switchemulator\Zelda TotK\MapEditorV4\OldVersion\MapEditor\UMii.cpp

; 42   : 	std::cout << "Body: " << ("UMii_" + ModelRace + "_Body" + Type + "_" + SexAge + "_" + Number + "." + "UMii_" + ModelRace + "_Body" + Type + "_" + SexAge + "_" + Number) << std::endl;

	mov	QWORD PTR [rax+16], rsi
	mov	QWORD PTR [rax+24], 15
	mov	BYTE PTR [rax], 0
; File C:\Program Files\Microsoft Visual Studio\2022\Community\VC\Tools\MSVC\14.37.32822\include\xstring

; 2235 :         const value_type* _Result = _Bx._Buf;

	lea	rdx, QWORD PTR $T2[rsp]

; 2236 :         if (_Large_string_engaged()) {

	cmp	QWORD PTR $T2[rsp+24], 16
	cmovae	rdx, QWORD PTR $T2[rsp]

; 5187 :     return _Insert_string(_Ostr, _Str.data(), _Str.size());

	mov	r8, QWORD PTR $T2[rsp+16]
	mov	rcx, QWORD PTR $T1[rsp]
	call	??$_Insert_string@DU?$char_traits@D@std@@_K@std@@YAAEAV?$basic_ostream@DU?$char_traits@D@std@@@0@AEAV10@QEBD_K@Z ; std::_Insert_string<char,std::char_traits<char>,unsigned __int64>
; File H:\Paul\switchemulator\Zelda TotK\MapEditorV4\OldVersion\MapEditor\UMii.cpp

; 42   : 	std::cout << "Body: " << ("UMii_" + ModelRace + "_Body" + Type + "_" + SexAge + "_" + Number + "." + "UMii_" + ModelRace + "_Body" + Type + "_" + SexAge + "_" + Number) << std::endl;

	lea	rdx, OFFSET FLAT:??$endl@DU?$char_traits@D@std@@@std@@YAAEAV?$basic_ostream@DU?$char_traits@D@std@@@0@AEAV10@@Z ; std::endl<char,std::char_traits<char> >
	mov	rcx, rax
	call	QWORD PTR __imp_??6?$basic_ostream@DU?$char_traits@D@std@@@std@@QEAAAEAV01@P6AAEAV01@AEAV01@@Z@Z
	npad	1
; File C:\Program Files\Microsoft Visual Studio\2022\Community\VC\Tools\MSVC\14.37.32822\include\xstring

; 4832 :         if (_My_data._Large_string_engaged()) {

	mov	r8, QWORD PTR $T2[rsp+24]
	cmp	r8, 16
	jb	SHORT $LN1107@UMii

; 4833 :             _ASAN_STRING_REMOVE(*this);
; 4834 :             const pointer _Ptr = _My_data._Bx._Ptr;
; 4835 :             auto& _Al          = _Getal();
; 4836 :             _Destroy_in_place(_My_data._Bx._Ptr);
; 4837 :             _My_data._Activate_SSO_buffer();
; 4838 :             _Al.deallocate(_Ptr, _My_data._Myres + 1);

	inc	r8
	mov	rdx, QWORD PTR $T2[rsp]
	call	?deallocate@?$allocator@D@std@@QEAAXQEAD_K@Z ; std::allocator<char>::deallocate
$LN1107@UMii:

; 4839 :         }
; 4840 : 
; 4841 :         _My_data._Mysize = 0;

	movdqa	xmm0, XMMWORD PTR __xmm@000000000000000f0000000000000000
	movdqu	XMMWORD PTR $T2[rsp+16], xmm0

; 4842 :         _My_data._Myres  = _BUF_SIZE - 1;
; 4843 :         // the _Traits::assign is last so the codegen doesn't think the char write can alias this
; 4844 :         _Traits::assign(_My_data._Bx._Buf[0], _Elem());

	mov	BYTE PTR $T2[rsp], 0

; 4832 :         if (_My_data._Large_string_engaged()) {

	mov	r8, QWORD PTR $T28[rbp-232]
	cmp	r8, 16
	jb	SHORT $LN1115@UMii

; 4833 :             _ASAN_STRING_REMOVE(*this);
; 4834 :             const pointer _Ptr = _My_data._Bx._Ptr;
; 4835 :             auto& _Al          = _Getal();
; 4836 :             _Destroy_in_place(_My_data._Bx._Ptr);
; 4837 :             _My_data._Activate_SSO_buffer();
; 4838 :             _Al.deallocate(_Ptr, _My_data._Myres + 1);

	inc	r8
	mov	rdx, QWORD PTR $T28[rbp-256]
	call	?deallocate@?$allocator@D@std@@QEAAXQEAD_K@Z ; std::allocator<char>::deallocate
$LN1115@UMii:

; 4839 :         }
; 4840 : 
; 4841 :         _My_data._Mysize = 0;

	movdqa	xmm0, XMMWORD PTR __xmm@000000000000000f0000000000000000
	movdqu	XMMWORD PTR $T28[rbp-240], xmm0

; 4842 :         _My_data._Myres  = _BUF_SIZE - 1;
; 4843 :         // the _Traits::assign is last so the codegen doesn't think the char write can alias this
; 4844 :         _Traits::assign(_My_data._Bx._Buf[0], _Elem());

	mov	BYTE PTR $T28[rbp-256], 0

; 4832 :         if (_My_data._Large_string_engaged()) {

	mov	r8, QWORD PTR $T29[rbp-232]
	cmp	r8, 16
	jb	SHORT $LN1123@UMii

; 4833 :             _ASAN_STRING_REMOVE(*this);
; 4834 :             const pointer _Ptr = _My_data._Bx._Ptr;
; 4835 :             auto& _Al          = _Getal();
; 4836 :             _Destroy_in_place(_My_data._Bx._Ptr);
; 4837 :             _My_data._Activate_SSO_buffer();
; 4838 :             _Al.deallocate(_Ptr, _My_data._Myres + 1);

	inc	r8
	mov	rdx, QWORD PTR $T29[rbp-256]
	call	?deallocate@?$allocator@D@std@@QEAAXQEAD_K@Z ; std::allocator<char>::deallocate
$LN1123@UMii:

; 4839 :         }
; 4840 : 
; 4841 :         _My_data._Mysize = 0;

	movdqa	xmm0, XMMWORD PTR __xmm@000000000000000f0000000000000000
	movdqu	XMMWORD PTR $T29[rbp-240], xmm0

; 4842 :         _My_data._Myres  = _BUF_SIZE - 1;
; 4843 :         // the _Traits::assign is last so the codegen doesn't think the char write can alias this
; 4844 :         _Traits::assign(_My_data._Bx._Buf[0], _Elem());

	mov	BYTE PTR $T29[rbp-256], 0

; 4832 :         if (_My_data._Large_string_engaged()) {

	mov	r8, QWORD PTR $T30[rbp-232]
	cmp	r8, 16
	jb	SHORT $LN1131@UMii

; 4833 :             _ASAN_STRING_REMOVE(*this);
; 4834 :             const pointer _Ptr = _My_data._Bx._Ptr;
; 4835 :             auto& _Al          = _Getal();
; 4836 :             _Destroy_in_place(_My_data._Bx._Ptr);
; 4837 :             _My_data._Activate_SSO_buffer();
; 4838 :             _Al.deallocate(_Ptr, _My_data._Myres + 1);

	inc	r8
	mov	rdx, QWORD PTR $T30[rbp-256]
	call	?deallocate@?$allocator@D@std@@QEAAXQEAD_K@Z ; std::allocator<char>::deallocate
$LN1131@UMii:

; 4839 :         }
; 4840 : 
; 4841 :         _My_data._Mysize = 0;

	movdqa	xmm0, XMMWORD PTR __xmm@000000000000000f0000000000000000
	movdqu	XMMWORD PTR $T30[rbp-240], xmm0

; 4842 :         _My_data._Myres  = _BUF_SIZE - 1;
; 4843 :         // the _Traits::assign is last so the codegen doesn't think the char write can alias this
; 4844 :         _Traits::assign(_My_data._Bx._Buf[0], _Elem());

	mov	BYTE PTR $T30[rbp-256], 0

; 4832 :         if (_My_data._Large_string_engaged()) {

	mov	r8, QWORD PTR $T31[rbp-232]
	cmp	r8, 16
	jb	SHORT $LN1139@UMii

; 4833 :             _ASAN_STRING_REMOVE(*this);
; 4834 :             const pointer _Ptr = _My_data._Bx._Ptr;
; 4835 :             auto& _Al          = _Getal();
; 4836 :             _Destroy_in_place(_My_data._Bx._Ptr);
; 4837 :             _My_data._Activate_SSO_buffer();
; 4838 :             _Al.deallocate(_Ptr, _My_data._Myres + 1);

	inc	r8
	mov	rdx, QWORD PTR $T31[rbp-256]
	call	?deallocate@?$allocator@D@std@@QEAAXQEAD_K@Z ; std::allocator<char>::deallocate
$LN1139@UMii:

; 4839 :         }
; 4840 : 
; 4841 :         _My_data._Mysize = 0;

	movdqa	xmm0, XMMWORD PTR __xmm@000000000000000f0000000000000000
	movdqu	XMMWORD PTR $T31[rbp-240], xmm0

; 4842 :         _My_data._Myres  = _BUF_SIZE - 1;
; 4843 :         // the _Traits::assign is last so the codegen doesn't think the char write can alias this
; 4844 :         _Traits::assign(_My_data._Bx._Buf[0], _Elem());

	mov	BYTE PTR $T31[rbp-256], 0

; 4832 :         if (_My_data._Large_string_engaged()) {

	mov	r8, QWORD PTR $T32[rbp-232]
	cmp	r8, 16
	jb	SHORT $LN1147@UMii

; 4833 :             _ASAN_STRING_REMOVE(*this);
; 4834 :             const pointer _Ptr = _My_data._Bx._Ptr;
; 4835 :             auto& _Al          = _Getal();
; 4836 :             _Destroy_in_place(_My_data._Bx._Ptr);
; 4837 :             _My_data._Activate_SSO_buffer();
; 4838 :             _Al.deallocate(_Ptr, _My_data._Myres + 1);

	inc	r8
	mov	rdx, QWORD PTR $T32[rbp-256]
	call	?deallocate@?$allocator@D@std@@QEAAXQEAD_K@Z ; std::allocator<char>::deallocate
$LN1147@UMii:

; 4839 :         }
; 4840 : 
; 4841 :         _My_data._Mysize = 0;

	movdqa	xmm0, XMMWORD PTR __xmm@000000000000000f0000000000000000
	movdqu	XMMWORD PTR $T32[rbp-240], xmm0

; 4842 :         _My_data._Myres  = _BUF_SIZE - 1;
; 4843 :         // the _Traits::assign is last so the codegen doesn't think the char write can alias this
; 4844 :         _Traits::assign(_My_data._Bx._Buf[0], _Elem());

	mov	BYTE PTR $T32[rbp-256], 0

; 4832 :         if (_My_data._Large_string_engaged()) {

	mov	r8, QWORD PTR $T13[rbp-232]
	cmp	r8, 16
	jb	SHORT $LN1155@UMii

; 4833 :             _ASAN_STRING_REMOVE(*this);
; 4834 :             const pointer _Ptr = _My_data._Bx._Ptr;
; 4835 :             auto& _Al          = _Getal();
; 4836 :             _Destroy_in_place(_My_data._Bx._Ptr);
; 4837 :             _My_data._Activate_SSO_buffer();
; 4838 :             _Al.deallocate(_Ptr, _My_data._Myres + 1);

	inc	r8
	mov	rdx, QWORD PTR $T13[rbp-256]
	call	?deallocate@?$allocator@D@std@@QEAAXQEAD_K@Z ; std::allocator<char>::deallocate
$LN1155@UMii:

; 4839 :         }
; 4840 : 
; 4841 :         _My_data._Mysize = 0;

	movdqa	xmm0, XMMWORD PTR __xmm@000000000000000f0000000000000000
	movdqu	XMMWORD PTR $T13[rbp-240], xmm0

; 4842 :         _My_data._Myres  = _BUF_SIZE - 1;
; 4843 :         // the _Traits::assign is last so the codegen doesn't think the char write can alias this
; 4844 :         _Traits::assign(_My_data._Bx._Buf[0], _Elem());

	mov	BYTE PTR $T13[rbp-256], 0

; 4832 :         if (_My_data._Large_string_engaged()) {

	mov	r8, QWORD PTR $T33[rbp-232]
	cmp	r8, 16
	jb	SHORT $LN1163@UMii

; 4833 :             _ASAN_STRING_REMOVE(*this);
; 4834 :             const pointer _Ptr = _My_data._Bx._Ptr;
; 4835 :             auto& _Al          = _Getal();
; 4836 :             _Destroy_in_place(_My_data._Bx._Ptr);
; 4837 :             _My_data._Activate_SSO_buffer();
; 4838 :             _Al.deallocate(_Ptr, _My_data._Myres + 1);

	inc	r8
	mov	rdx, QWORD PTR $T33[rbp-256]
	call	?deallocate@?$allocator@D@std@@QEAAXQEAD_K@Z ; std::allocator<char>::deallocate
$LN1163@UMii:

; 4839 :         }
; 4840 : 
; 4841 :         _My_data._Mysize = 0;

	movdqa	xmm0, XMMWORD PTR __xmm@000000000000000f0000000000000000
	movdqu	XMMWORD PTR $T33[rbp-240], xmm0

; 4842 :         _My_data._Myres  = _BUF_SIZE - 1;
; 4843 :         // the _Traits::assign is last so the codegen doesn't think the char write can alias this
; 4844 :         _Traits::assign(_My_data._Bx._Buf[0], _Elem());

	mov	BYTE PTR $T33[rbp-256], 0

; 4832 :         if (_My_data._Large_string_engaged()) {

	mov	r8, QWORD PTR $T15[rbp-232]
	cmp	r8, 16
	jb	SHORT $LN1171@UMii

; 4833 :             _ASAN_STRING_REMOVE(*this);
; 4834 :             const pointer _Ptr = _My_data._Bx._Ptr;
; 4835 :             auto& _Al          = _Getal();
; 4836 :             _Destroy_in_place(_My_data._Bx._Ptr);
; 4837 :             _My_data._Activate_SSO_buffer();
; 4838 :             _Al.deallocate(_Ptr, _My_data._Myres + 1);

	inc	r8
	mov	rdx, QWORD PTR $T15[rbp-256]
	call	?deallocate@?$allocator@D@std@@QEAAXQEAD_K@Z ; std::allocator<char>::deallocate
$LN1171@UMii:

; 4839 :         }
; 4840 : 
; 4841 :         _My_data._Mysize = 0;

	movdqa	xmm0, XMMWORD PTR __xmm@000000000000000f0000000000000000
	movdqu	XMMWORD PTR $T15[rbp-240], xmm0

; 4842 :         _My_data._Myres  = _BUF_SIZE - 1;
; 4843 :         // the _Traits::assign is last so the codegen doesn't think the char write can alias this
; 4844 :         _Traits::assign(_My_data._Bx._Buf[0], _Elem());

	mov	BYTE PTR $T15[rbp-256], 0

; 4832 :         if (_My_data._Large_string_engaged()) {

	mov	r8, QWORD PTR $T16[rbp-232]
	cmp	r8, 16
	jb	SHORT $LN1179@UMii

; 4833 :             _ASAN_STRING_REMOVE(*this);
; 4834 :             const pointer _Ptr = _My_data._Bx._Ptr;
; 4835 :             auto& _Al          = _Getal();
; 4836 :             _Destroy_in_place(_My_data._Bx._Ptr);
; 4837 :             _My_data._Activate_SSO_buffer();
; 4838 :             _Al.deallocate(_Ptr, _My_data._Myres + 1);

	inc	r8
	mov	rdx, QWORD PTR $T16[rbp-256]
	call	?deallocate@?$allocator@D@std@@QEAAXQEAD_K@Z ; std::allocator<char>::deallocate
$LN1179@UMii:

; 4839 :         }
; 4840 : 
; 4841 :         _My_data._Mysize = 0;

	movdqa	xmm0, XMMWORD PTR __xmm@000000000000000f0000000000000000
	movdqu	XMMWORD PTR $T16[rbp-240], xmm0

; 4842 :         _My_data._Myres  = _BUF_SIZE - 1;
; 4843 :         // the _Traits::assign is last so the codegen doesn't think the char write can alias this
; 4844 :         _Traits::assign(_My_data._Bx._Buf[0], _Elem());

	mov	BYTE PTR $T16[rbp-256], 0

; 4832 :         if (_My_data._Large_string_engaged()) {

	mov	r8, QWORD PTR $T34[rbp-232]
	cmp	r8, 16
	jb	SHORT $LN1187@UMii

; 4833 :             _ASAN_STRING_REMOVE(*this);
; 4834 :             const pointer _Ptr = _My_data._Bx._Ptr;
; 4835 :             auto& _Al          = _Getal();
; 4836 :             _Destroy_in_place(_My_data._Bx._Ptr);
; 4837 :             _My_data._Activate_SSO_buffer();
; 4838 :             _Al.deallocate(_Ptr, _My_data._Myres + 1);

	inc	r8
	mov	rdx, QWORD PTR $T34[rbp-256]
	call	?deallocate@?$allocator@D@std@@QEAAXQEAD_K@Z ; std::allocator<char>::deallocate
$LN1187@UMii:

; 4839 :         }
; 4840 : 
; 4841 :         _My_data._Mysize = 0;

	movdqa	xmm0, XMMWORD PTR __xmm@000000000000000f0000000000000000
	movdqu	XMMWORD PTR $T34[rbp-240], xmm0

; 4842 :         _My_data._Myres  = _BUF_SIZE - 1;
; 4843 :         // the _Traits::assign is last so the codegen doesn't think the char write can alias this
; 4844 :         _Traits::assign(_My_data._Bx._Buf[0], _Elem());

	mov	BYTE PTR $T34[rbp-256], 0

; 4832 :         if (_My_data._Large_string_engaged()) {

	mov	r8, QWORD PTR $T17[rbp-232]
	cmp	r8, 16
	jb	SHORT $LN1195@UMii

; 4833 :             _ASAN_STRING_REMOVE(*this);
; 4834 :             const pointer _Ptr = _My_data._Bx._Ptr;
; 4835 :             auto& _Al          = _Getal();
; 4836 :             _Destroy_in_place(_My_data._Bx._Ptr);
; 4837 :             _My_data._Activate_SSO_buffer();
; 4838 :             _Al.deallocate(_Ptr, _My_data._Myres + 1);

	inc	r8
	mov	rdx, QWORD PTR $T17[rbp-256]
	call	?deallocate@?$allocator@D@std@@QEAAXQEAD_K@Z ; std::allocator<char>::deallocate
$LN1195@UMii:

; 4839 :         }
; 4840 : 
; 4841 :         _My_data._Mysize = 0;

	movdqa	xmm0, XMMWORD PTR __xmm@000000000000000f0000000000000000
	movdqu	XMMWORD PTR $T17[rbp-240], xmm0

; 4842 :         _My_data._Myres  = _BUF_SIZE - 1;
; 4843 :         // the _Traits::assign is last so the codegen doesn't think the char write can alias this
; 4844 :         _Traits::assign(_My_data._Bx._Buf[0], _Elem());

	mov	BYTE PTR $T17[rbp-256], 0

; 4832 :         if (_My_data._Large_string_engaged()) {

	mov	r8, QWORD PTR $T26[rbp-232]
	cmp	r8, 16
	jb	SHORT $LN1203@UMii

; 4833 :             _ASAN_STRING_REMOVE(*this);
; 4834 :             const pointer _Ptr = _My_data._Bx._Ptr;
; 4835 :             auto& _Al          = _Getal();
; 4836 :             _Destroy_in_place(_My_data._Bx._Ptr);
; 4837 :             _My_data._Activate_SSO_buffer();
; 4838 :             _Al.deallocate(_Ptr, _My_data._Myres + 1);

	inc	r8
	mov	rdx, QWORD PTR $T26[rbp-256]
	call	?deallocate@?$allocator@D@std@@QEAAXQEAD_K@Z ; std::allocator<char>::deallocate
$LN1203@UMii:

; 4839 :         }
; 4840 : 
; 4841 :         _My_data._Mysize = 0;

	movdqa	xmm0, XMMWORD PTR __xmm@000000000000000f0000000000000000
	movdqu	XMMWORD PTR $T26[rbp-240], xmm0

; 4842 :         _My_data._Myres  = _BUF_SIZE - 1;
; 4843 :         // the _Traits::assign is last so the codegen doesn't think the char write can alias this
; 4844 :         _Traits::assign(_My_data._Bx._Buf[0], _Elem());

	mov	BYTE PTR $T26[rbp-256], 0

; 4832 :         if (_My_data._Large_string_engaged()) {

	mov	r8, QWORD PTR $T18[rbp-232]
	cmp	r8, 16
	jb	SHORT $LN1211@UMii

; 4833 :             _ASAN_STRING_REMOVE(*this);
; 4834 :             const pointer _Ptr = _My_data._Bx._Ptr;
; 4835 :             auto& _Al          = _Getal();
; 4836 :             _Destroy_in_place(_My_data._Bx._Ptr);
; 4837 :             _My_data._Activate_SSO_buffer();
; 4838 :             _Al.deallocate(_Ptr, _My_data._Myres + 1);

	inc	r8
	mov	rdx, QWORD PTR $T18[rbp-256]
	call	?deallocate@?$allocator@D@std@@QEAAXQEAD_K@Z ; std::allocator<char>::deallocate
$LN1211@UMii:

; 4839 :         }
; 4840 : 
; 4841 :         _My_data._Mysize = 0;

	movdqa	xmm0, XMMWORD PTR __xmm@000000000000000f0000000000000000
	movdqu	XMMWORD PTR $T18[rbp-240], xmm0

; 4842 :         _My_data._Myres  = _BUF_SIZE - 1;
; 4843 :         // the _Traits::assign is last so the codegen doesn't think the char write can alias this
; 4844 :         _Traits::assign(_My_data._Bx._Buf[0], _Elem());

	mov	BYTE PTR $T18[rbp-256], 0

; 4832 :         if (_My_data._Large_string_engaged()) {

	mov	r8, QWORD PTR $T27[rbp-232]
	cmp	r8, 16
	jb	SHORT $LN1219@UMii

; 4833 :             _ASAN_STRING_REMOVE(*this);
; 4834 :             const pointer _Ptr = _My_data._Bx._Ptr;
; 4835 :             auto& _Al          = _Getal();
; 4836 :             _Destroy_in_place(_My_data._Bx._Ptr);
; 4837 :             _My_data._Activate_SSO_buffer();
; 4838 :             _Al.deallocate(_Ptr, _My_data._Myres + 1);

	inc	r8
	mov	rdx, QWORD PTR $T27[rbp-256]
	call	?deallocate@?$allocator@D@std@@QEAAXQEAD_K@Z ; std::allocator<char>::deallocate
$LN1219@UMii:

; 4839 :         }
; 4840 : 
; 4841 :         _My_data._Mysize = 0;

	movdqa	xmm0, XMMWORD PTR __xmm@000000000000000f0000000000000000
	movdqu	XMMWORD PTR $T27[rbp-240], xmm0

; 4842 :         _My_data._Myres  = _BUF_SIZE - 1;
; 4843 :         // the _Traits::assign is last so the codegen doesn't think the char write can alias this
; 4844 :         _Traits::assign(_My_data._Bx._Buf[0], _Elem());

	mov	BYTE PTR $T27[rbp-256], 0

; 3119 :         _Tidy_deallocate();

	lea	rcx, QWORD PTR $T19[rbp-256]
	call	?_Tidy_deallocate@?$basic_string@DU?$char_traits@D@std@@V?$allocator@D@2@@std@@AEAAXXZ ; std::basic_string<char,std::char_traits<char>,std::allocator<char> >::_Tidy_deallocate
	npad	1
	lea	rcx, QWORD PTR ModelRace$[rbp-256]
	call	?_Tidy_deallocate@?$basic_string@DU?$char_traits@D@std@@V?$allocator@D@2@@std@@AEAAXXZ ; std::basic_string<char,std::char_traits<char>,std::allocator<char> >::_Tidy_deallocate
	npad	1
	lea	rcx, QWORD PTR UMiiByml$[rbp-104]
	call	??1?$_Hash@V?$_Umap_traits@VNode@BymlFile@@IV?$_Uhash_compare@VNode@BymlFile@@UNodeHasher@2@UNodeEqual@2@@std@@V?$allocator@U?$pair@$$CBVNode@BymlFile@@I@std@@@4@$0A@@std@@@std@@QEAA@XZ
	lea	rcx, QWORD PTR UMiiByml$[rbp-168]
	call	??1?$_Hash@V?$_Umap_traits@V?$vector@EV?$allocator@E@std@@@std@@IV?$_Uhash_compare@V?$vector@EV?$allocator@E@std@@@std@@UVectorHasher@BymlFile@@U?$equal_to@V?$vector@EV?$allocator@E@std@@@std@@@2@@2@V?$allocator@U?$pair@$$CBV?$vector@EV?$allocator@E@std@@@std@@I@std@@@2@$0A@@std@@@std@@QEAA@XZ
; File C:\Program Files\Microsoft Visual Studio\2022\Community\VC\Tools\MSVC\14.37.32822\include\vector

; 767  :         _Tidy();

	lea	rcx, QWORD PTR UMiiByml$[rbp-208]
	call	?_Tidy@?$vector@V?$basic_string@DU?$char_traits@D@std@@V?$allocator@D@2@@std@@V?$allocator@V?$basic_string@DU?$char_traits@D@std@@V?$allocator@D@2@@std@@@2@@std@@AEAAXXZ ; std::vector<std::basic_string<char,std::char_traits<char>,std::allocator<char> >,std::allocator<std::basic_string<char,std::char_traits<char>,std::allocator<char> > > >::_Tidy
	lea	rcx, QWORD PTR UMiiByml$[rbp-232]
	call	?_Tidy@?$vector@V?$basic_string@DU?$char_traits@D@std@@V?$allocator@D@2@@std@@V?$allocator@V?$basic_string@DU?$char_traits@D@std@@V?$allocator@D@2@@std@@@2@@std@@AEAAXXZ ; std::vector<std::basic_string<char,std::char_traits<char>,std::allocator<char> >,std::allocator<std::basic_string<char,std::char_traits<char>,std::allocator<char> > > >::_Tidy
	lea	rcx, QWORD PTR UMiiByml$[rbp-256]
	call	?_Tidy@?$vector@VNode@BymlFile@@V?$allocator@VNode@BymlFile@@@std@@@std@@AEAAXXZ ; std::vector<BymlFile::Node,std::allocator<BymlFile::Node> >::_Tidy
	npad	1
; File H:\Paul\switchemulator\Zelda TotK\MapEditorV4\OldVersion\MapEditor\UMii.cpp

; 86   : }

	mov	rcx, QWORD PTR BymlBytes$GSCopy$1$[rbp-256]
	call	??1?$vector@EV?$allocator@E@std@@@std@@QEAA@XZ ; std::vector<unsigned char,std::allocator<unsigned char> >::~vector<unsigned char,std::allocator<unsigned char> >
	mov	rax, rdi
	mov	rcx, QWORD PTR __$ArrayPad$[rbp-256]
	xor	rcx, rsp
	call	__security_check_cookie
	mov	rbx, QWORD PTR [rsp+1632]
	movaps	xmm6, XMMWORD PTR [rsp+1536]
	add	rsp, 1552				; 00000610H
	pop	r15
	pop	r14
	pop	r13
	pop	r12
	pop	rdi
	pop	rsi
	pop	rbp
	ret	0
$LN2004@UMii:
; File C:\Program Files\Microsoft Visual Studio\2022\Community\VC\Tools\MSVC\14.37.32822\include\xmemory

; 141  :         _Throw_bad_array_new_length(); // add overflow

	call	?_Throw_bad_array_new_length@std@@YAXXZ	; std::_Throw_bad_array_new_length
	npad	1
$LN2002@UMii:
; File C:\Program Files\Microsoft Visual Studio\2022\Community\VC\Tools\MSVC\14.37.32822\include\xstring

; 4917 :         _Xlen_string();

	call	?_Xlen_string@std@@YAXXZ		; std::_Xlen_string
	int	3
$LN2003@UMii:
	call	?_Xlen_string@std@@YAXXZ		; std::_Xlen_string
	int	3
$LN1999@UMii:
??0UMii@@QEAA@V?$vector@EV?$allocator@E@std@@@std@@@Z ENDP ; UMii::UMii
_TEXT	ENDS
; Function compile flags: /Ogtpy
;	COMDAT text$x
text$x	SEGMENT
$T1 = 64
$T2 = 72
$T3 = 72
$T4 = 72
$T5 = 72
$T6 = 104
$T7 = 104
$T8 = 104
$T9 = 104
$T10 = 104
$T11 = 104
$T12 = 104
$T13 = 136
$T14 = 136
$T15 = 168
$T16 = 200
$T17 = 232
$T18 = 264
$T19 = 296
ModelRace$3$ = 328
$T20 = 328
$T21 = 336
$T22 = 336
$T23 = 336
$T24 = 336
$T25 = 336
$T26 = 368
$T27 = 400
$T28 = 432
$T29 = 464
$T30 = 496
$T31 = 528
$T32 = 560
$T33 = 592
$T34 = 624
BymlBytes$GSCopy$1$ = 656
$T35 = 664
$T36 = 664
$T37 = 696
$T38 = 728
$T39 = 760
$T40 = 792
$T41 = 824
$T42 = 856
$T43 = 888
this$GSCopy$ = 928
$T44 = 944
$T45 = 992
$T46 = 1024
$T47 = 1056
$T48 = 1088
$T49 = 1120
$T50 = 1152
$T51 = 1184
$T52 = 1216
BymlBytes$GSCopy$ = 1248
ModelRace$ = 1256
UMiiByml$ = 1296
__$ArrayPad$ = 1520
this$ = 1616
BymlBytes$ = 1624
?dtor$0@?0???0UMii@@QEAA@V?$vector@EV?$allocator@E@std@@@std@@@Z@4HA PROC ; `UMii::UMii'::`1'::dtor$0
	mov	rcx, QWORD PTR BymlBytes$GSCopy$[rdx]
	jmp	??1?$vector@EV?$allocator@E@std@@@std@@QEAA@XZ ; std::vector<unsigned char,std::allocator<unsigned char> >::~vector<unsigned char,std::allocator<unsigned char> >
?dtor$0@?0???0UMii@@QEAA@V?$vector@EV?$allocator@E@std@@@std@@@Z@4HA ENDP ; `UMii::UMii'::`1'::dtor$0
text$x	ENDS
; Function compile flags: /Ogtpy
;	COMDAT text$x
text$x	SEGMENT
$T1 = 64
$T2 = 72
$T3 = 72
$T4 = 72
$T5 = 72
$T6 = 104
$T7 = 104
$T8 = 104
$T9 = 104
$T10 = 104
$T11 = 104
$T12 = 104
$T13 = 136
$T14 = 136
$T15 = 168
$T16 = 200
$T17 = 232
$T18 = 264
$T19 = 296
ModelRace$3$ = 328
$T20 = 328
$T21 = 336
$T22 = 336
$T23 = 336
$T24 = 336
$T25 = 336
$T26 = 368
$T27 = 400
$T28 = 432
$T29 = 464
$T30 = 496
$T31 = 528
$T32 = 560
$T33 = 592
$T34 = 624
BymlBytes$GSCopy$1$ = 656
$T35 = 664
$T36 = 664
$T37 = 696
$T38 = 728
$T39 = 760
$T40 = 792
$T41 = 824
$T42 = 856
$T43 = 888
this$GSCopy$ = 928
$T44 = 944
$T45 = 992
$T46 = 1024
$T47 = 1056
$T48 = 1088
$T49 = 1120
$T50 = 1152
$T51 = 1184
$T52 = 1216
BymlBytes$GSCopy$ = 1248
ModelRace$ = 1256
UMiiByml$ = 1296
__$ArrayPad$ = 1520
this$ = 1616
BymlBytes$ = 1624
?dtor$1@?0???0UMii@@QEAA@V?$vector@EV?$allocator@E@std@@@std@@@Z@4HA PROC ; `UMii::UMii'::`1'::dtor$1
	mov	rcx, QWORD PTR this$GSCopy$[rdx]
	jmp	??1?$basic_string@DU?$char_traits@D@std@@V?$allocator@D@2@@std@@QEAA@XZ ; std::basic_string<char,std::char_traits<char>,std::allocator<char> >::~basic_string<char,std::char_traits<char>,std::allocator<char> >
?dtor$1@?0???0UMii@@QEAA@V?$vector@EV?$allocator@E@std@@@std@@@Z@4HA ENDP ; `UMii::UMii'::`1'::dtor$1
text$x	ENDS
; Function compile flags: /Ogtpy
;	COMDAT text$x
text$x	SEGMENT
$T1 = 64
$T2 = 72
$T3 = 72
$T4 = 72
$T5 = 72
$T6 = 104
$T7 = 104
$T8 = 104
$T9 = 104
$T10 = 104
$T11 = 104
$T12 = 104
$T13 = 136
$T14 = 136
$T15 = 168
$T16 = 200
$T17 = 232
$T18 = 264
$T19 = 296
ModelRace$3$ = 328
$T20 = 328
$T21 = 336
$T22 = 336
$T23 = 336
$T24 = 336
$T25 = 336
$T26 = 368
$T27 = 400
$T28 = 432
$T29 = 464
$T30 = 496
$T31 = 528
$T32 = 560
$T33 = 592
$T34 = 624
BymlBytes$GSCopy$1$ = 656
$T35 = 664
$T36 = 664
$T37 = 696
$T38 = 728
$T39 = 760
$T40 = 792
$T41 = 824
$T42 = 856
$T43 = 888
this$GSCopy$ = 928
$T44 = 944
$T45 = 992
$T46 = 1024
$T47 = 1056
$T48 = 1088
$T49 = 1120
$T50 = 1152
$T51 = 1184
$T52 = 1216
BymlBytes$GSCopy$ = 1248
ModelRace$ = 1256
UMiiByml$ = 1296
__$ArrayPad$ = 1520
this$ = 1616
BymlBytes$ = 1624
?dtor$2@?0???0UMii@@QEAA@V?$vector@EV?$allocator@E@std@@@std@@@Z@4HA PROC ; `UMii::UMii'::`1'::dtor$2
	mov	rcx, QWORD PTR this$GSCopy$[rdx]
	add	rcx, 32					; 00000020H
	jmp	??1?$basic_string@DU?$char_traits@D@std@@V?$allocator@D@2@@std@@QEAA@XZ ; std::basic_string<char,std::char_traits<char>,std::allocator<char> >::~basic_string<char,std::char_traits<char>,std::allocator<char> >
?dtor$2@?0???0UMii@@QEAA@V?$vector@EV?$allocator@E@std@@@std@@@Z@4HA ENDP ; `UMii::UMii'::`1'::dtor$2
text$x	ENDS
; Function compile flags: /Ogtpy
;	COMDAT text$x
text$x	SEGMENT
$T1 = 64
$T2 = 72
$T3 = 72
$T4 = 72
$T5 = 72
$T6 = 104
$T7 = 104
$T8 = 104
$T9 = 104
$T10 = 104
$T11 = 104
$T12 = 104
$T13 = 136
$T14 = 136
$T15 = 168
$T16 = 200
$T17 = 232
$T18 = 264
$T19 = 296
ModelRace$3$ = 328
$T20 = 328
$T21 = 336
$T22 = 336
$T23 = 336
$T24 = 336
$T25 = 336
$T26 = 368
$T27 = 400
$T28 = 432
$T29 = 464
$T30 = 496
$T31 = 528
$T32 = 560
$T33 = 592
$T34 = 624
BymlBytes$GSCopy$1$ = 656
$T35 = 664
$T36 = 664
$T37 = 696
$T38 = 728
$T39 = 760
$T40 = 792
$T41 = 824
$T42 = 856
$T43 = 888
this$GSCopy$ = 928
$T44 = 944
$T45 = 992
$T46 = 1024
$T47 = 1056
$T48 = 1088
$T49 = 1120
$T50 = 1152
$T51 = 1184
$T52 = 1216
BymlBytes$GSCopy$ = 1248
ModelRace$ = 1256
UMiiByml$ = 1296
__$ArrayPad$ = 1520
this$ = 1616
BymlBytes$ = 1624
?dtor$3@?0???0UMii@@QEAA@V?$vector@EV?$allocator@E@std@@@std@@@Z@4HA PROC ; `UMii::UMii'::`1'::dtor$3
	mov	rcx, QWORD PTR this$GSCopy$[rdx]
	add	rcx, 64					; 00000040H
	jmp	??1?$basic_string@DU?$char_traits@D@std@@V?$allocator@D@2@@std@@QEAA@XZ ; std::basic_string<char,std::char_traits<char>,std::allocator<char> >::~basic_string<char,std::char_traits<char>,std::allocator<char> >
?dtor$3@?0???0UMii@@QEAA@V?$vector@EV?$allocator@E@std@@@std@@@Z@4HA ENDP ; `UMii::UMii'::`1'::dtor$3
text$x	ENDS
; Function compile flags: /Ogtpy
;	COMDAT text$x
text$x	SEGMENT
$T1 = 64
$T2 = 72
$T3 = 72
$T4 = 72
$T5 = 72
$T6 = 104
$T7 = 104
$T8 = 104
$T9 = 104
$T10 = 104
$T11 = 104
$T12 = 104
$T13 = 136
$T14 = 136
$T15 = 168
$T16 = 200
$T17 = 232
$T18 = 264
$T19 = 296
ModelRace$3$ = 328
$T20 = 328
$T21 = 336
$T22 = 336
$T23 = 336
$T24 = 336
$T25 = 336
$T26 = 368
$T27 = 400
$T28 = 432
$T29 = 464
$T30 = 496
$T31 = 528
$T32 = 560
$T33 = 592
$T34 = 624
BymlBytes$GSCopy$1$ = 656
$T35 = 664
$T36 = 664
$T37 = 696
$T38 = 728
$T39 = 760
$T40 = 792
$T41 = 824
$T42 = 856
$T43 = 888
this$GSCopy$ = 928
$T44 = 944
$T45 = 992
$T46 = 1024
$T47 = 1056
$T48 = 1088
$T49 = 1120
$T50 = 1152
$T51 = 1184
$T52 = 1216
BymlBytes$GSCopy$ = 1248
ModelRace$ = 1256
UMiiByml$ = 1296
__$ArrayPad$ = 1520
this$ = 1616
BymlBytes$ = 1624
?dtor$4@?0???0UMii@@QEAA@V?$vector@EV?$allocator@E@std@@@std@@@Z@4HA PROC ; `UMii::UMii'::`1'::dtor$4
	mov	rcx, QWORD PTR this$GSCopy$[rdx]
	add	rcx, 96					; 00000060H
	jmp	??1?$basic_string@DU?$char_traits@D@std@@V?$allocator@D@2@@std@@QEAA@XZ ; std::basic_string<char,std::char_traits<char>,std::allocator<char> >::~basic_string<char,std::char_traits<char>,std::allocator<char> >
?dtor$4@?0???0UMii@@QEAA@V?$vector@EV?$allocator@E@std@@@std@@@Z@4HA ENDP ; `UMii::UMii'::`1'::dtor$4
text$x	ENDS
; Function compile flags: /Ogtpy
;	COMDAT text$x
text$x	SEGMENT
$T1 = 64
$T2 = 72
$T3 = 72
$T4 = 72
$T5 = 72
$T6 = 104
$T7 = 104
$T8 = 104
$T9 = 104
$T10 = 104
$T11 = 104
$T12 = 104
$T13 = 136
$T14 = 136
$T15 = 168
$T16 = 200
$T17 = 232
$T18 = 264
$T19 = 296
ModelRace$3$ = 328
$T20 = 328
$T21 = 336
$T22 = 336
$T23 = 336
$T24 = 336
$T25 = 336
$T26 = 368
$T27 = 400
$T28 = 432
$T29 = 464
$T30 = 496
$T31 = 528
$T32 = 560
$T33 = 592
$T34 = 624
BymlBytes$GSCopy$1$ = 656
$T35 = 664
$T36 = 664
$T37 = 696
$T38 = 728
$T39 = 760
$T40 = 792
$T41 = 824
$T42 = 856
$T43 = 888
this$GSCopy$ = 928
$T44 = 944
$T45 = 992
$T46 = 1024
$T47 = 1056
$T48 = 1088
$T49 = 1120
$T50 = 1152
$T51 = 1184
$T52 = 1216
BymlBytes$GSCopy$ = 1248
ModelRace$ = 1256
UMiiByml$ = 1296
__$ArrayPad$ = 1520
this$ = 1616
BymlBytes$ = 1624
?dtor$5@?0???0UMii@@QEAA@V?$vector@EV?$allocator@E@std@@@std@@@Z@4HA PROC ; `UMii::UMii'::`1'::dtor$5
	mov	rcx, QWORD PTR this$GSCopy$[rdx]
	add	rcx, 128				; 00000080H
	jmp	??1?$vector@UModelElement@UMii@@V?$allocator@UModelElement@UMii@@@std@@@std@@QEAA@XZ ; std::vector<UMii::ModelElement,std::allocator<UMii::ModelElement> >::~vector<UMii::ModelElement,std::allocator<UMii::ModelElement> >
?dtor$5@?0???0UMii@@QEAA@V?$vector@EV?$allocator@E@std@@@std@@@Z@4HA ENDP ; `UMii::UMii'::`1'::dtor$5
text$x	ENDS
; Function compile flags: /Ogtpy
;	COMDAT text$x
text$x	SEGMENT
$T1 = 64
$T2 = 72
$T3 = 72
$T4 = 72
$T5 = 72
$T6 = 104
$T7 = 104
$T8 = 104
$T9 = 104
$T10 = 104
$T11 = 104
$T12 = 104
$T13 = 136
$T14 = 136
$T15 = 168
$T16 = 200
$T17 = 232
$T18 = 264
$T19 = 296
ModelRace$3$ = 328
$T20 = 328
$T21 = 336
$T22 = 336
$T23 = 336
$T24 = 336
$T25 = 336
$T26 = 368
$T27 = 400
$T28 = 432
$T29 = 464
$T30 = 496
$T31 = 528
$T32 = 560
$T33 = 592
$T34 = 624
BymlBytes$GSCopy$1$ = 656
$T35 = 664
$T36 = 664
$T37 = 696
$T38 = 728
$T39 = 760
$T40 = 792
$T41 = 824
$T42 = 856
$T43 = 888
this$GSCopy$ = 928
$T44 = 944
$T45 = 992
$T46 = 1024
$T47 = 1056
$T48 = 1088
$T49 = 1120
$T50 = 1152
$T51 = 1184
$T52 = 1216
BymlBytes$GSCopy$ = 1248
ModelRace$ = 1256
UMiiByml$ = 1296
__$ArrayPad$ = 1520
this$ = 1616
BymlBytes$ = 1624
?dtor$7@?0???0UMii@@QEAA@V?$vector@EV?$allocator@E@std@@@std@@@Z@4HA PROC ; `UMii::UMii'::`1'::dtor$7
	lea	rcx, QWORD PTR UMiiByml$[rdx]
	jmp	??1BymlFile@@QEAA@XZ
?dtor$7@?0???0UMii@@QEAA@V?$vector@EV?$allocator@E@std@@@std@@@Z@4HA ENDP ; `UMii::UMii'::`1'::dtor$7
text$x	ENDS
; Function compile flags: /Ogtpy
;	COMDAT text$x
text$x	SEGMENT
$T1 = 64
$T2 = 72
$T3 = 72
$T4 = 72
$T5 = 72
$T6 = 104
$T7 = 104
$T8 = 104
$T9 = 104
$T10 = 104
$T11 = 104
$T12 = 104
$T13 = 136
$T14 = 136
$T15 = 168
$T16 = 200
$T17 = 232
$T18 = 264
$T19 = 296
ModelRace$3$ = 328
$T20 = 328
$T21 = 336
$T22 = 336
$T23 = 336
$T24 = 336
$T25 = 336
$T26 = 368
$T27 = 400
$T28 = 432
$T29 = 464
$T30 = 496
$T31 = 528
$T32 = 560
$T33 = 592
$T34 = 624
BymlBytes$GSCopy$1$ = 656
$T35 = 664
$T36 = 664
$T37 = 696
$T38 = 728
$T39 = 760
$T40 = 792
$T41 = 824
$T42 = 856
$T43 = 888
this$GSCopy$ = 928
$T44 = 944
$T45 = 992
$T46 = 1024
$T47 = 1056
$T48 = 1088
$T49 = 1120
$T50 = 1152
$T51 = 1184
$T52 = 1216
BymlBytes$GSCopy$ = 1248
ModelRace$ = 1256
UMiiByml$ = 1296
__$ArrayPad$ = 1520
this$ = 1616
BymlBytes$ = 1624
?dtor$23@?0???0UMii@@QEAA@V?$vector@EV?$allocator@E@std@@@std@@@Z@4HA PROC ; `UMii::UMii'::`1'::dtor$23
	push	rbp
	sub	rsp, 32					; 00000020H
	mov	rbp, rdx
	mov	eax, DWORD PTR $T20[rbp]
	and	eax, 1
	test	eax, eax
	je	SHORT $LN36@dtor$23
	and	DWORD PTR $T20[rbp], -2
	lea	rcx, QWORD PTR $T46[rbp]
	call	??1?$basic_string@DU?$char_traits@D@std@@V?$allocator@D@2@@std@@QEAA@XZ ; std::basic_string<char,std::char_traits<char>,std::allocator<char> >::~basic_string<char,std::char_traits<char>,std::allocator<char> >
$LN36@dtor$23:
	add	rsp, 32					; 00000020H
	pop	rbp
	ret	0
?dtor$23@?0???0UMii@@QEAA@V?$vector@EV?$allocator@E@std@@@std@@@Z@4HA ENDP ; `UMii::UMii'::`1'::dtor$23
text$x	ENDS
; Function compile flags: /Ogtpy
;	COMDAT text$x
text$x	SEGMENT
$T1 = 64
$T2 = 72
$T3 = 72
$T4 = 72
$T5 = 72
$T6 = 104
$T7 = 104
$T8 = 104
$T9 = 104
$T10 = 104
$T11 = 104
$T12 = 104
$T13 = 136
$T14 = 136
$T15 = 168
$T16 = 200
$T17 = 232
$T18 = 264
$T19 = 296
ModelRace$3$ = 328
$T20 = 328
$T21 = 336
$T22 = 336
$T23 = 336
$T24 = 336
$T25 = 336
$T26 = 368
$T27 = 400
$T28 = 432
$T29 = 464
$T30 = 496
$T31 = 528
$T32 = 560
$T33 = 592
$T34 = 624
BymlBytes$GSCopy$1$ = 656
$T35 = 664
$T36 = 664
$T37 = 696
$T38 = 728
$T39 = 760
$T40 = 792
$T41 = 824
$T42 = 856
$T43 = 888
this$GSCopy$ = 928
$T44 = 944
$T45 = 992
$T46 = 1024
$T47 = 1056
$T48 = 1088
$T49 = 1120
$T50 = 1152
$T51 = 1184
$T52 = 1216
BymlBytes$GSCopy$ = 1248
ModelRace$ = 1256
UMiiByml$ = 1296
__$ArrayPad$ = 1520
this$ = 1616
BymlBytes$ = 1624
?dtor$25@?0???0UMii@@QEAA@V?$vector@EV?$allocator@E@std@@@std@@@Z@4HA PROC ; `UMii::UMii'::`1'::dtor$25
	lea	rcx, QWORD PTR ModelRace$[rdx]
	jmp	??1?$basic_string@DU?$char_traits@D@std@@V?$allocator@D@2@@std@@QEAA@XZ ; std::basic_string<char,std::char_traits<char>,std::allocator<char> >::~basic_string<char,std::char_traits<char>,std::allocator<char> >
?dtor$25@?0???0UMii@@QEAA@V?$vector@EV?$allocator@E@std@@@std@@@Z@4HA ENDP ; `UMii::UMii'::`1'::dtor$25
text$x	ENDS
; Function compile flags: /Ogtpy
;	COMDAT text$x
text$x	SEGMENT
$T1 = 64
$T2 = 72
$T3 = 72
$T4 = 72
$T5 = 72
$T6 = 104
$T7 = 104
$T8 = 104
$T9 = 104
$T10 = 104
$T11 = 104
$T12 = 104
$T13 = 136
$T14 = 136
$T15 = 168
$T16 = 200
$T17 = 232
$T18 = 264
$T19 = 296
ModelRace$3$ = 328
$T20 = 328
$T21 = 336
$T22 = 336
$T23 = 336
$T24 = 336
$T25 = 336
$T26 = 368
$T27 = 400
$T28 = 432
$T29 = 464
$T30 = 496
$T31 = 528
$T32 = 560
$T33 = 592
$T34 = 624
BymlBytes$GSCopy$1$ = 656
$T35 = 664
$T36 = 664
$T37 = 696
$T38 = 728
$T39 = 760
$T40 = 792
$T41 = 824
$T42 = 856
$T43 = 888
this$GSCopy$ = 928
$T44 = 944
$T45 = 992
$T46 = 1024
$T47 = 1056
$T48 = 1088
$T49 = 1120
$T50 = 1152
$T51 = 1184
$T52 = 1216
BymlBytes$GSCopy$ = 1248
ModelRace$ = 1256
UMiiByml$ = 1296
__$ArrayPad$ = 1520
this$ = 1616
BymlBytes$ = 1624
?dtor$26@?0???0UMii@@QEAA@V?$vector@EV?$allocator@E@std@@@std@@@Z@4HA PROC ; `UMii::UMii'::`1'::dtor$26
	lea	rcx, QWORD PTR $T6[rdx]
	jmp	??1?$basic_string@DU?$char_traits@D@std@@V?$allocator@D@2@@std@@QEAA@XZ ; std::basic_string<char,std::char_traits<char>,std::allocator<char> >::~basic_string<char,std::char_traits<char>,std::allocator<char> >
?dtor$26@?0???0UMii@@QEAA@V?$vector@EV?$allocator@E@std@@@std@@@Z@4HA ENDP ; `UMii::UMii'::`1'::dtor$26
text$x	ENDS
; Function compile flags: /Ogtpy
;	COMDAT text$x
text$x	SEGMENT
$T1 = 64
$T2 = 72
$T3 = 72
$T4 = 72
$T5 = 72
$T6 = 104
$T7 = 104
$T8 = 104
$T9 = 104
$T10 = 104
$T11 = 104
$T12 = 104
$T13 = 136
$T14 = 136
$T15 = 168
$T16 = 200
$T17 = 232
$T18 = 264
$T19 = 296
ModelRace$3$ = 328
$T20 = 328
$T21 = 336
$T22 = 336
$T23 = 336
$T24 = 336
$T25 = 336
$T26 = 368
$T27 = 400
$T28 = 432
$T29 = 464
$T30 = 496
$T31 = 528
$T32 = 560
$T33 = 592
$T34 = 624
BymlBytes$GSCopy$1$ = 656
$T35 = 664
$T36 = 664
$T37 = 696
$T38 = 728
$T39 = 760
$T40 = 792
$T41 = 824
$T42 = 856
$T43 = 888
this$GSCopy$ = 928
$T44 = 944
$T45 = 992
$T46 = 1024
$T47 = 1056
$T48 = 1088
$T49 = 1120
$T50 = 1152
$T51 = 1184
$T52 = 1216
BymlBytes$GSCopy$ = 1248
ModelRace$ = 1256
UMiiByml$ = 1296
__$ArrayPad$ = 1520
this$ = 1616
BymlBytes$ = 1624
?dtor$27@?0???0UMii@@QEAA@V?$vector@EV?$allocator@E@std@@@std@@@Z@4HA PROC ; `UMii::UMii'::`1'::dtor$27
	lea	rcx, QWORD PTR $T35[rdx]
	jmp	??1?$basic_string@DU?$char_traits@D@std@@V?$allocator@D@2@@std@@QEAA@XZ ; std::basic_string<char,std::char_traits<char>,std::allocator<char> >::~basic_string<char,std::char_traits<char>,std::allocator<char> >
?dtor$27@?0???0UMii@@QEAA@V?$vector@EV?$allocator@E@std@@@std@@@Z@4HA ENDP ; `UMii::UMii'::`1'::dtor$27
text$x	ENDS
; Function compile flags: /Ogtpy
;	COMDAT text$x
text$x	SEGMENT
$T1 = 64
$T2 = 72
$T3 = 72
$T4 = 72
$T5 = 72
$T6 = 104
$T7 = 104
$T8 = 104
$T9 = 104
$T10 = 104
$T11 = 104
$T12 = 104
$T13 = 136
$T14 = 136
$T15 = 168
$T16 = 200
$T17 = 232
$T18 = 264
$T19 = 296
ModelRace$3$ = 328
$T20 = 328
$T21 = 336
$T22 = 336
$T23 = 336
$T24 = 336
$T25 = 336
$T26 = 368
$T27 = 400
$T28 = 432
$T29 = 464
$T30 = 496
$T31 = 528
$T32 = 560
$T33 = 592
$T34 = 624
BymlBytes$GSCopy$1$ = 656
$T35 = 664
$T36 = 664
$T37 = 696
$T38 = 728
$T39 = 760
$T40 = 792
$T41 = 824
$T42 = 856
$T43 = 888
this$GSCopy$ = 928
$T44 = 944
$T45 = 992
$T46 = 1024
$T47 = 1056
$T48 = 1088
$T49 = 1120
$T50 = 1152
$T51 = 1184
$T52 = 1216
BymlBytes$GSCopy$ = 1248
ModelRace$ = 1256
UMiiByml$ = 1296
__$ArrayPad$ = 1520
this$ = 1616
BymlBytes$ = 1624
?dtor$28@?0???0UMii@@QEAA@V?$vector@EV?$allocator@E@std@@@std@@@Z@4HA PROC ; `UMii::UMii'::`1'::dtor$28
	lea	rcx, QWORD PTR $T43[rdx]
	jmp	??1?$basic_string@DU?$char_traits@D@std@@V?$allocator@D@2@@std@@QEAA@XZ ; std::basic_string<char,std::char_traits<char>,std::allocator<char> >::~basic_string<char,std::char_traits<char>,std::allocator<char> >
?dtor$28@?0???0UMii@@QEAA@V?$vector@EV?$allocator@E@std@@@std@@@Z@4HA ENDP ; `UMii::UMii'::`1'::dtor$28
text$x	ENDS
; Function compile flags: /Ogtpy
;	COMDAT text$x
text$x	SEGMENT
$T1 = 64
$T2 = 72
$T3 = 72
$T4 = 72
$T5 = 72
$T6 = 104
$T7 = 104
$T8 = 104
$T9 = 104
$T10 = 104
$T11 = 104
$T12 = 104
$T13 = 136
$T14 = 136
$T15 = 168
$T16 = 200
$T17 = 232
$T18 = 264
$T19 = 296
ModelRace$3$ = 328
$T20 = 328
$T21 = 336
$T22 = 336
$T23 = 336
$T24 = 336
$T25 = 336
$T26 = 368
$T27 = 400
$T28 = 432
$T29 = 464
$T30 = 496
$T31 = 528
$T32 = 560
$T33 = 592
$T34 = 624
BymlBytes$GSCopy$1$ = 656
$T35 = 664
$T36 = 664
$T37 = 696
$T38 = 728
$T39 = 760
$T40 = 792
$T41 = 824
$T42 = 856
$T43 = 888
this$GSCopy$ = 928
$T44 = 944
$T45 = 992
$T46 = 1024
$T47 = 1056
$T48 = 1088
$T49 = 1120
$T50 = 1152
$T51 = 1184
$T52 = 1216
BymlBytes$GSCopy$ = 1248
ModelRace$ = 1256
UMiiByml$ = 1296
__$ArrayPad$ = 1520
this$ = 1616
BymlBytes$ = 1624
?dtor$29@?0???0UMii@@QEAA@V?$vector@EV?$allocator@E@std@@@std@@@Z@4HA PROC ; `UMii::UMii'::`1'::dtor$29
	lea	rcx, QWORD PTR $T42[rdx]
	jmp	??1?$basic_string@DU?$char_traits@D@std@@V?$allocator@D@2@@std@@QEAA@XZ ; std::basic_string<char,std::char_traits<char>,std::allocator<char> >::~basic_string<char,std::char_traits<char>,std::allocator<char> >
?dtor$29@?0???0UMii@@QEAA@V?$vector@EV?$allocator@E@std@@@std@@@Z@4HA ENDP ; `UMii::UMii'::`1'::dtor$29
text$x	ENDS
; Function compile flags: /Ogtpy
;	COMDAT text$x
text$x	SEGMENT
$T1 = 64
$T2 = 72
$T3 = 72
$T4 = 72
$T5 = 72
$T6 = 104
$T7 = 104
$T8 = 104
$T9 = 104
$T10 = 104
$T11 = 104
$T12 = 104
$T13 = 136
$T14 = 136
$T15 = 168
$T16 = 200
$T17 = 232
$T18 = 264
$T19 = 296
ModelRace$3$ = 328
$T20 = 328
$T21 = 336
$T22 = 336
$T23 = 336
$T24 = 336
$T25 = 336
$T26 = 368
$T27 = 400
$T28 = 432
$T29 = 464
$T30 = 496
$T31 = 528
$T32 = 560
$T33 = 592
$T34 = 624
BymlBytes$GSCopy$1$ = 656
$T35 = 664
$T36 = 664
$T37 = 696
$T38 = 728
$T39 = 760
$T40 = 792
$T41 = 824
$T42 = 856
$T43 = 888
this$GSCopy$ = 928
$T44 = 944
$T45 = 992
$T46 = 1024
$T47 = 1056
$T48 = 1088
$T49 = 1120
$T50 = 1152
$T51 = 1184
$T52 = 1216
BymlBytes$GSCopy$ = 1248
ModelRace$ = 1256
UMiiByml$ = 1296
__$ArrayPad$ = 1520
this$ = 1616
BymlBytes$ = 1624
?dtor$30@?0???0UMii@@QEAA@V?$vector@EV?$allocator@E@std@@@std@@@Z@4HA PROC ; `UMii::UMii'::`1'::dtor$30
	lea	rcx, QWORD PTR $T41[rdx]
	jmp	??1?$basic_string@DU?$char_traits@D@std@@V?$allocator@D@2@@std@@QEAA@XZ ; std::basic_string<char,std::char_traits<char>,std::allocator<char> >::~basic_string<char,std::char_traits<char>,std::allocator<char> >
?dtor$30@?0???0UMii@@QEAA@V?$vector@EV?$allocator@E@std@@@std@@@Z@4HA ENDP ; `UMii::UMii'::`1'::dtor$30
text$x	ENDS
; Function compile flags: /Ogtpy
;	COMDAT text$x
text$x	SEGMENT
$T1 = 64
$T2 = 72
$T3 = 72
$T4 = 72
$T5 = 72
$T6 = 104
$T7 = 104
$T8 = 104
$T9 = 104
$T10 = 104
$T11 = 104
$T12 = 104
$T13 = 136
$T14 = 136
$T15 = 168
$T16 = 200
$T17 = 232
$T18 = 264
$T19 = 296
ModelRace$3$ = 328
$T20 = 328
$T21 = 336
$T22 = 336
$T23 = 336
$T24 = 336
$T25 = 336
$T26 = 368
$T27 = 400
$T28 = 432
$T29 = 464
$T30 = 496
$T31 = 528
$T32 = 560
$T33 = 592
$T34 = 624
BymlBytes$GSCopy$1$ = 656
$T35 = 664
$T36 = 664
$T37 = 696
$T38 = 728
$T39 = 760
$T40 = 792
$T41 = 824
$T42 = 856
$T43 = 888
this$GSCopy$ = 928
$T44 = 944
$T45 = 992
$T46 = 1024
$T47 = 1056
$T48 = 1088
$T49 = 1120
$T50 = 1152
$T51 = 1184
$T52 = 1216
BymlBytes$GSCopy$ = 1248
ModelRace$ = 1256
UMiiByml$ = 1296
__$ArrayPad$ = 1520
this$ = 1616
BymlBytes$ = 1624
?dtor$31@?0???0UMii@@QEAA@V?$vector@EV?$allocator@E@std@@@std@@@Z@4HA PROC ; `UMii::UMii'::`1'::dtor$31
	lea	rcx, QWORD PTR $T40[rdx]
	jmp	??1?$basic_string@DU?$char_traits@D@std@@V?$allocator@D@2@@std@@QEAA@XZ ; std::basic_string<char,std::char_traits<char>,std::allocator<char> >::~basic_string<char,std::char_traits<char>,std::allocator<char> >
?dtor$31@?0???0UMii@@QEAA@V?$vector@EV?$allocator@E@std@@@std@@@Z@4HA ENDP ; `UMii::UMii'::`1'::dtor$31
text$x	ENDS
; Function compile flags: /Ogtpy
;	COMDAT text$x
text$x	SEGMENT
$T1 = 64
$T2 = 72
$T3 = 72
$T4 = 72
$T5 = 72
$T6 = 104
$T7 = 104
$T8 = 104
$T9 = 104
$T10 = 104
$T11 = 104
$T12 = 104
$T13 = 136
$T14 = 136
$T15 = 168
$T16 = 200
$T17 = 232
$T18 = 264
$T19 = 296
ModelRace$3$ = 328
$T20 = 328
$T21 = 336
$T22 = 336
$T23 = 336
$T24 = 336
$T25 = 336
$T26 = 368
$T27 = 400
$T28 = 432
$T29 = 464
$T30 = 496
$T31 = 528
$T32 = 560
$T33 = 592
$T34 = 624
BymlBytes$GSCopy$1$ = 656
$T35 = 664
$T36 = 664
$T37 = 696
$T38 = 728
$T39 = 760
$T40 = 792
$T41 = 824
$T42 = 856
$T43 = 888
this$GSCopy$ = 928
$T44 = 944
$T45 = 992
$T46 = 1024
$T47 = 1056
$T48 = 1088
$T49 = 1120
$T50 = 1152
$T51 = 1184
$T52 = 1216
BymlBytes$GSCopy$ = 1248
ModelRace$ = 1256
UMiiByml$ = 1296
__$ArrayPad$ = 1520
this$ = 1616
BymlBytes$ = 1624
?dtor$32@?0???0UMii@@QEAA@V?$vector@EV?$allocator@E@std@@@std@@@Z@4HA PROC ; `UMii::UMii'::`1'::dtor$32
	lea	rcx, QWORD PTR $T39[rdx]
	jmp	??1?$basic_string@DU?$char_traits@D@std@@V?$allocator@D@2@@std@@QEAA@XZ ; std::basic_string<char,std::char_traits<char>,std::allocator<char> >::~basic_string<char,std::char_traits<char>,std::allocator<char> >
?dtor$32@?0???0UMii@@QEAA@V?$vector@EV?$allocator@E@std@@@std@@@Z@4HA ENDP ; `UMii::UMii'::`1'::dtor$32
text$x	ENDS
; Function compile flags: /Ogtpy
;	COMDAT text$x
text$x	SEGMENT
$T1 = 64
$T2 = 72
$T3 = 72
$T4 = 72
$T5 = 72
$T6 = 104
$T7 = 104
$T8 = 104
$T9 = 104
$T10 = 104
$T11 = 104
$T12 = 104
$T13 = 136
$T14 = 136
$T15 = 168
$T16 = 200
$T17 = 232
$T18 = 264
$T19 = 296
ModelRace$3$ = 328
$T20 = 328
$T21 = 336
$T22 = 336
$T23 = 336
$T24 = 336
$T25 = 336
$T26 = 368
$T27 = 400
$T28 = 432
$T29 = 464
$T30 = 496
$T31 = 528
$T32 = 560
$T33 = 592
$T34 = 624
BymlBytes$GSCopy$1$ = 656
$T35 = 664
$T36 = 664
$T37 = 696
$T38 = 728
$T39 = 760
$T40 = 792
$T41 = 824
$T42 = 856
$T43 = 888
this$GSCopy$ = 928
$T44 = 944
$T45 = 992
$T46 = 1024
$T47 = 1056
$T48 = 1088
$T49 = 1120
$T50 = 1152
$T51 = 1184
$T52 = 1216
BymlBytes$GSCopy$ = 1248
ModelRace$ = 1256
UMiiByml$ = 1296
__$ArrayPad$ = 1520
this$ = 1616
BymlBytes$ = 1624
?dtor$33@?0???0UMii@@QEAA@V?$vector@EV?$allocator@E@std@@@std@@@Z@4HA PROC ; `UMii::UMii'::`1'::dtor$33
	lea	rcx, QWORD PTR $T38[rdx]
	jmp	??1?$basic_string@DU?$char_traits@D@std@@V?$allocator@D@2@@std@@QEAA@XZ ; std::basic_string<char,std::char_traits<char>,std::allocator<char> >::~basic_string<char,std::char_traits<char>,std::allocator<char> >
?dtor$33@?0???0UMii@@QEAA@V?$vector@EV?$allocator@E@std@@@std@@@Z@4HA ENDP ; `UMii::UMii'::`1'::dtor$33
text$x	ENDS
; Function compile flags: /Ogtpy
;	COMDAT text$x
text$x	SEGMENT
$T1 = 64
$T2 = 72
$T3 = 72
$T4 = 72
$T5 = 72
$T6 = 104
$T7 = 104
$T8 = 104
$T9 = 104
$T10 = 104
$T11 = 104
$T12 = 104
$T13 = 136
$T14 = 136
$T15 = 168
$T16 = 200
$T17 = 232
$T18 = 264
$T19 = 296
ModelRace$3$ = 328
$T20 = 328
$T21 = 336
$T22 = 336
$T23 = 336
$T24 = 336
$T25 = 336
$T26 = 368
$T27 = 400
$T28 = 432
$T29 = 464
$T30 = 496
$T31 = 528
$T32 = 560
$T33 = 592
$T34 = 624
BymlBytes$GSCopy$1$ = 656
$T35 = 664
$T36 = 664
$T37 = 696
$T38 = 728
$T39 = 760
$T40 = 792
$T41 = 824
$T42 = 856
$T43 = 888
this$GSCopy$ = 928
$T44 = 944
$T45 = 992
$T46 = 1024
$T47 = 1056
$T48 = 1088
$T49 = 1120
$T50 = 1152
$T51 = 1184
$T52 = 1216
BymlBytes$GSCopy$ = 1248
ModelRace$ = 1256
UMiiByml$ = 1296
__$ArrayPad$ = 1520
this$ = 1616
BymlBytes$ = 1624
?dtor$34@?0???0UMii@@QEAA@V?$vector@EV?$allocator@E@std@@@std@@@Z@4HA PROC ; `UMii::UMii'::`1'::dtor$34
	lea	rcx, QWORD PTR $T37[rdx]
	jmp	??1?$basic_string@DU?$char_traits@D@std@@V?$allocator@D@2@@std@@QEAA@XZ ; std::basic_string<char,std::char_traits<char>,std::allocator<char> >::~basic_string<char,std::char_traits<char>,std::allocator<char> >
?dtor$34@?0???0UMii@@QEAA@V?$vector@EV?$allocator@E@std@@@std@@@Z@4HA ENDP ; `UMii::UMii'::`1'::dtor$34
text$x	ENDS
; Function compile flags: /Ogtpy
;	COMDAT text$x
text$x	SEGMENT
$T1 = 64
$T2 = 72
$T3 = 72
$T4 = 72
$T5 = 72
$T6 = 104
$T7 = 104
$T8 = 104
$T9 = 104
$T10 = 104
$T11 = 104
$T12 = 104
$T13 = 136
$T14 = 136
$T15 = 168
$T16 = 200
$T17 = 232
$T18 = 264
$T19 = 296
ModelRace$3$ = 328
$T20 = 328
$T21 = 336
$T22 = 336
$T23 = 336
$T24 = 336
$T25 = 336
$T26 = 368
$T27 = 400
$T28 = 432
$T29 = 464
$T30 = 496
$T31 = 528
$T32 = 560
$T33 = 592
$T34 = 624
BymlBytes$GSCopy$1$ = 656
$T35 = 664
$T36 = 664
$T37 = 696
$T38 = 728
$T39 = 760
$T40 = 792
$T41 = 824
$T42 = 856
$T43 = 888
this$GSCopy$ = 928
$T44 = 944
$T45 = 992
$T46 = 1024
$T47 = 1056
$T48 = 1088
$T49 = 1120
$T50 = 1152
$T51 = 1184
$T52 = 1216
BymlBytes$GSCopy$ = 1248
ModelRace$ = 1256
UMiiByml$ = 1296
__$ArrayPad$ = 1520
this$ = 1616
BymlBytes$ = 1624
?dtor$35@?0???0UMii@@QEAA@V?$vector@EV?$allocator@E@std@@@std@@@Z@4HA PROC ; `UMii::UMii'::`1'::dtor$35
	lea	rcx, QWORD PTR $T21[rdx]
	jmp	??1?$basic_string@DU?$char_traits@D@std@@V?$allocator@D@2@@std@@QEAA@XZ ; std::basic_string<char,std::char_traits<char>,std::allocator<char> >::~basic_string<char,std::char_traits<char>,std::allocator<char> >
?dtor$35@?0???0UMii@@QEAA@V?$vector@EV?$allocator@E@std@@@std@@@Z@4HA ENDP ; `UMii::UMii'::`1'::dtor$35
text$x	ENDS
; Function compile flags: /Ogtpy
;	COMDAT text$x
text$x	SEGMENT
$T1 = 64
$T2 = 72
$T3 = 72
$T4 = 72
$T5 = 72
$T6 = 104
$T7 = 104
$T8 = 104
$T9 = 104
$T10 = 104
$T11 = 104
$T12 = 104
$T13 = 136
$T14 = 136
$T15 = 168
$T16 = 200
$T17 = 232
$T18 = 264
$T19 = 296
ModelRace$3$ = 328
$T20 = 328
$T21 = 336
$T22 = 336
$T23 = 336
$T24 = 336
$T25 = 336
$T26 = 368
$T27 = 400
$T28 = 432
$T29 = 464
$T30 = 496
$T31 = 528
$T32 = 560
$T33 = 592
$T34 = 624
BymlBytes$GSCopy$1$ = 656
$T35 = 664
$T36 = 664
$T37 = 696
$T38 = 728
$T39 = 760
$T40 = 792
$T41 = 824
$T42 = 856
$T43 = 888
this$GSCopy$ = 928
$T44 = 944
$T45 = 992
$T46 = 1024
$T47 = 1056
$T48 = 1088
$T49 = 1120
$T50 = 1152
$T51 = 1184
$T52 = 1216
BymlBytes$GSCopy$ = 1248
ModelRace$ = 1256
UMiiByml$ = 1296
__$ArrayPad$ = 1520
this$ = 1616
BymlBytes$ = 1624
?dtor$36@?0???0UMii@@QEAA@V?$vector@EV?$allocator@E@std@@@std@@@Z@4HA PROC ; `UMii::UMii'::`1'::dtor$36
	lea	rcx, QWORD PTR $T52[rdx]
	jmp	??1?$basic_string@DU?$char_traits@D@std@@V?$allocator@D@2@@std@@QEAA@XZ ; std::basic_string<char,std::char_traits<char>,std::allocator<char> >::~basic_string<char,std::char_traits<char>,std::allocator<char> >
?dtor$36@?0???0UMii@@QEAA@V?$vector@EV?$allocator@E@std@@@std@@@Z@4HA ENDP ; `UMii::UMii'::`1'::dtor$36
text$x	ENDS
; Function compile flags: /Ogtpy
;	COMDAT text$x
text$x	SEGMENT
$T1 = 64
$T2 = 72
$T3 = 72
$T4 = 72
$T5 = 72
$T6 = 104
$T7 = 104
$T8 = 104
$T9 = 104
$T10 = 104
$T11 = 104
$T12 = 104
$T13 = 136
$T14 = 136
$T15 = 168
$T16 = 200
$T17 = 232
$T18 = 264
$T19 = 296
ModelRace$3$ = 328
$T20 = 328
$T21 = 336
$T22 = 336
$T23 = 336
$T24 = 336
$T25 = 336
$T26 = 368
$T27 = 400
$T28 = 432
$T29 = 464
$T30 = 496
$T31 = 528
$T32 = 560
$T33 = 592
$T34 = 624
BymlBytes$GSCopy$1$ = 656
$T35 = 664
$T36 = 664
$T37 = 696
$T38 = 728
$T39 = 760
$T40 = 792
$T41 = 824
$T42 = 856
$T43 = 888
this$GSCopy$ = 928
$T44 = 944
$T45 = 992
$T46 = 1024
$T47 = 1056
$T48 = 1088
$T49 = 1120
$T50 = 1152
$T51 = 1184
$T52 = 1216
BymlBytes$GSCopy$ = 1248
ModelRace$ = 1256
UMiiByml$ = 1296
__$ArrayPad$ = 1520
this$ = 1616
BymlBytes$ = 1624
?dtor$37@?0???0UMii@@QEAA@V?$vector@EV?$allocator@E@std@@@std@@@Z@4HA PROC ; `UMii::UMii'::`1'::dtor$37
	lea	rcx, QWORD PTR $T51[rdx]
	jmp	??1?$basic_string@DU?$char_traits@D@std@@V?$allocator@D@2@@std@@QEAA@XZ ; std::basic_string<char,std::char_traits<char>,std::allocator<char> >::~basic_string<char,std::char_traits<char>,std::allocator<char> >
?dtor$37@?0???0UMii@@QEAA@V?$vector@EV?$allocator@E@std@@@std@@@Z@4HA ENDP ; `UMii::UMii'::`1'::dtor$37
text$x	ENDS
; Function compile flags: /Ogtpy
;	COMDAT text$x
text$x	SEGMENT
$T1 = 64
$T2 = 72
$T3 = 72
$T4 = 72
$T5 = 72
$T6 = 104
$T7 = 104
$T8 = 104
$T9 = 104
$T10 = 104
$T11 = 104
$T12 = 104
$T13 = 136
$T14 = 136
$T15 = 168
$T16 = 200
$T17 = 232
$T18 = 264
$T19 = 296
ModelRace$3$ = 328
$T20 = 328
$T21 = 336
$T22 = 336
$T23 = 336
$T24 = 336
$T25 = 336
$T26 = 368
$T27 = 400
$T28 = 432
$T29 = 464
$T30 = 496
$T31 = 528
$T32 = 560
$T33 = 592
$T34 = 624
BymlBytes$GSCopy$1$ = 656
$T35 = 664
$T36 = 664
$T37 = 696
$T38 = 728
$T39 = 760
$T40 = 792
$T41 = 824
$T42 = 856
$T43 = 888
this$GSCopy$ = 928
$T44 = 944
$T45 = 992
$T46 = 1024
$T47 = 1056
$T48 = 1088
$T49 = 1120
$T50 = 1152
$T51 = 1184
$T52 = 1216
BymlBytes$GSCopy$ = 1248
ModelRace$ = 1256
UMiiByml$ = 1296
__$ArrayPad$ = 1520
this$ = 1616
BymlBytes$ = 1624
?dtor$38@?0???0UMii@@QEAA@V?$vector@EV?$allocator@E@std@@@std@@@Z@4HA PROC ; `UMii::UMii'::`1'::dtor$38
	lea	rcx, QWORD PTR $T50[rdx]
	jmp	??1?$basic_string@DU?$char_traits@D@std@@V?$allocator@D@2@@std@@QEAA@XZ ; std::basic_string<char,std::char_traits<char>,std::allocator<char> >::~basic_string<char,std::char_traits<char>,std::allocator<char> >
?dtor$38@?0???0UMii@@QEAA@V?$vector@EV?$allocator@E@std@@@std@@@Z@4HA ENDP ; `UMii::UMii'::`1'::dtor$38
text$x	ENDS
; Function compile flags: /Ogtpy
;	COMDAT text$x
text$x	SEGMENT
$T1 = 64
$T2 = 72
$T3 = 72
$T4 = 72
$T5 = 72
$T6 = 104
$T7 = 104
$T8 = 104
$T9 = 104
$T10 = 104
$T11 = 104
$T12 = 104
$T13 = 136
$T14 = 136
$T15 = 168
$T16 = 200
$T17 = 232
$T18 = 264
$T19 = 296
ModelRace$3$ = 328
$T20 = 328
$T21 = 336
$T22 = 336
$T23 = 336
$T24 = 336
$T25 = 336
$T26 = 368
$T27 = 400
$T28 = 432
$T29 = 464
$T30 = 496
$T31 = 528
$T32 = 560
$T33 = 592
$T34 = 624
BymlBytes$GSCopy$1$ = 656
$T35 = 664
$T36 = 664
$T37 = 696
$T38 = 728
$T39 = 760
$T40 = 792
$T41 = 824
$T42 = 856
$T43 = 888
this$GSCopy$ = 928
$T44 = 944
$T45 = 992
$T46 = 1024
$T47 = 1056
$T48 = 1088
$T49 = 1120
$T50 = 1152
$T51 = 1184
$T52 = 1216
BymlBytes$GSCopy$ = 1248
ModelRace$ = 1256
UMiiByml$ = 1296
__$ArrayPad$ = 1520
this$ = 1616
BymlBytes$ = 1624
?dtor$39@?0???0UMii@@QEAA@V?$vector@EV?$allocator@E@std@@@std@@@Z@4HA PROC ; `UMii::UMii'::`1'::dtor$39
	lea	rcx, QWORD PTR $T49[rdx]
	jmp	??1?$basic_string@DU?$char_traits@D@std@@V?$allocator@D@2@@std@@QEAA@XZ ; std::basic_string<char,std::char_traits<char>,std::allocator<char> >::~basic_string<char,std::char_traits<char>,std::allocator<char> >
?dtor$39@?0???0UMii@@QEAA@V?$vector@EV?$allocator@E@std@@@std@@@Z@4HA ENDP ; `UMii::UMii'::`1'::dtor$39
text$x	ENDS
; Function compile flags: /Ogtpy
;	COMDAT text$x
text$x	SEGMENT
$T1 = 64
$T2 = 72
$T3 = 72
$T4 = 72
$T5 = 72
$T6 = 104
$T7 = 104
$T8 = 104
$T9 = 104
$T10 = 104
$T11 = 104
$T12 = 104
$T13 = 136
$T14 = 136
$T15 = 168
$T16 = 200
$T17 = 232
$T18 = 264
$T19 = 296
ModelRace$3$ = 328
$T20 = 328
$T21 = 336
$T22 = 336
$T23 = 336
$T24 = 336
$T25 = 336
$T26 = 368
$T27 = 400
$T28 = 432
$T29 = 464
$T30 = 496
$T31 = 528
$T32 = 560
$T33 = 592
$T34 = 624
BymlBytes$GSCopy$1$ = 656
$T35 = 664
$T36 = 664
$T37 = 696
$T38 = 728
$T39 = 760
$T40 = 792
$T41 = 824
$T42 = 856
$T43 = 888
this$GSCopy$ = 928
$T44 = 944
$T45 = 992
$T46 = 1024
$T47 = 1056
$T48 = 1088
$T49 = 1120
$T50 = 1152
$T51 = 1184
$T52 = 1216
BymlBytes$GSCopy$ = 1248
ModelRace$ = 1256
UMiiByml$ = 1296
__$ArrayPad$ = 1520
this$ = 1616
BymlBytes$ = 1624
?dtor$40@?0???0UMii@@QEAA@V?$vector@EV?$allocator@E@std@@@std@@@Z@4HA PROC ; `UMii::UMii'::`1'::dtor$40
	lea	rcx, QWORD PTR $T48[rdx]
	jmp	??1?$basic_string@DU?$char_traits@D@std@@V?$allocator@D@2@@std@@QEAA@XZ ; std::basic_string<char,std::char_traits<char>,std::allocator<char> >::~basic_string<char,std::char_traits<char>,std::allocator<char> >
?dtor$40@?0???0UMii@@QEAA@V?$vector@EV?$allocator@E@std@@@std@@@Z@4HA ENDP ; `UMii::UMii'::`1'::dtor$40
text$x	ENDS
; Function compile flags: /Ogtpy
;	COMDAT text$x
text$x	SEGMENT
$T1 = 64
$T2 = 72
$T3 = 72
$T4 = 72
$T5 = 72
$T6 = 104
$T7 = 104
$T8 = 104
$T9 = 104
$T10 = 104
$T11 = 104
$T12 = 104
$T13 = 136
$T14 = 136
$T15 = 168
$T16 = 200
$T17 = 232
$T18 = 264
$T19 = 296
ModelRace$3$ = 328
$T20 = 328
$T21 = 336
$T22 = 336
$T23 = 336
$T24 = 336
$T25 = 336
$T26 = 368
$T27 = 400
$T28 = 432
$T29 = 464
$T30 = 496
$T31 = 528
$T32 = 560
$T33 = 592
$T34 = 624
BymlBytes$GSCopy$1$ = 656
$T35 = 664
$T36 = 664
$T37 = 696
$T38 = 728
$T39 = 760
$T40 = 792
$T41 = 824
$T42 = 856
$T43 = 888
this$GSCopy$ = 928
$T44 = 944
$T45 = 992
$T46 = 1024
$T47 = 1056
$T48 = 1088
$T49 = 1120
$T50 = 1152
$T51 = 1184
$T52 = 1216
BymlBytes$GSCopy$ = 1248
ModelRace$ = 1256
UMiiByml$ = 1296
__$ArrayPad$ = 1520
this$ = 1616
BymlBytes$ = 1624
?dtor$42@?0???0UMii@@QEAA@V?$vector@EV?$allocator@E@std@@@std@@@Z@4HA PROC ; `UMii::UMii'::`1'::dtor$42
	lea	rcx, QWORD PTR $T19[rdx]
	jmp	??1?$basic_string@DU?$char_traits@D@std@@V?$allocator@D@2@@std@@QEAA@XZ ; std::basic_string<char,std::char_traits<char>,std::allocator<char> >::~basic_string<char,std::char_traits<char>,std::allocator<char> >
?dtor$42@?0???0UMii@@QEAA@V?$vector@EV?$allocator@E@std@@@std@@@Z@4HA ENDP ; `UMii::UMii'::`1'::dtor$42
text$x	ENDS
; Function compile flags: /Ogtpy
;	COMDAT text$x
text$x	SEGMENT
$T1 = 64
$T2 = 72
$T3 = 72
$T4 = 72
$T5 = 72
$T6 = 104
$T7 = 104
$T8 = 104
$T9 = 104
$T10 = 104
$T11 = 104
$T12 = 104
$T13 = 136
$T14 = 136
$T15 = 168
$T16 = 200
$T17 = 232
$T18 = 264
$T19 = 296
ModelRace$3$ = 328
$T20 = 328
$T21 = 336
$T22 = 336
$T23 = 336
$T24 = 336
$T25 = 336
$T26 = 368
$T27 = 400
$T28 = 432
$T29 = 464
$T30 = 496
$T31 = 528
$T32 = 560
$T33 = 592
$T34 = 624
BymlBytes$GSCopy$1$ = 656
$T35 = 664
$T36 = 664
$T37 = 696
$T38 = 728
$T39 = 760
$T40 = 792
$T41 = 824
$T42 = 856
$T43 = 888
this$GSCopy$ = 928
$T44 = 944
$T45 = 992
$T46 = 1024
$T47 = 1056
$T48 = 1088
$T49 = 1120
$T50 = 1152
$T51 = 1184
$T52 = 1216
BymlBytes$GSCopy$ = 1248
ModelRace$ = 1256
UMiiByml$ = 1296
__$ArrayPad$ = 1520
this$ = 1616
BymlBytes$ = 1624
?dtor$43@?0???0UMii@@QEAA@V?$vector@EV?$allocator@E@std@@@std@@@Z@4HA PROC ; `UMii::UMii'::`1'::dtor$43
	lea	rcx, QWORD PTR $T27[rdx]
	jmp	??1?$basic_string@DU?$char_traits@D@std@@V?$allocator@D@2@@std@@QEAA@XZ ; std::basic_string<char,std::char_traits<char>,std::allocator<char> >::~basic_string<char,std::char_traits<char>,std::allocator<char> >
?dtor$43@?0???0UMii@@QEAA@V?$vector@EV?$allocator@E@std@@@std@@@Z@4HA ENDP ; `UMii::UMii'::`1'::dtor$43
text$x	ENDS
; Function compile flags: /Ogtpy
;	COMDAT text$x
text$x	SEGMENT
$T1 = 64
$T2 = 72
$T3 = 72
$T4 = 72
$T5 = 72
$T6 = 104
$T7 = 104
$T8 = 104
$T9 = 104
$T10 = 104
$T11 = 104
$T12 = 104
$T13 = 136
$T14 = 136
$T15 = 168
$T16 = 200
$T17 = 232
$T18 = 264
$T19 = 296
ModelRace$3$ = 328
$T20 = 328
$T21 = 336
$T22 = 336
$T23 = 336
$T24 = 336
$T25 = 336
$T26 = 368
$T27 = 400
$T28 = 432
$T29 = 464
$T30 = 496
$T31 = 528
$T32 = 560
$T33 = 592
$T34 = 624
BymlBytes$GSCopy$1$ = 656
$T35 = 664
$T36 = 664
$T37 = 696
$T38 = 728
$T39 = 760
$T40 = 792
$T41 = 824
$T42 = 856
$T43 = 888
this$GSCopy$ = 928
$T44 = 944
$T45 = 992
$T46 = 1024
$T47 = 1056
$T48 = 1088
$T49 = 1120
$T50 = 1152
$T51 = 1184
$T52 = 1216
BymlBytes$GSCopy$ = 1248
ModelRace$ = 1256
UMiiByml$ = 1296
__$ArrayPad$ = 1520
this$ = 1616
BymlBytes$ = 1624
?dtor$44@?0???0UMii@@QEAA@V?$vector@EV?$allocator@E@std@@@std@@@Z@4HA PROC ; `UMii::UMii'::`1'::dtor$44
	lea	rcx, QWORD PTR $T18[rdx]
	jmp	??1?$basic_string@DU?$char_traits@D@std@@V?$allocator@D@2@@std@@QEAA@XZ ; std::basic_string<char,std::char_traits<char>,std::allocator<char> >::~basic_string<char,std::char_traits<char>,std::allocator<char> >
?dtor$44@?0???0UMii@@QEAA@V?$vector@EV?$allocator@E@std@@@std@@@Z@4HA ENDP ; `UMii::UMii'::`1'::dtor$44
text$x	ENDS
; Function compile flags: /Ogtpy
;	COMDAT text$x
text$x	SEGMENT
$T1 = 64
$T2 = 72
$T3 = 72
$T4 = 72
$T5 = 72
$T6 = 104
$T7 = 104
$T8 = 104
$T9 = 104
$T10 = 104
$T11 = 104
$T12 = 104
$T13 = 136
$T14 = 136
$T15 = 168
$T16 = 200
$T17 = 232
$T18 = 264
$T19 = 296
ModelRace$3$ = 328
$T20 = 328
$T21 = 336
$T22 = 336
$T23 = 336
$T24 = 336
$T25 = 336
$T26 = 368
$T27 = 400
$T28 = 432
$T29 = 464
$T30 = 496
$T31 = 528
$T32 = 560
$T33 = 592
$T34 = 624
BymlBytes$GSCopy$1$ = 656
$T35 = 664
$T36 = 664
$T37 = 696
$T38 = 728
$T39 = 760
$T40 = 792
$T41 = 824
$T42 = 856
$T43 = 888
this$GSCopy$ = 928
$T44 = 944
$T45 = 992
$T46 = 1024
$T47 = 1056
$T48 = 1088
$T49 = 1120
$T50 = 1152
$T51 = 1184
$T52 = 1216
BymlBytes$GSCopy$ = 1248
ModelRace$ = 1256
UMiiByml$ = 1296
__$ArrayPad$ = 1520
this$ = 1616
BymlBytes$ = 1624
?dtor$45@?0???0UMii@@QEAA@V?$vector@EV?$allocator@E@std@@@std@@@Z@4HA PROC ; `UMii::UMii'::`1'::dtor$45
	lea	rcx, QWORD PTR $T26[rdx]
	jmp	??1?$basic_string@DU?$char_traits@D@std@@V?$allocator@D@2@@std@@QEAA@XZ ; std::basic_string<char,std::char_traits<char>,std::allocator<char> >::~basic_string<char,std::char_traits<char>,std::allocator<char> >
?dtor$45@?0???0UMii@@QEAA@V?$vector@EV?$allocator@E@std@@@std@@@Z@4HA ENDP ; `UMii::UMii'::`1'::dtor$45
text$x	ENDS
; Function compile flags: /Ogtpy
;	COMDAT text$x
text$x	SEGMENT
$T1 = 64
$T2 = 72
$T3 = 72
$T4 = 72
$T5 = 72
$T6 = 104
$T7 = 104
$T8 = 104
$T9 = 104
$T10 = 104
$T11 = 104
$T12 = 104
$T13 = 136
$T14 = 136
$T15 = 168
$T16 = 200
$T17 = 232
$T18 = 264
$T19 = 296
ModelRace$3$ = 328
$T20 = 328
$T21 = 336
$T22 = 336
$T23 = 336
$T24 = 336
$T25 = 336
$T26 = 368
$T27 = 400
$T28 = 432
$T29 = 464
$T30 = 496
$T31 = 528
$T32 = 560
$T33 = 592
$T34 = 624
BymlBytes$GSCopy$1$ = 656
$T35 = 664
$T36 = 664
$T37 = 696
$T38 = 728
$T39 = 760
$T40 = 792
$T41 = 824
$T42 = 856
$T43 = 888
this$GSCopy$ = 928
$T44 = 944
$T45 = 992
$T46 = 1024
$T47 = 1056
$T48 = 1088
$T49 = 1120
$T50 = 1152
$T51 = 1184
$T52 = 1216
BymlBytes$GSCopy$ = 1248
ModelRace$ = 1256
UMiiByml$ = 1296
__$ArrayPad$ = 1520
this$ = 1616
BymlBytes$ = 1624
?dtor$46@?0???0UMii@@QEAA@V?$vector@EV?$allocator@E@std@@@std@@@Z@4HA PROC ; `UMii::UMii'::`1'::dtor$46
	lea	rcx, QWORD PTR $T17[rdx]
	jmp	??1?$basic_string@DU?$char_traits@D@std@@V?$allocator@D@2@@std@@QEAA@XZ ; std::basic_string<char,std::char_traits<char>,std::allocator<char> >::~basic_string<char,std::char_traits<char>,std::allocator<char> >
?dtor$46@?0???0UMii@@QEAA@V?$vector@EV?$allocator@E@std@@@std@@@Z@4HA ENDP ; `UMii::UMii'::`1'::dtor$46
text$x	ENDS
; Function compile flags: /Ogtpy
;	COMDAT text$x
text$x	SEGMENT
$T1 = 64
$T2 = 72
$T3 = 72
$T4 = 72
$T5 = 72
$T6 = 104
$T7 = 104
$T8 = 104
$T9 = 104
$T10 = 104
$T11 = 104
$T12 = 104
$T13 = 136
$T14 = 136
$T15 = 168
$T16 = 200
$T17 = 232
$T18 = 264
$T19 = 296
ModelRace$3$ = 328
$T20 = 328
$T21 = 336
$T22 = 336
$T23 = 336
$T24 = 336
$T25 = 336
$T26 = 368
$T27 = 400
$T28 = 432
$T29 = 464
$T30 = 496
$T31 = 528
$T32 = 560
$T33 = 592
$T34 = 624
BymlBytes$GSCopy$1$ = 656
$T35 = 664
$T36 = 664
$T37 = 696
$T38 = 728
$T39 = 760
$T40 = 792
$T41 = 824
$T42 = 856
$T43 = 888
this$GSCopy$ = 928
$T44 = 944
$T45 = 992
$T46 = 1024
$T47 = 1056
$T48 = 1088
$T49 = 1120
$T50 = 1152
$T51 = 1184
$T52 = 1216
BymlBytes$GSCopy$ = 1248
ModelRace$ = 1256
UMiiByml$ = 1296
__$ArrayPad$ = 1520
this$ = 1616
BymlBytes$ = 1624
?dtor$47@?0???0UMii@@QEAA@V?$vector@EV?$allocator@E@std@@@std@@@Z@4HA PROC ; `UMii::UMii'::`1'::dtor$47
	lea	rcx, QWORD PTR $T34[rdx]
	jmp	??1?$basic_string@DU?$char_traits@D@std@@V?$allocator@D@2@@std@@QEAA@XZ ; std::basic_string<char,std::char_traits<char>,std::allocator<char> >::~basic_string<char,std::char_traits<char>,std::allocator<char> >
?dtor$47@?0???0UMii@@QEAA@V?$vector@EV?$allocator@E@std@@@std@@@Z@4HA ENDP ; `UMii::UMii'::`1'::dtor$47
text$x	ENDS
; Function compile flags: /Ogtpy
;	COMDAT text$x
text$x	SEGMENT
$T1 = 64
$T2 = 72
$T3 = 72
$T4 = 72
$T5 = 72
$T6 = 104
$T7 = 104
$T8 = 104
$T9 = 104
$T10 = 104
$T11 = 104
$T12 = 104
$T13 = 136
$T14 = 136
$T15 = 168
$T16 = 200
$T17 = 232
$T18 = 264
$T19 = 296
ModelRace$3$ = 328
$T20 = 328
$T21 = 336
$T22 = 336
$T23 = 336
$T24 = 336
$T25 = 336
$T26 = 368
$T27 = 400
$T28 = 432
$T29 = 464
$T30 = 496
$T31 = 528
$T32 = 560
$T33 = 592
$T34 = 624
BymlBytes$GSCopy$1$ = 656
$T35 = 664
$T36 = 664
$T37 = 696
$T38 = 728
$T39 = 760
$T40 = 792
$T41 = 824
$T42 = 856
$T43 = 888
this$GSCopy$ = 928
$T44 = 944
$T45 = 992
$T46 = 1024
$T47 = 1056
$T48 = 1088
$T49 = 1120
$T50 = 1152
$T51 = 1184
$T52 = 1216
BymlBytes$GSCopy$ = 1248
ModelRace$ = 1256
UMiiByml$ = 1296
__$ArrayPad$ = 1520
this$ = 1616
BymlBytes$ = 1624
?dtor$48@?0???0UMii@@QEAA@V?$vector@EV?$allocator@E@std@@@std@@@Z@4HA PROC ; `UMii::UMii'::`1'::dtor$48
	lea	rcx, QWORD PTR $T16[rdx]
	jmp	??1?$basic_string@DU?$char_traits@D@std@@V?$allocator@D@2@@std@@QEAA@XZ ; std::basic_string<char,std::char_traits<char>,std::allocator<char> >::~basic_string<char,std::char_traits<char>,std::allocator<char> >
?dtor$48@?0???0UMii@@QEAA@V?$vector@EV?$allocator@E@std@@@std@@@Z@4HA ENDP ; `UMii::UMii'::`1'::dtor$48
text$x	ENDS
; Function compile flags: /Ogtpy
;	COMDAT text$x
text$x	SEGMENT
$T1 = 64
$T2 = 72
$T3 = 72
$T4 = 72
$T5 = 72
$T6 = 104
$T7 = 104
$T8 = 104
$T9 = 104
$T10 = 104
$T11 = 104
$T12 = 104
$T13 = 136
$T14 = 136
$T15 = 168
$T16 = 200
$T17 = 232
$T18 = 264
$T19 = 296
ModelRace$3$ = 328
$T20 = 328
$T21 = 336
$T22 = 336
$T23 = 336
$T24 = 336
$T25 = 336
$T26 = 368
$T27 = 400
$T28 = 432
$T29 = 464
$T30 = 496
$T31 = 528
$T32 = 560
$T33 = 592
$T34 = 624
BymlBytes$GSCopy$1$ = 656
$T35 = 664
$T36 = 664
$T37 = 696
$T38 = 728
$T39 = 760
$T40 = 792
$T41 = 824
$T42 = 856
$T43 = 888
this$GSCopy$ = 928
$T44 = 944
$T45 = 992
$T46 = 1024
$T47 = 1056
$T48 = 1088
$T49 = 1120
$T50 = 1152
$T51 = 1184
$T52 = 1216
BymlBytes$GSCopy$ = 1248
ModelRace$ = 1256
UMiiByml$ = 1296
__$ArrayPad$ = 1520
this$ = 1616
BymlBytes$ = 1624
?dtor$49@?0???0UMii@@QEAA@V?$vector@EV?$allocator@E@std@@@std@@@Z@4HA PROC ; `UMii::UMii'::`1'::dtor$49
	lea	rcx, QWORD PTR $T15[rdx]
	jmp	??1?$basic_string@DU?$char_traits@D@std@@V?$allocator@D@2@@std@@QEAA@XZ ; std::basic_string<char,std::char_traits<char>,std::allocator<char> >::~basic_string<char,std::char_traits<char>,std::allocator<char> >
?dtor$49@?0???0UMii@@QEAA@V?$vector@EV?$allocator@E@std@@@std@@@Z@4HA ENDP ; `UMii::UMii'::`1'::dtor$49
text$x	ENDS
; Function compile flags: /Ogtpy
;	COMDAT text$x
text$x	SEGMENT
$T1 = 64
$T2 = 72
$T3 = 72
$T4 = 72
$T5 = 72
$T6 = 104
$T7 = 104
$T8 = 104
$T9 = 104
$T10 = 104
$T11 = 104
$T12 = 104
$T13 = 136
$T14 = 136
$T15 = 168
$T16 = 200
$T17 = 232
$T18 = 264
$T19 = 296
ModelRace$3$ = 328
$T20 = 328
$T21 = 336
$T22 = 336
$T23 = 336
$T24 = 336
$T25 = 336
$T26 = 368
$T27 = 400
$T28 = 432
$T29 = 464
$T30 = 496
$T31 = 528
$T32 = 560
$T33 = 592
$T34 = 624
BymlBytes$GSCopy$1$ = 656
$T35 = 664
$T36 = 664
$T37 = 696
$T38 = 728
$T39 = 760
$T40 = 792
$T41 = 824
$T42 = 856
$T43 = 888
this$GSCopy$ = 928
$T44 = 944
$T45 = 992
$T46 = 1024
$T47 = 1056
$T48 = 1088
$T49 = 1120
$T50 = 1152
$T51 = 1184
$T52 = 1216
BymlBytes$GSCopy$ = 1248
ModelRace$ = 1256
UMiiByml$ = 1296
__$ArrayPad$ = 1520
this$ = 1616
BymlBytes$ = 1624
?dtor$50@?0???0UMii@@QEAA@V?$vector@EV?$allocator@E@std@@@std@@@Z@4HA PROC ; `UMii::UMii'::`1'::dtor$50
	lea	rcx, QWORD PTR $T33[rdx]
	jmp	??1?$basic_string@DU?$char_traits@D@std@@V?$allocator@D@2@@std@@QEAA@XZ ; std::basic_string<char,std::char_traits<char>,std::allocator<char> >::~basic_string<char,std::char_traits<char>,std::allocator<char> >
?dtor$50@?0???0UMii@@QEAA@V?$vector@EV?$allocator@E@std@@@std@@@Z@4HA ENDP ; `UMii::UMii'::`1'::dtor$50
text$x	ENDS
; Function compile flags: /Ogtpy
;	COMDAT text$x
text$x	SEGMENT
$T1 = 64
$T2 = 72
$T3 = 72
$T4 = 72
$T5 = 72
$T6 = 104
$T7 = 104
$T8 = 104
$T9 = 104
$T10 = 104
$T11 = 104
$T12 = 104
$T13 = 136
$T14 = 136
$T15 = 168
$T16 = 200
$T17 = 232
$T18 = 264
$T19 = 296
ModelRace$3$ = 328
$T20 = 328
$T21 = 336
$T22 = 336
$T23 = 336
$T24 = 336
$T25 = 336
$T26 = 368
$T27 = 400
$T28 = 432
$T29 = 464
$T30 = 496
$T31 = 528
$T32 = 560
$T33 = 592
$T34 = 624
BymlBytes$GSCopy$1$ = 656
$T35 = 664
$T36 = 664
$T37 = 696
$T38 = 728
$T39 = 760
$T40 = 792
$T41 = 824
$T42 = 856
$T43 = 888
this$GSCopy$ = 928
$T44 = 944
$T45 = 992
$T46 = 1024
$T47 = 1056
$T48 = 1088
$T49 = 1120
$T50 = 1152
$T51 = 1184
$T52 = 1216
BymlBytes$GSCopy$ = 1248
ModelRace$ = 1256
UMiiByml$ = 1296
__$ArrayPad$ = 1520
this$ = 1616
BymlBytes$ = 1624
?dtor$51@?0???0UMii@@QEAA@V?$vector@EV?$allocator@E@std@@@std@@@Z@4HA PROC ; `UMii::UMii'::`1'::dtor$51
	lea	rcx, QWORD PTR $T13[rdx]
	jmp	??1?$basic_string@DU?$char_traits@D@std@@V?$allocator@D@2@@std@@QEAA@XZ ; std::basic_string<char,std::char_traits<char>,std::allocator<char> >::~basic_string<char,std::char_traits<char>,std::allocator<char> >
?dtor$51@?0???0UMii@@QEAA@V?$vector@EV?$allocator@E@std@@@std@@@Z@4HA ENDP ; `UMii::UMii'::`1'::dtor$51
text$x	ENDS
; Function compile flags: /Ogtpy
;	COMDAT text$x
text$x	SEGMENT
$T1 = 64
$T2 = 72
$T3 = 72
$T4 = 72
$T5 = 72
$T6 = 104
$T7 = 104
$T8 = 104
$T9 = 104
$T10 = 104
$T11 = 104
$T12 = 104
$T13 = 136
$T14 = 136
$T15 = 168
$T16 = 200
$T17 = 232
$T18 = 264
$T19 = 296
ModelRace$3$ = 328
$T20 = 328
$T21 = 336
$T22 = 336
$T23 = 336
$T24 = 336
$T25 = 336
$T26 = 368
$T27 = 400
$T28 = 432
$T29 = 464
$T30 = 496
$T31 = 528
$T32 = 560
$T33 = 592
$T34 = 624
BymlBytes$GSCopy$1$ = 656
$T35 = 664
$T36 = 664
$T37 = 696
$T38 = 728
$T39 = 760
$T40 = 792
$T41 = 824
$T42 = 856
$T43 = 888
this$GSCopy$ = 928
$T44 = 944
$T45 = 992
$T46 = 1024
$T47 = 1056
$T48 = 1088
$T49 = 1120
$T50 = 1152
$T51 = 1184
$T52 = 1216
BymlBytes$GSCopy$ = 1248
ModelRace$ = 1256
UMiiByml$ = 1296
__$ArrayPad$ = 1520
this$ = 1616
BymlBytes$ = 1624
?dtor$52@?0???0UMii@@QEAA@V?$vector@EV?$allocator@E@std@@@std@@@Z@4HA PROC ; `UMii::UMii'::`1'::dtor$52
	lea	rcx, QWORD PTR $T32[rdx]
	jmp	??1?$basic_string@DU?$char_traits@D@std@@V?$allocator@D@2@@std@@QEAA@XZ ; std::basic_string<char,std::char_traits<char>,std::allocator<char> >::~basic_string<char,std::char_traits<char>,std::allocator<char> >
?dtor$52@?0???0UMii@@QEAA@V?$vector@EV?$allocator@E@std@@@std@@@Z@4HA ENDP ; `UMii::UMii'::`1'::dtor$52
text$x	ENDS
; Function compile flags: /Ogtpy
;	COMDAT text$x
text$x	SEGMENT
$T1 = 64
$T2 = 72
$T3 = 72
$T4 = 72
$T5 = 72
$T6 = 104
$T7 = 104
$T8 = 104
$T9 = 104
$T10 = 104
$T11 = 104
$T12 = 104
$T13 = 136
$T14 = 136
$T15 = 168
$T16 = 200
$T17 = 232
$T18 = 264
$T19 = 296
ModelRace$3$ = 328
$T20 = 328
$T21 = 336
$T22 = 336
$T23 = 336
$T24 = 336
$T25 = 336
$T26 = 368
$T27 = 400
$T28 = 432
$T29 = 464
$T30 = 496
$T31 = 528
$T32 = 560
$T33 = 592
$T34 = 624
BymlBytes$GSCopy$1$ = 656
$T35 = 664
$T36 = 664
$T37 = 696
$T38 = 728
$T39 = 760
$T40 = 792
$T41 = 824
$T42 = 856
$T43 = 888
this$GSCopy$ = 928
$T44 = 944
$T45 = 992
$T46 = 1024
$T47 = 1056
$T48 = 1088
$T49 = 1120
$T50 = 1152
$T51 = 1184
$T52 = 1216
BymlBytes$GSCopy$ = 1248
ModelRace$ = 1256
UMiiByml$ = 1296
__$ArrayPad$ = 1520
this$ = 1616
BymlBytes$ = 1624
?dtor$53@?0???0UMii@@QEAA@V?$vector@EV?$allocator@E@std@@@std@@@Z@4HA PROC ; `UMii::UMii'::`1'::dtor$53
	lea	rcx, QWORD PTR $T31[rdx]
	jmp	??1?$basic_string@DU?$char_traits@D@std@@V?$allocator@D@2@@std@@QEAA@XZ ; std::basic_string<char,std::char_traits<char>,std::allocator<char> >::~basic_string<char,std::char_traits<char>,std::allocator<char> >
?dtor$53@?0???0UMii@@QEAA@V?$vector@EV?$allocator@E@std@@@std@@@Z@4HA ENDP ; `UMii::UMii'::`1'::dtor$53
text$x	ENDS
; Function compile flags: /Ogtpy
;	COMDAT text$x
text$x	SEGMENT
$T1 = 64
$T2 = 72
$T3 = 72
$T4 = 72
$T5 = 72
$T6 = 104
$T7 = 104
$T8 = 104
$T9 = 104
$T10 = 104
$T11 = 104
$T12 = 104
$T13 = 136
$T14 = 136
$T15 = 168
$T16 = 200
$T17 = 232
$T18 = 264
$T19 = 296
ModelRace$3$ = 328
$T20 = 328
$T21 = 336
$T22 = 336
$T23 = 336
$T24 = 336
$T25 = 336
$T26 = 368
$T27 = 400
$T28 = 432
$T29 = 464
$T30 = 496
$T31 = 528
$T32 = 560
$T33 = 592
$T34 = 624
BymlBytes$GSCopy$1$ = 656
$T35 = 664
$T36 = 664
$T37 = 696
$T38 = 728
$T39 = 760
$T40 = 792
$T41 = 824
$T42 = 856
$T43 = 888
this$GSCopy$ = 928
$T44 = 944
$T45 = 992
$T46 = 1024
$T47 = 1056
$T48 = 1088
$T49 = 1120
$T50 = 1152
$T51 = 1184
$T52 = 1216
BymlBytes$GSCopy$ = 1248
ModelRace$ = 1256
UMiiByml$ = 1296
__$ArrayPad$ = 1520
this$ = 1616
BymlBytes$ = 1624
?dtor$54@?0???0UMii@@QEAA@V?$vector@EV?$allocator@E@std@@@std@@@Z@4HA PROC ; `UMii::UMii'::`1'::dtor$54
	lea	rcx, QWORD PTR $T30[rdx]
	jmp	??1?$basic_string@DU?$char_traits@D@std@@V?$allocator@D@2@@std@@QEAA@XZ ; std::basic_string<char,std::char_traits<char>,std::allocator<char> >::~basic_string<char,std::char_traits<char>,std::allocator<char> >
?dtor$54@?0???0UMii@@QEAA@V?$vector@EV?$allocator@E@std@@@std@@@Z@4HA ENDP ; `UMii::UMii'::`1'::dtor$54
text$x	ENDS
; Function compile flags: /Ogtpy
;	COMDAT text$x
text$x	SEGMENT
$T1 = 64
$T2 = 72
$T3 = 72
$T4 = 72
$T5 = 72
$T6 = 104
$T7 = 104
$T8 = 104
$T9 = 104
$T10 = 104
$T11 = 104
$T12 = 104
$T13 = 136
$T14 = 136
$T15 = 168
$T16 = 200
$T17 = 232
$T18 = 264
$T19 = 296
ModelRace$3$ = 328
$T20 = 328
$T21 = 336
$T22 = 336
$T23 = 336
$T24 = 336
$T25 = 336
$T26 = 368
$T27 = 400
$T28 = 432
$T29 = 464
$T30 = 496
$T31 = 528
$T32 = 560
$T33 = 592
$T34 = 624
BymlBytes$GSCopy$1$ = 656
$T35 = 664
$T36 = 664
$T37 = 696
$T38 = 728
$T39 = 760
$T40 = 792
$T41 = 824
$T42 = 856
$T43 = 888
this$GSCopy$ = 928
$T44 = 944
$T45 = 992
$T46 = 1024
$T47 = 1056
$T48 = 1088
$T49 = 1120
$T50 = 1152
$T51 = 1184
$T52 = 1216
BymlBytes$GSCopy$ = 1248
ModelRace$ = 1256
UMiiByml$ = 1296
__$ArrayPad$ = 1520
this$ = 1616
BymlBytes$ = 1624
?dtor$55@?0???0UMii@@QEAA@V?$vector@EV?$allocator@E@std@@@std@@@Z@4HA PROC ; `UMii::UMii'::`1'::dtor$55
	lea	rcx, QWORD PTR $T29[rdx]
	jmp	??1?$basic_string@DU?$char_traits@D@std@@V?$allocator@D@2@@std@@QEAA@XZ ; std::basic_string<char,std::char_traits<char>,std::allocator<char> >::~basic_string<char,std::char_traits<char>,std::allocator<char> >
?dtor$55@?0???0UMii@@QEAA@V?$vector@EV?$allocator@E@std@@@std@@@Z@4HA ENDP ; `UMii::UMii'::`1'::dtor$55
text$x	ENDS
; Function compile flags: /Ogtpy
;	COMDAT text$x
text$x	SEGMENT
$T1 = 64
$T2 = 72
$T3 = 72
$T4 = 72
$T5 = 72
$T6 = 104
$T7 = 104
$T8 = 104
$T9 = 104
$T10 = 104
$T11 = 104
$T12 = 104
$T13 = 136
$T14 = 136
$T15 = 168
$T16 = 200
$T17 = 232
$T18 = 264
$T19 = 296
ModelRace$3$ = 328
$T20 = 328
$T21 = 336
$T22 = 336
$T23 = 336
$T24 = 336
$T25 = 336
$T26 = 368
$T27 = 400
$T28 = 432
$T29 = 464
$T30 = 496
$T31 = 528
$T32 = 560
$T33 = 592
$T34 = 624
BymlBytes$GSCopy$1$ = 656
$T35 = 664
$T36 = 664
$T37 = 696
$T38 = 728
$T39 = 760
$T40 = 792
$T41 = 824
$T42 = 856
$T43 = 888
this$GSCopy$ = 928
$T44 = 944
$T45 = 992
$T46 = 1024
$T47 = 1056
$T48 = 1088
$T49 = 1120
$T50 = 1152
$T51 = 1184
$T52 = 1216
BymlBytes$GSCopy$ = 1248
ModelRace$ = 1256
UMiiByml$ = 1296
__$ArrayPad$ = 1520
this$ = 1616
BymlBytes$ = 1624
?dtor$56@?0???0UMii@@QEAA@V?$vector@EV?$allocator@E@std@@@std@@@Z@4HA PROC ; `UMii::UMii'::`1'::dtor$56
	lea	rcx, QWORD PTR $T28[rdx]
	jmp	??1?$basic_string@DU?$char_traits@D@std@@V?$allocator@D@2@@std@@QEAA@XZ ; std::basic_string<char,std::char_traits<char>,std::allocator<char> >::~basic_string<char,std::char_traits<char>,std::allocator<char> >
?dtor$56@?0???0UMii@@QEAA@V?$vector@EV?$allocator@E@std@@@std@@@Z@4HA ENDP ; `UMii::UMii'::`1'::dtor$56
text$x	ENDS
; Function compile flags: /Ogtpy
;	COMDAT text$x
text$x	SEGMENT
$T1 = 64
$T2 = 72
$T3 = 72
$T4 = 72
$T5 = 72
$T6 = 104
$T7 = 104
$T8 = 104
$T9 = 104
$T10 = 104
$T11 = 104
$T12 = 104
$T13 = 136
$T14 = 136
$T15 = 168
$T16 = 200
$T17 = 232
$T18 = 264
$T19 = 296
ModelRace$3$ = 328
$T20 = 328
$T21 = 336
$T22 = 336
$T23 = 336
$T24 = 336
$T25 = 336
$T26 = 368
$T27 = 400
$T28 = 432
$T29 = 464
$T30 = 496
$T31 = 528
$T32 = 560
$T33 = 592
$T34 = 624
BymlBytes$GSCopy$1$ = 656
$T35 = 664
$T36 = 664
$T37 = 696
$T38 = 728
$T39 = 760
$T40 = 792
$T41 = 824
$T42 = 856
$T43 = 888
this$GSCopy$ = 928
$T44 = 944
$T45 = 992
$T46 = 1024
$T47 = 1056
$T48 = 1088
$T49 = 1120
$T50 = 1152
$T51 = 1184
$T52 = 1216
BymlBytes$GSCopy$ = 1248
ModelRace$ = 1256
UMiiByml$ = 1296
__$ArrayPad$ = 1520
this$ = 1616
BymlBytes$ = 1624
?dtor$57@?0???0UMii@@QEAA@V?$vector@EV?$allocator@E@std@@@std@@@Z@4HA PROC ; `UMii::UMii'::`1'::dtor$57
	lea	rcx, QWORD PTR $T2[rdx]
	jmp	??1?$basic_string@DU?$char_traits@D@std@@V?$allocator@D@2@@std@@QEAA@XZ ; std::basic_string<char,std::char_traits<char>,std::allocator<char> >::~basic_string<char,std::char_traits<char>,std::allocator<char> >
?dtor$57@?0???0UMii@@QEAA@V?$vector@EV?$allocator@E@std@@@std@@@Z@4HA ENDP ; `UMii::UMii'::`1'::dtor$57
text$x	ENDS
; Function compile flags: /Ogtpy
; File H:\Paul\switchemulator\Zelda TotK\MapEditorV4\OldVersion\MapEditor\UMii.cpp
; File H:\Paul\switchemulator\Zelda TotK\MapEditorV4\OldVersion\MapEditor\Libraries\include\glm\detail\type_vec3.inl
; File H:\Paul\switchemulator\Zelda TotK\MapEditorV4\OldVersion\MapEditor\UMii.cpp
; File H:\Paul\switchemulator\Zelda TotK\MapEditorV4\OldVersion\MapEditor\Vector3F.cpp
; File H:\Paul\switchemulator\Zelda TotK\MapEditorV4\OldVersion\MapEditor\UMii.cpp
; File H:\Paul\switchemulator\Zelda TotK\MapEditorV4\OldVersion\MapEditor\Vector3F.cpp
; File H:\Paul\switchemulator\Zelda TotK\MapEditorV4\OldVersion\MapEditor\Libraries\include\glm\detail\type_vec3.inl
; File H:\Paul\switchemulator\Zelda TotK\MapEditorV4\OldVersion\MapEditor\Vector3F.cpp
; File H:\Paul\switchemulator\Zelda TotK\MapEditorV4\OldVersion\MapEditor\Libraries\include\glm\detail\type_vec3.inl
; File C:\Program Files\Microsoft Visual Studio\2022\Community\VC\Tools\MSVC\14.37.32822\include\vector
; File H:\Paul\switchemulator\Zelda TotK\MapEditorV4\OldVersion\MapEditor\UMii.cpp
; File C:\Program Files\Microsoft Visual Studio\2022\Community\VC\Tools\MSVC\14.37.32822\include\xstring
; File H:\Paul\switchemulator\Zelda TotK\MapEditorV4\OldVersion\MapEditor\UMii.cpp
; File C:\Program Files\Microsoft Visual Studio\2022\Community\VC\Tools\MSVC\14.37.32822\include\vector
; File H:\Paul\switchemulator\Zelda TotK\MapEditorV4\OldVersion\MapEditor\UMii.cpp
; File H:\Paul\switchemulator\Zelda TotK\MapEditorV4\OldVersion\MapEditor\Libraries\include\glm\detail\type_vec4.inl
; File H:\Paul\switchemulator\Zelda TotK\MapEditorV4\OldVersion\MapEditor\UMii.cpp
; File H:\Paul\switchemulator\Zelda TotK\MapEditorV4\OldVersion\MapEditor\Libraries\include\glm\detail\type_vec4.inl
; File H:\Paul\switchemulator\Zelda TotK\MapEditorV4\OldVersion\MapEditor\UMii.cpp
; File H:\Paul\switchemulator\Zelda TotK\MapEditorV4\OldVersion\MapEditor\Libraries\include\glm\detail\type_vec4.inl
; File H:\Paul\switchemulator\Zelda TotK\MapEditorV4\OldVersion\MapEditor\Libraries\include\glm\ext\matrix_transform.inl
; File H:\Paul\switchemulator\Zelda TotK\MapEditorV4\OldVersion\MapEditor\Libraries\include\glm\detail\type_vec4.inl
; File H:\Paul\switchemulator\Zelda TotK\MapEditorV4\OldVersion\MapEditor\UMii.cpp
; File H:\Paul\switchemulator\Zelda TotK\MapEditorV4\OldVersion\MapEditor\Libraries\include\glm\detail\type_vec4.inl
; File H:\Paul\switchemulator\Zelda TotK\MapEditorV4\OldVersion\MapEditor\UMii.cpp
; File H:\Paul\switchemulator\Zelda TotK\MapEditorV4\OldVersion\MapEditor\Libraries\include\glm\detail\type_vec4.inl
; File H:\Paul\switchemulator\Zelda TotK\MapEditorV4\OldVersion\MapEditor\UMii.cpp
; File H:\Paul\switchemulator\Zelda TotK\MapEditorV4\OldVersion\MapEditor\Libraries\include\glm\detail\type_vec4.inl
; File H:\Paul\switchemulator\Zelda TotK\MapEditorV4\OldVersion\MapEditor\Libraries\include\glm\ext\matrix_transform.inl
; File H:\Paul\switchemulator\Zelda TotK\MapEditorV4\OldVersion\MapEditor\UMii.cpp
; File H:\Paul\switchemulator\Zelda TotK\MapEditorV4\OldVersion\MapEditor\Libraries\include\glm\detail\type_vec4.inl
; File H:\Paul\switchemulator\Zelda TotK\MapEditorV4\OldVersion\MapEditor\UMii.cpp
; File H:\Paul\switchemulator\Zelda TotK\MapEditorV4\OldVersion\MapEditor\Libraries\include\glm\detail\type_vec4.inl
; File H:\Paul\switchemulator\Zelda TotK\MapEditorV4\OldVersion\MapEditor\UMii.cpp
; File H:\Paul\switchemulator\Zelda TotK\MapEditorV4\OldVersion\MapEditor\Libraries\include\glm\detail\type_vec4.inl
; File H:\Paul\switchemulator\Zelda TotK\MapEditorV4\OldVersion\MapEditor\UMii.cpp
; File H:\Paul\switchemulator\Zelda TotK\MapEditorV4\OldVersion\MapEditor\Libraries\include\glm\detail\type_vec4.inl
; File H:\Paul\switchemulator\Zelda TotK\MapEditorV4\OldVersion\MapEditor\UMii.cpp
; File H:\Paul\switchemulator\Zelda TotK\MapEditorV4\OldVersion\MapEditor\Libraries\include\glm\detail\type_vec4.inl
; File H:\Paul\switchemulator\Zelda TotK\MapEditorV4\OldVersion\MapEditor\UMii.cpp
; File H:\Paul\switchemulator\Zelda TotK\MapEditorV4\OldVersion\MapEditor\Libraries\include\glm\detail\type_vec4.inl
; File H:\Paul\switchemulator\Zelda TotK\MapEditorV4\OldVersion\MapEditor\Libraries\include\glm\ext\matrix_transform.inl
; File H:\Paul\switchemulator\Zelda TotK\MapEditorV4\OldVersion\MapEditor\Libraries\include\glm\detail\type_vec4.inl
; File H:\Paul\switchemulator\Zelda TotK\MapEditorV4\OldVersion\MapEditor\Libraries\include\glm\ext\matrix_transform.inl
; File H:\Paul\switchemulator\Zelda TotK\MapEditorV4\OldVersion\MapEditor\Libraries\include\glm\detail\type_vec4.inl
; File H:\Paul\switchemulator\Zelda TotK\MapEditorV4\OldVersion\MapEditor\Libraries\include\glm\ext\matrix_transform.inl
; File H:\Paul\switchemulator\Zelda TotK\MapEditorV4\OldVersion\MapEditor\Libraries\include\glm\detail\type_vec4.inl
; File H:\Paul\switchemulator\Zelda TotK\MapEditorV4\OldVersion\MapEditor\Libraries\include\glm\ext\matrix_transform.inl
; File H:\Paul\switchemulator\Zelda TotK\MapEditorV4\OldVersion\MapEditor\Libraries\include\glm\detail\type_vec4.inl
; File H:\Paul\switchemulator\Zelda TotK\MapEditorV4\OldVersion\MapEditor\Libraries\include\glm\ext\matrix_transform.inl
; File H:\Paul\switchemulator\Zelda TotK\MapEditorV4\OldVersion\MapEditor\UMii.cpp
; File H:\Paul\switchemulator\Zelda TotK\MapEditorV4\OldVersion\MapEditor\Libraries\include\glm\detail\type_vec4.inl
; File H:\Paul\switchemulator\Zelda TotK\MapEditorV4\OldVersion\MapEditor\Libraries\include\glm\ext\matrix_transform.inl
; File H:\Paul\switchemulator\Zelda TotK\MapEditorV4\OldVersion\MapEditor\Libraries\include\glm\detail\type_vec4.inl
; File H:\Paul\switchemulator\Zelda TotK\MapEditorV4\OldVersion\MapEditor\Libraries\include\glm\ext\matrix_transform.inl
; File H:\Paul\switchemulator\Zelda TotK\MapEditorV4\OldVersion\MapEditor\Libraries\include\glm\detail\type_vec4.inl
; File H:\Paul\switchemulator\Zelda TotK\MapEditorV4\OldVersion\MapEditor\Libraries\include\glm\ext\matrix_transform.inl
; File H:\Paul\switchemulator\Zelda TotK\MapEditorV4\OldVersion\MapEditor\Libraries\include\glm\detail\type_vec4.inl
; File H:\Paul\switchemulator\Zelda TotK\MapEditorV4\OldVersion\MapEditor\Libraries\include\glm\ext\matrix_transform.inl
; File H:\Paul\switchemulator\Zelda TotK\MapEditorV4\OldVersion\MapEditor\Libraries\include\glm\detail\type_vec4.inl
; File H:\Paul\switchemulator\Zelda TotK\MapEditorV4\OldVersion\MapEditor\Libraries\include\glm\ext\matrix_transform.inl
; File H:\Paul\switchemulator\Zelda TotK\MapEditorV4\OldVersion\MapEditor\Libraries\include\glm\detail\type_vec4.inl
; File H:\Paul\switchemulator\Zelda TotK\MapEditorV4\OldVersion\MapEditor\Libraries\include\glm\ext\matrix_transform.inl
; File H:\Paul\switchemulator\Zelda TotK\MapEditorV4\OldVersion\MapEditor\Libraries\include\glm\detail\type_vec4.inl
; File H:\Paul\switchemulator\Zelda TotK\MapEditorV4\OldVersion\MapEditor\Libraries\include\glm\ext\matrix_transform.inl
; File H:\Paul\switchemulator\Zelda TotK\MapEditorV4\OldVersion\MapEditor\Libraries\include\glm\detail\type_vec4.inl
; File H:\Paul\switchemulator\Zelda TotK\MapEditorV4\OldVersion\MapEditor\Libraries\include\glm\ext\matrix_transform.inl
; File H:\Paul\switchemulator\Zelda TotK\MapEditorV4\OldVersion\MapEditor\Libraries\include\glm\detail\type_vec4.inl
; File H:\Paul\switchemulator\Zelda TotK\MapEditorV4\OldVersion\MapEditor\Libraries\include\glm\ext\matrix_transform.inl
; File H:\Paul\switchemulator\Zelda TotK\MapEditorV4\OldVersion\MapEditor\UMii.cpp
; File H:\Paul\switchemulator\Zelda TotK\MapEditorV4\OldVersion\MapEditor\Libraries\include\glm\ext\matrix_transform.inl
; File H:\Paul\switchemulator\Zelda TotK\MapEditorV4\OldVersion\MapEditor\UMii.cpp
; File H:\Paul\switchemulator\Zelda TotK\MapEditorV4\OldVersion\MapEditor\Shader.cpp
; File H:\Paul\switchemulator\Zelda TotK\MapEditorV4\OldVersion\MapEditor\UMii.cpp
; File H:\Paul\switchemulator\Zelda TotK\MapEditorV4\OldVersion\MapEditor\Shader.cpp
; File H:\Paul\switchemulator\Zelda TotK\MapEditorV4\OldVersion\MapEditor\VAO.cpp
; File H:\Paul\switchemulator\Zelda TotK\MapEditorV4\OldVersion\MapEditor\Camera.cpp
; File H:\Paul\switchemulator\Zelda TotK\MapEditorV4\OldVersion\MapEditor\Mesh.cpp
; File C:\Program Files\Microsoft Visual Studio\2022\Community\VC\Tools\MSVC\14.37.32822\include\vector
; File H:\Paul\switchemulator\Zelda TotK\MapEditorV4\OldVersion\MapEditor\Mesh.cpp
; File C:\Program Files\Microsoft Visual Studio\2022\Community\VC\Tools\MSVC\14.37.32822\include\vector
; File H:\Paul\switchemulator\Zelda TotK\MapEditorV4\OldVersion\MapEditor\Mesh.cpp
; File H:\Paul\switchemulator\Zelda TotK\MapEditorV4\OldVersion\MapEditor\UMii.cpp
; File C:\Program Files\Microsoft Visual Studio\2022\Community\VC\Tools\MSVC\14.37.32822\include\vector
; File H:\Paul\switchemulator\Zelda TotK\MapEditorV4\OldVersion\MapEditor\UMii.cpp
; File C:\Program Files\Microsoft Visual Studio\2022\Community\VC\Tools\MSVC\14.37.32822\include\vector
; File H:\Paul\switchemulator\Zelda TotK\MapEditorV4\OldVersion\MapEditor\UMii.cpp
; File C:\Program Files\Microsoft Visual Studio\2022\Community\VC\Tools\MSVC\14.37.32822\include\vector
; File H:\Paul\switchemulator\Zelda TotK\MapEditorV4\OldVersion\MapEditor\UMii.cpp
; File C:\Program Files\Microsoft Visual Studio\2022\Community\VC\Tools\MSVC\14.37.32822\include\vector
; File H:\Paul\switchemulator\Zelda TotK\MapEditorV4\OldVersion\MapEditor\UMii.cpp
;	COMDAT ?Draw@UMii@@QEAAXVVector3F@@00PEAVShader@@_NPEAVCamera@@@Z
_TEXT	SEGMENT
$T1$sroa$2046$1$ = 48
$T3 = 52
$T4 = 64
$T5 = 76
CameraView$GSCopy$1$ = 88
Translate$1$ = 96
<end>$L0$1$ = 104
$T6 = 112
$T7 = 112
$T8 = 112
$T9 = 112
$T10 = 112
$T11 = 176
GLMModel$12 = 240
__$ArrayPad$ = 304
this$ = 544
Translate$ = 552
Rotate$ = 560
Scale$ = 568
Shader$ = 576
Picking$ = 584
CameraView$ = 592
?Draw@UMii@@QEAAXVVector3F@@00PEAVShader@@_NPEAVCamera@@@Z PROC ; UMii::Draw, COMDAT

; 89   : {

$LN370:
	mov	r11, rsp
	push	rbp
	push	rbx
	push	rsi
	push	r13
	push	r15
	lea	rbp, QWORD PTR [r11-280]
	sub	rsp, 496				; 000001f0H
	mov	rax, QWORD PTR __security_cookie
	xor	rax, rsp
	mov	QWORD PTR __$ArrayPad$[rbp-256], rax
	mov	rax, QWORD PTR CameraView$[rbp-256]
	mov	r13, r9

; 90   : 	for (UMii::ModelElement& Element : this->m_ModelElements)

	mov	r15, QWORD PTR [rcx+128]
	mov	rbx, rdx
	mov	rsi, QWORD PTR Shader$[rbp-256]
	mov	QWORD PTR CameraView$GSCopy$1$[rsp], rax
	mov	rax, QWORD PTR [rcx+136]
	mov	QWORD PTR Translate$1$[rsp], rdx
	mov	QWORD PTR <end>$L0$1$[rsp], rax
	cmp	r15, rax
	je	$LN9@Draw
; File H:\Paul\switchemulator\Zelda TotK\MapEditorV4\OldVersion\MapEditor\Libraries\include\glm\detail\type_vec3.inl

; 56   : 		, z(static_cast<T>(_z))

	movss	xmm0, DWORD PTR __real@3c8efa35

; 38   : 		: x(_x), y(_y), z(_z)

	xor	ecx, ecx
; File H:\Paul\switchemulator\Zelda TotK\MapEditorV4\OldVersion\MapEditor\UMii.cpp

; 90   : 	for (UMii::ModelElement& Element : this->m_ModelElements)

	mov	QWORD PTR [r11+16], rdi
	mov	QWORD PTR [r11-48], r12
	mov	QWORD PTR [r11-56], r14
	movaps	XMMWORD PTR [r11-72], xmm6
	movaps	XMMWORD PTR [r11-88], xmm7
	movaps	XMMWORD PTR [r11-104], xmm8
; File H:\Paul\switchemulator\Zelda TotK\MapEditorV4\OldVersion\MapEditor\Vector3F.cpp

; 30   : 	return this->m_Data[0];

	movss	xmm8, DWORD PTR [rdx]
; File H:\Paul\switchemulator\Zelda TotK\MapEditorV4\OldVersion\MapEditor\UMii.cpp

; 90   : 	for (UMii::ModelElement& Element : this->m_ModelElements)

	movaps	XMMWORD PTR [r11-120], xmm9
	movaps	XMMWORD PTR [r11-136], xmm10
	movss	xmm10, DWORD PTR [r8+8]
	movaps	XMMWORD PTR [r11-152], xmm11
	movss	xmm11, DWORD PTR [r8+4]
	movaps	XMMWORD PTR [r11-168], xmm12
	movss	xmm12, DWORD PTR [r8]
	movaps	XMMWORD PTR [r11-184], xmm13
	xorps	xmm13, xmm13
	movaps	XMMWORD PTR [r11-200], xmm14

; 101  : 		GLMModel = glm::translate(GLMModel, glm::vec3(Translate.GetX(), Translate.GetY(), Translate.GetZ()));

	movss	xmm14, DWORD PTR [rdx+8]
	movaps	xmm9, xmm14
	movaps	XMMWORD PTR [r11-216], xmm15
; File H:\Paul\switchemulator\Zelda TotK\MapEditorV4\OldVersion\MapEditor\Vector3F.cpp

; 30   : 	return this->m_Data[0];

	movss	xmm15, DWORD PTR [r9]
	mulss	xmm9, xmm13
; File H:\Paul\switchemulator\Zelda TotK\MapEditorV4\OldVersion\MapEditor\Libraries\include\glm\detail\type_vec3.inl

; 54   : 		: x(static_cast<T>(_x))

	mov	QWORD PTR $T3[rsp], 0
; File H:\Paul\switchemulator\Zelda TotK\MapEditorV4\OldVersion\MapEditor\Vector3F.cpp

; 30   : 	return this->m_Data[0];

	movss	DWORD PTR $T1$sroa$2046$1$[rsp], xmm8
; File H:\Paul\switchemulator\Zelda TotK\MapEditorV4\OldVersion\MapEditor\Libraries\include\glm\detail\type_vec3.inl

; 56   : 		, z(static_cast<T>(_z))

	mov	DWORD PTR $T3[rsp+8], 1065353216	; 3f800000H
	mulss	xmm10, xmm0

; 54   : 		: x(static_cast<T>(_x))

	mov	DWORD PTR $T4[rsp], 0

; 55   : 		, y(static_cast<T>(_y))

	mov	QWORD PTR $T4[rsp+4], 1065353216	; 3f800000H
	mulss	xmm11, xmm0

; 54   : 		: x(static_cast<T>(_x))

	mov	QWORD PTR $T5[rsp], 1065353216		; 3f800000H

; 56   : 		, z(static_cast<T>(_z))

	mov	DWORD PTR $T5[rsp+8], 0
	mulss	xmm12, xmm0
$LL4@Draw:
; File C:\Program Files\Microsoft Visual Studio\2022\Community\VC\Tools\MSVC\14.37.32822\include\vector

; 1863 :         auto& _My_data = _Mypair._Myval2;

	mov	rax, QWORD PTR [r15]

; 1864 :         return _My_data._Myfirst == _My_data._Mylast;

	mov	r14, QWORD PTR [rax]
	cmp	r14, QWORD PTR [rax+8]
; File H:\Paul\switchemulator\Zelda TotK\MapEditorV4\OldVersion\MapEditor\UMii.cpp

; 92   : 		if (Element.Model->GetModels().empty())

	jne	SHORT $LN14@Draw
	xorps	xmm0, xmm0
; File C:\Program Files\Microsoft Visual Studio\2022\Community\VC\Tools\MSVC\14.37.32822\include\xstring

; 2293 :     size_type _Mysize = 0; // current length of string

	mov	QWORD PTR $T10[rbp-240], rcx

; 2294 :     size_type _Myres  = 0; // current storage reserved for string

	mov	QWORD PTR $T10[rbp-232], rcx

; 2540 :         _Construct<_Construct_strategy::_From_ptr>(_Ptr, _Convert_size<size_type>(_Traits::length(_Ptr)));

	lea	rdx, OFFSET FLAT:??_C@_07MCAEODGB@Default@
	lea	rcx, QWORD PTR $T10[rsp]
	mov	r8d, 7

; 2284 :         _CONSTEXPR20 _Bxty() noexcept : _Buf() {} // user-provided, for fancy pointers

	movups	XMMWORD PTR $T10[rsp], xmm0

; 2540 :         _Construct<_Construct_strategy::_From_ptr>(_Ptr, _Convert_size<size_type>(_Traits::length(_Ptr)));

	call	??$_Construct@$00PEBD@?$basic_string@DU?$char_traits@D@std@@V?$allocator@D@2@@std@@AEAAXQEBD_K@Z ; std::basic_string<char,std::char_traits<char>,std::allocator<char> >::_Construct<1,char const *>
; File H:\Paul\switchemulator\Zelda TotK\MapEditorV4\OldVersion\MapEditor\UMii.cpp

; 94   : 			Element.Model = BfresLibrary::GetModel("Default");

	lea	rcx, QWORD PTR $T10[rsp]
	call	?GetModel@BfresLibrary@@YAPEAVBfresFile@@V?$basic_string@DU?$char_traits@D@std@@V?$allocator@D@2@@std@@@Z ; BfresLibrary::GetModel
	mov	QWORD PTR [r15], rax
	mov	r14, QWORD PTR [rax]
$LN14@Draw:
; File C:\Program Files\Microsoft Visual Studio\2022\Community\VC\Tools\MSVC\14.37.32822\include\vector

; 1889 :         return _My_data._Myfirst[_Pos];

	mov	r14, QWORD PTR [r14]
; File H:\Paul\switchemulator\Zelda TotK\MapEditorV4\OldVersion\MapEditor\UMii.cpp

; 103  : 		GLMModel = glm::rotate(GLMModel, glm::radians(Rotate.GetZ()), glm::vec3(0.0, 0.0f, 1.0));

	lea	r9, QWORD PTR $T3[rsp]
; File H:\Paul\switchemulator\Zelda TotK\MapEditorV4\OldVersion\MapEditor\Libraries\include\glm\detail\type_vec4.inl

; 156  : 		: x(scalar), y(scalar), z(scalar), w(scalar)

	movss	xmm1, DWORD PTR [rbx+4]
; File H:\Paul\switchemulator\Zelda TotK\MapEditorV4\OldVersion\MapEditor\UMii.cpp

; 103  : 		GLMModel = glm::rotate(GLMModel, glm::radians(Rotate.GetZ()), glm::vec3(0.0, 0.0f, 1.0));

	lea	rdx, QWORD PTR GLMModel$12[rbp-256]
; File H:\Paul\switchemulator\Zelda TotK\MapEditorV4\OldVersion\MapEditor\Libraries\include\glm\detail\type_vec4.inl

; 178  : 		: x(static_cast<T>(_x))

	movaps	xmm0, XMMWORD PTR __xmm@3f800000000000000000000000000000
; File H:\Paul\switchemulator\Zelda TotK\MapEditorV4\OldVersion\MapEditor\UMii.cpp

; 103  : 		GLMModel = glm::rotate(GLMModel, glm::radians(Rotate.GetZ()), glm::vec3(0.0, 0.0f, 1.0));

	lea	rcx, QWORD PTR $T8[rsp]
; File H:\Paul\switchemulator\Zelda TotK\MapEditorV4\OldVersion\MapEditor\Libraries\include\glm\detail\type_vec4.inl

; 178  : 		: x(static_cast<T>(_x))

	movaps	xmm5, XMMWORD PTR __xmm@0000000000000000000000003f800000

; 156  : 		: x(scalar), y(scalar), z(scalar), w(scalar)

	movaps	xmm3, xmm1

; 178  : 		: x(static_cast<T>(_x))

	movaps	xmm6, XMMWORD PTR __xmm@00000000000000003f80000000000000

; 161  : 		: x(_x), y(_y), z(_z), w(_w)

	movaps	xmm4, xmm8

; 178  : 		: x(static_cast<T>(_x))

	movaps	xmm7, XMMWORD PTR __xmm@000000003f8000000000000000000000
; File H:\Paul\switchemulator\Zelda TotK\MapEditorV4\OldVersion\MapEditor\Libraries\include\glm\ext\matrix_transform.inl

; 12   : 		mat<4, 4, T, Q> Result(m);

	movaps	XMMWORD PTR $T9[rbp-208], xmm0
; File H:\Paul\switchemulator\Zelda TotK\MapEditorV4\OldVersion\MapEditor\Libraries\include\glm\detail\type_vec4.inl

; 161  : 		: x(_x), y(_y), z(_z), w(_w)

	movaps	xmm0, xmm8
	mulss	xmm0, xmm13

; 156  : 		: x(scalar), y(scalar), z(scalar), w(scalar)

	mulss	xmm3, xmm13

; 161  : 		: x(_x), y(_y), z(_z), w(_w)

	addss	xmm1, xmm0
; File H:\Paul\switchemulator\Zelda TotK\MapEditorV4\OldVersion\MapEditor\UMii.cpp

; 101  : 		GLMModel = glm::translate(GLMModel, glm::vec3(Translate.GetX(), Translate.GetY(), Translate.GetZ()));

	movaps	XMMWORD PTR GLMModel$12[rbp-256], xmm5
	movaps	XMMWORD PTR GLMModel$12[rbp-240], xmm6
; File H:\Paul\switchemulator\Zelda TotK\MapEditorV4\OldVersion\MapEditor\Libraries\include\glm\detail\type_vec4.inl

; 161  : 		: x(_x), y(_y), z(_z), w(_w)

	addss	xmm4, xmm3
; File H:\Paul\switchemulator\Zelda TotK\MapEditorV4\OldVersion\MapEditor\UMii.cpp

; 101  : 		GLMModel = glm::translate(GLMModel, glm::vec3(Translate.GetX(), Translate.GetY(), Translate.GetZ()));

	movaps	XMMWORD PTR GLMModel$12[rbp-224], xmm7
; File H:\Paul\switchemulator\Zelda TotK\MapEditorV4\OldVersion\MapEditor\Libraries\include\glm\detail\type_vec4.inl

; 13   : 			return vec<4, T, Q>(a.x + b.x, a.y + b.y, a.z + b.z, a.w + b.w);

	movaps	xmm2, xmm3

; 161  : 		: x(_x), y(_y), z(_z), w(_w)

	addss	xmm3, xmm0

; 13   : 			return vec<4, T, Q>(a.x + b.x, a.y + b.y, a.z + b.z, a.w + b.w);

	addss	xmm2, xmm0
	movaps	xmm0, xmm9

; 161  : 		: x(_x), y(_y), z(_z), w(_w)

	addss	xmm1, xmm9

; 13   : 			return vec<4, T, Q>(a.x + b.x, a.y + b.y, a.z + b.z, a.w + b.w);

	addss	xmm4, xmm9

; 161  : 		: x(_x), y(_y), z(_z), w(_w)

	addss	xmm3, xmm14

; 13   : 			return vec<4, T, Q>(a.x + b.x, a.y + b.y, a.z + b.z, a.w + b.w);

	addss	xmm0, xmm2
; File H:\Paul\switchemulator\Zelda TotK\MapEditorV4\OldVersion\MapEditor\UMii.cpp

; 103  : 		GLMModel = glm::rotate(GLMModel, glm::radians(Rotate.GetZ()), glm::vec3(0.0, 0.0f, 1.0));

	movaps	xmm2, xmm10
; File H:\Paul\switchemulator\Zelda TotK\MapEditorV4\OldVersion\MapEditor\Libraries\include\glm\detail\type_vec4.inl

; 161  : 		: x(_x), y(_y), z(_z), w(_w)

	addss	xmm1, xmm13
	addss	xmm4, xmm13
	addss	xmm3, xmm13
	addss	xmm0, DWORD PTR __real@3f800000
; File H:\Paul\switchemulator\Zelda TotK\MapEditorV4\OldVersion\MapEditor\Libraries\include\glm\ext\matrix_transform.inl

; 13   : 		Result[3] = m[0] * v[0] + m[1] * v[1] + m[2] * v[2] + m[3];

	shufps	xmm4, xmm4, 225				; 000000e1H
	movss	xmm4, xmm1
	shufps	xmm4, xmm4, 198				; 000000c6H
	movss	xmm4, xmm3
	shufps	xmm4, xmm4, 39				; 00000027H
	movss	xmm4, xmm0
	shufps	xmm4, xmm4, 57				; 00000039H
; File H:\Paul\switchemulator\Zelda TotK\MapEditorV4\OldVersion\MapEditor\UMii.cpp

; 101  : 		GLMModel = glm::translate(GLMModel, glm::vec3(Translate.GetX(), Translate.GetY(), Translate.GetZ()));

	movaps	XMMWORD PTR GLMModel$12[rbp-208], xmm4

; 103  : 		GLMModel = glm::rotate(GLMModel, glm::radians(Rotate.GetZ()), glm::vec3(0.0, 0.0f, 1.0));

	call	??$rotate@M$0A@@glm@@YA?AU?$mat@$03$03M$0A@@0@AEBU10@MAEBU?$vec@$02M$0A@@0@@Z ; glm::rotate<float,0>

; 104  : 		GLMModel = glm::rotate(GLMModel, glm::radians(Rotate.GetY()), glm::vec3(0.0f, 1.0, 0.0));

	lea	r9, QWORD PTR $T4[rsp]
	movaps	xmm2, xmm11
	lea	rdx, QWORD PTR GLMModel$12[rbp-256]
	lea	rcx, QWORD PTR $T7[rsp]
	movups	xmm0, XMMWORD PTR [rax]
	movaps	XMMWORD PTR GLMModel$12[rbp-256], xmm0
	movups	xmm1, XMMWORD PTR [rax+16]
	movaps	XMMWORD PTR GLMModel$12[rbp-240], xmm1
	movups	xmm0, XMMWORD PTR [rax+32]
	movaps	XMMWORD PTR GLMModel$12[rbp-224], xmm0
	movups	xmm1, XMMWORD PTR [rax+48]
	movaps	XMMWORD PTR GLMModel$12[rbp-208], xmm1
	call	??$rotate@M$0A@@glm@@YA?AU?$mat@$03$03M$0A@@0@AEBU10@MAEBU?$vec@$02M$0A@@0@@Z ; glm::rotate<float,0>

; 105  : 		GLMModel = glm::rotate(GLMModel, glm::radians(Rotate.GetX()), glm::vec3(1.0, 0.0f, 0.0));

	lea	r9, QWORD PTR $T5[rsp]
	movaps	xmm2, xmm12
	lea	rdx, QWORD PTR GLMModel$12[rbp-256]
	lea	rcx, QWORD PTR $T11[rbp-256]
	movups	xmm0, XMMWORD PTR [rax]
	movaps	XMMWORD PTR GLMModel$12[rbp-256], xmm0
	movups	xmm1, XMMWORD PTR [rax+16]
	movaps	XMMWORD PTR GLMModel$12[rbp-240], xmm1
	movups	xmm0, XMMWORD PTR [rax+32]
	movaps	XMMWORD PTR GLMModel$12[rbp-224], xmm0
	movups	xmm1, XMMWORD PTR [rax+48]
	movaps	XMMWORD PTR GLMModel$12[rbp-208], xmm1
	call	??$rotate@M$0A@@glm@@YA?AU?$mat@$03$03M$0A@@0@AEBU10@MAEBU?$vec@$02M$0A@@0@@Z ; glm::rotate<float,0>
; File H:\Paul\switchemulator\Zelda TotK\MapEditorV4\OldVersion\MapEditor\Libraries\include\glm\detail\type_vec4.inl

; 156  : 		: x(scalar), y(scalar), z(scalar), w(scalar)

	movaps	xmm7, xmm15

; 161  : 		: x(_x), y(_y), z(_z), w(_w)

	movaps	xmm2, xmm15
; File H:\Paul\switchemulator\Zelda TotK\MapEditorV4\OldVersion\MapEditor\UMii.cpp

; 105  : 		GLMModel = glm::rotate(GLMModel, glm::radians(Rotate.GetX()), glm::vec3(1.0, 0.0f, 0.0));

	movups	xmm4, XMMWORD PTR [rax]
	movaps	XMMWORD PTR GLMModel$12[rbp-256], xmm4
; File H:\Paul\switchemulator\Zelda TotK\MapEditorV4\OldVersion\MapEditor\Libraries\include\glm\detail\type_vec4.inl

; 161  : 		: x(_x), y(_y), z(_z), w(_w)

	movaps	xmm0, xmm4
; File H:\Paul\switchemulator\Zelda TotK\MapEditorV4\OldVersion\MapEditor\UMii.cpp

; 105  : 		GLMModel = glm::rotate(GLMModel, glm::radians(Rotate.GetX()), glm::vec3(1.0, 0.0f, 0.0));

	movups	xmm5, XMMWORD PTR [rax+16]
; File H:\Paul\switchemulator\Zelda TotK\MapEditorV4\OldVersion\MapEditor\Libraries\include\glm\detail\type_vec4.inl

; 161  : 		: x(_x), y(_y), z(_z), w(_w)

	shufps	xmm0, xmm4, 85				; 00000055H
; File H:\Paul\switchemulator\Zelda TotK\MapEditorV4\OldVersion\MapEditor\UMii.cpp

; 105  : 		GLMModel = glm::rotate(GLMModel, glm::radians(Rotate.GetX()), glm::vec3(1.0, 0.0f, 0.0));

	movaps	XMMWORD PTR GLMModel$12[rbp-240], xmm5
	movups	xmm6, XMMWORD PTR [rax+32]
; File H:\Paul\switchemulator\Zelda TotK\MapEditorV4\OldVersion\MapEditor\Libraries\include\glm\detail\type_vec4.inl

; 156  : 		: x(scalar), y(scalar), z(scalar), w(scalar)

	mulss	xmm7, xmm4
; File H:\Paul\switchemulator\Zelda TotK\MapEditorV4\OldVersion\MapEditor\UMii.cpp

; 105  : 		GLMModel = glm::rotate(GLMModel, glm::radians(Rotate.GetX()), glm::vec3(1.0, 0.0f, 0.0));

	movaps	XMMWORD PTR GLMModel$12[rbp-224], xmm6
	movups	xmm8, XMMWORD PTR [rax+48]
; File H:\Paul\switchemulator\Zelda TotK\MapEditorV4\OldVersion\MapEditor\Libraries\include\glm\detail\type_vec4.inl

; 161  : 		: x(_x), y(_y), z(_z), w(_w)

	mulss	xmm2, xmm0
; File H:\Paul\switchemulator\Zelda TotK\MapEditorV4\OldVersion\MapEditor\UMii.cpp

; 109  : 		if (!Picking)

	cmp	BYTE PTR Picking$[rbp-256], 0
; File H:\Paul\switchemulator\Zelda TotK\MapEditorV4\OldVersion\MapEditor\Libraries\include\glm\detail\type_vec4.inl

; 161  : 		: x(_x), y(_y), z(_z), w(_w)

	movaps	xmm1, xmm4
	shufps	xmm1, xmm4, 170				; 000000aaH
	movaps	xmm3, xmm15
	mulss	xmm3, xmm1
	movaps	xmm0, xmm15
; File H:\Paul\switchemulator\Zelda TotK\MapEditorV4\OldVersion\MapEditor\Libraries\include\glm\ext\matrix_transform.inl

; 81   : 		Result[0] = m[0] * v[0];

	shufps	xmm7, xmm7, 225				; 000000e1H
; File H:\Paul\switchemulator\Zelda TotK\MapEditorV4\OldVersion\MapEditor\Libraries\include\glm\detail\type_vec4.inl

; 161  : 		: x(_x), y(_y), z(_z), w(_w)

	movaps	xmm1, xmm5
; File H:\Paul\switchemulator\Zelda TotK\MapEditorV4\OldVersion\MapEditor\Libraries\include\glm\ext\matrix_transform.inl

; 81   : 		Result[0] = m[0] * v[0];

	movss	xmm7, xmm2
; File H:\Paul\switchemulator\Zelda TotK\MapEditorV4\OldVersion\MapEditor\Libraries\include\glm\detail\type_vec4.inl

; 161  : 		: x(_x), y(_y), z(_z), w(_w)

	shufps	xmm1, xmm5, 170				; 000000aaH
; File H:\Paul\switchemulator\Zelda TotK\MapEditorV4\OldVersion\MapEditor\Libraries\include\glm\ext\matrix_transform.inl

; 81   : 		Result[0] = m[0] * v[0];

	shufps	xmm7, xmm7, 198				; 000000c6H
; File H:\Paul\switchemulator\Zelda TotK\MapEditorV4\OldVersion\MapEditor\Libraries\include\glm\detail\type_vec4.inl

; 156  : 		: x(scalar), y(scalar), z(scalar), w(scalar)

	movaps	xmm2, xmm5
; File H:\Paul\switchemulator\Zelda TotK\MapEditorV4\OldVersion\MapEditor\Libraries\include\glm\ext\matrix_transform.inl

; 81   : 		Result[0] = m[0] * v[0];

	movss	xmm7, xmm3
; File H:\Paul\switchemulator\Zelda TotK\MapEditorV4\OldVersion\MapEditor\Libraries\include\glm\detail\type_vec4.inl

; 161  : 		: x(_x), y(_y), z(_z), w(_w)

	shufps	xmm4, xmm4, 255				; 000000ffH
	mulss	xmm0, xmm4

; 156  : 		: x(scalar), y(scalar), z(scalar), w(scalar)

	movaps	xmm3, xmm6
	movss	xmm4, DWORD PTR [r13+4]
	mulss	xmm2, xmm4

; 161  : 		: x(_x), y(_y), z(_z), w(_w)

	mulss	xmm1, xmm4
; File H:\Paul\switchemulator\Zelda TotK\MapEditorV4\OldVersion\MapEditor\Libraries\include\glm\ext\matrix_transform.inl

; 82   : 		Result[1] = m[1] * v[1];

	shufps	xmm2, xmm2, 225				; 000000e1H
	shufps	xmm7, xmm7, 39				; 00000027H
	movss	xmm7, xmm0
; File H:\Paul\switchemulator\Zelda TotK\MapEditorV4\OldVersion\MapEditor\UMii.cpp

; 107  : 		GLMModel = glm::scale(GLMModel, glm::vec3(Scale.GetX(), Scale.GetY(), Scale.GetZ()));

	movaps	XMMWORD PTR GLMModel$12[rbp-208], xmm8
; File H:\Paul\switchemulator\Zelda TotK\MapEditorV4\OldVersion\MapEditor\Libraries\include\glm\detail\type_vec4.inl

; 161  : 		: x(_x), y(_y), z(_z), w(_w)

	movaps	xmm0, xmm5
; File H:\Paul\switchemulator\Zelda TotK\MapEditorV4\OldVersion\MapEditor\Libraries\include\glm\ext\matrix_transform.inl

; 81   : 		Result[0] = m[0] * v[0];

	shufps	xmm7, xmm7, 57				; 00000039H
; File H:\Paul\switchemulator\Zelda TotK\MapEditorV4\OldVersion\MapEditor\Libraries\include\glm\detail\type_vec4.inl

; 161  : 		: x(_x), y(_y), z(_z), w(_w)

	shufps	xmm0, xmm5, 85				; 00000055H
	mulss	xmm0, xmm4
	shufps	xmm5, xmm5, 255				; 000000ffH
	mulss	xmm5, xmm4

; 156  : 		: x(scalar), y(scalar), z(scalar), w(scalar)

	movss	xmm4, DWORD PTR [r13+8]
; File H:\Paul\switchemulator\Zelda TotK\MapEditorV4\OldVersion\MapEditor\Libraries\include\glm\ext\matrix_transform.inl

; 82   : 		Result[1] = m[1] * v[1];

	movss	xmm2, xmm0
; File H:\Paul\switchemulator\Zelda TotK\MapEditorV4\OldVersion\MapEditor\Libraries\include\glm\detail\type_vec4.inl

; 156  : 		: x(scalar), y(scalar), z(scalar), w(scalar)

	mulss	xmm3, xmm4

; 161  : 		: x(_x), y(_y), z(_z), w(_w)

	movaps	xmm0, xmm6
; File H:\Paul\switchemulator\Zelda TotK\MapEditorV4\OldVersion\MapEditor\Libraries\include\glm\ext\matrix_transform.inl

; 82   : 		Result[1] = m[1] * v[1];

	shufps	xmm2, xmm2, 198				; 000000c6H
	movss	xmm2, xmm1
; File H:\Paul\switchemulator\Zelda TotK\MapEditorV4\OldVersion\MapEditor\Libraries\include\glm\detail\type_vec4.inl

; 161  : 		: x(_x), y(_y), z(_z), w(_w)

	shufps	xmm0, xmm6, 85				; 00000055H
; File H:\Paul\switchemulator\Zelda TotK\MapEditorV4\OldVersion\MapEditor\Libraries\include\glm\ext\matrix_transform.inl

; 83   : 		Result[2] = m[2] * v[2];

	shufps	xmm3, xmm3, 225				; 000000e1H
; File H:\Paul\switchemulator\Zelda TotK\MapEditorV4\OldVersion\MapEditor\Libraries\include\glm\detail\type_vec4.inl

; 161  : 		: x(_x), y(_y), z(_z), w(_w)

	movaps	xmm1, xmm6
	shufps	xmm1, xmm6, 170				; 000000aaH
; File H:\Paul\switchemulator\Zelda TotK\MapEditorV4\OldVersion\MapEditor\Libraries\include\glm\ext\matrix_transform.inl

; 82   : 		Result[1] = m[1] * v[1];

	shufps	xmm2, xmm2, 39				; 00000027H
; File H:\Paul\switchemulator\Zelda TotK\MapEditorV4\OldVersion\MapEditor\Libraries\include\glm\detail\type_vec4.inl

; 161  : 		: x(_x), y(_y), z(_z), w(_w)

	mulss	xmm0, xmm4
; File H:\Paul\switchemulator\Zelda TotK\MapEditorV4\OldVersion\MapEditor\Libraries\include\glm\ext\matrix_transform.inl

; 82   : 		Result[1] = m[1] * v[1];

	movss	xmm2, xmm5
; File H:\Paul\switchemulator\Zelda TotK\MapEditorV4\OldVersion\MapEditor\Libraries\include\glm\detail\type_vec4.inl

; 161  : 		: x(_x), y(_y), z(_z), w(_w)

	mulss	xmm1, xmm4
; File H:\Paul\switchemulator\Zelda TotK\MapEditorV4\OldVersion\MapEditor\Libraries\include\glm\ext\matrix_transform.inl

; 83   : 		Result[2] = m[2] * v[2];

	movss	xmm3, xmm0
; File H:\Paul\switchemulator\Zelda TotK\MapEditorV4\OldVersion\MapEditor\Libraries\include\glm\detail\type_vec4.inl

; 161  : 		: x(_x), y(_y), z(_z), w(_w)

	shufps	xmm6, xmm6, 255				; 000000ffH
; File H:\Paul\switchemulator\Zelda TotK\MapEditorV4\OldVersion\MapEditor\Libraries\include\glm\ext\matrix_transform.inl

; 83   : 		Result[2] = m[2] * v[2];

	shufps	xmm3, xmm3, 198				; 000000c6H
	movss	xmm3, xmm1
; File H:\Paul\switchemulator\Zelda TotK\MapEditorV4\OldVersion\MapEditor\Libraries\include\glm\detail\type_vec4.inl

; 161  : 		: x(_x), y(_y), z(_z), w(_w)

	mulss	xmm6, xmm4
; File H:\Paul\switchemulator\Zelda TotK\MapEditorV4\OldVersion\MapEditor\Libraries\include\glm\ext\matrix_transform.inl

; 83   : 		Result[2] = m[2] * v[2];

	shufps	xmm3, xmm3, 39				; 00000027H
	shufps	xmm2, xmm2, 57				; 00000039H
	movss	xmm3, xmm6
; File H:\Paul\switchemulator\Zelda TotK\MapEditorV4\OldVersion\MapEditor\UMii.cpp

; 107  : 		GLMModel = glm::scale(GLMModel, glm::vec3(Scale.GetX(), Scale.GetY(), Scale.GetZ()));

	movaps	XMMWORD PTR GLMModel$12[rbp-256], xmm7
; File H:\Paul\switchemulator\Zelda TotK\MapEditorV4\OldVersion\MapEditor\Libraries\include\glm\ext\matrix_transform.inl

; 83   : 		Result[2] = m[2] * v[2];

	shufps	xmm3, xmm3, 57				; 00000039H
; File H:\Paul\switchemulator\Zelda TotK\MapEditorV4\OldVersion\MapEditor\UMii.cpp

; 107  : 		GLMModel = glm::scale(GLMModel, glm::vec3(Scale.GetX(), Scale.GetY(), Scale.GetZ()));

	movaps	XMMWORD PTR GLMModel$12[rbp-224], xmm3
	movaps	XMMWORD PTR GLMModel$12[rbp-240], xmm2

; 109  : 		if (!Picking)

	je	$LN252@Draw

; 128  : 		for (Mesh& SubMesh : LODModel->GL_Meshes)

	mov	r12, QWORD PTR [r14+32]
	mov	rdi, QWORD PTR [r14+24]
	cmp	rdi, r12
	je	$LN2@Draw
	mov	r14, QWORD PTR CameraView$GSCopy$1$[rsp]
	npad	4
$LL13@Draw:
; File H:\Paul\switchemulator\Zelda TotK\MapEditorV4\OldVersion\MapEditor\Shader.cpp

; 75   : 	glUseProgram(ID);

	mov	ecx, DWORD PTR [rsi]
; File H:\Paul\switchemulator\Zelda TotK\MapEditorV4\OldVersion\MapEditor\UMii.cpp

; 130  : 			SubMesh.DrawPicking(Shader, CameraView, GLMModel);

	movaps	XMMWORD PTR $T6[rsp], xmm7
	movaps	XMMWORD PTR $T6[rbp-240], xmm2
	movaps	XMMWORD PTR $T6[rbp-224], xmm3
	movaps	XMMWORD PTR $T6[rbp-208], xmm8
; File H:\Paul\switchemulator\Zelda TotK\MapEditorV4\OldVersion\MapEditor\Shader.cpp

; 75   : 	glUseProgram(ID);

	call	QWORD PTR glad_glUseProgram
; File H:\Paul\switchemulator\Zelda TotK\MapEditorV4\OldVersion\MapEditor\VAO.cpp

; 21   : 	glBindVertexArray(ID);

	mov	ecx, DWORD PTR [rdi+72]
	call	QWORD PTR glad_glBindVertexArray
; File H:\Paul\switchemulator\Zelda TotK\MapEditorV4\OldVersion\MapEditor\Camera.cpp

; 33   : 	glUniformMatrix4fv(glGetUniformLocation(shader->ID, uniform), 1, GL_FALSE, glm::value_ptr(CameraMatrix));

	mov	rax, QWORD PTR glad_glGetUniformLocation
	lea	rdx, OFFSET FLAT:??_C@_09KNKDONHI@camMatrix@
	mov	ecx, DWORD PTR [rsi]
	mov	rbx, QWORD PTR glad_glUniformMatrix4fv
	call	rax
	xor	r8d, r8d
	lea	r9, QWORD PTR [r14+164]
	mov	ecx, eax
	lea	edx, QWORD PTR [r8+1]
	call	rbx
; File H:\Paul\switchemulator\Zelda TotK\MapEditorV4\OldVersion\MapEditor\Mesh.cpp

; 93   : 	glUniformMatrix4fv(glGetUniformLocation(Shader->ID, "modelMatrix"), 1, GL_FALSE, glm::value_ptr(Matrix));

	mov	rax, QWORD PTR glad_glGetUniformLocation
	lea	rdx, OFFSET FLAT:??_C@_0M@DDLHAGJC@modelMatrix@
	mov	ecx, DWORD PTR [rsi]
	mov	rbx, QWORD PTR glad_glUniformMatrix4fv
	call	rax
	xor	r8d, r8d
	lea	r9, QWORD PTR $T6[rsp]
	mov	ecx, eax
	lea	edx, QWORD PTR [r8+1]
	call	rbx
; File C:\Program Files\Microsoft Visual Studio\2022\Community\VC\Tools\MSVC\14.37.32822\include\vector

; 1869 :         return static_cast<size_type>(_My_data._Mylast - _My_data._Myfirst);

	mov	rdx, QWORD PTR [rdi+32]
; File H:\Paul\switchemulator\Zelda TotK\MapEditorV4\OldVersion\MapEditor\Mesh.cpp

; 96   : 	glDrawElements(GL_TRIANGLES, sizeof(int) * indices.size(), GL_UNSIGNED_INT, 0);

	xor	r9d, r9d
; File C:\Program Files\Microsoft Visual Studio\2022\Community\VC\Tools\MSVC\14.37.32822\include\vector

; 1869 :         return static_cast<size_type>(_My_data._Mylast - _My_data._Myfirst);

	sub	rdx, QWORD PTR [rdi+24]
; File H:\Paul\switchemulator\Zelda TotK\MapEditorV4\OldVersion\MapEditor\Mesh.cpp

; 96   : 	glDrawElements(GL_TRIANGLES, sizeof(int) * indices.size(), GL_UNSIGNED_INT, 0);

	mov	r8d, 5125				; 00001405H
	and	edx, -4
	lea	ecx, QWORD PTR [r9+4]
	call	QWORD PTR glad_glDrawElements
; File H:\Paul\switchemulator\Zelda TotK\MapEditorV4\OldVersion\MapEditor\UMii.cpp

; 128  : 		for (Mesh& SubMesh : LODModel->GL_Meshes)

	add	rdi, 96					; 00000060H
	cmp	rdi, r12
	je	SHORT $LN347@Draw
	movaps	xmm8, XMMWORD PTR GLMModel$12[rbp-208]
	movaps	xmm3, XMMWORD PTR GLMModel$12[rbp-224]
	movaps	xmm2, XMMWORD PTR GLMModel$12[rbp-240]
	movaps	xmm7, XMMWORD PTR GLMModel$12[rbp-256]
	jmp	$LL13@Draw
$LN347@Draw:
	mov	rbx, QWORD PTR Translate$1$[rsp]
$LN2@Draw:

; 90   : 	for (UMii::ModelElement& Element : this->m_ModelElements)

	movss	xmm8, DWORD PTR $T1$sroa$2046$1$[rsp]
	add	r15, 48					; 00000030H
	mov	ecx, 0
	cmp	r15, QWORD PTR <end>$L0$1$[rsp]
	jne	$LL4@Draw

; 109  : 		if (!Picking)

	jmp	$LN367@Draw
$LN252@Draw:

; 110  : 		{
; 111  : 			for (uint32_t SubModelIndexOpaque : LODModel->OpaqueObjects)

	mov	r12, QWORD PTR [r14+56]
	mov	r15, QWORD PTR [r14+48]
	cmp	r15, r12
	je	SHORT $LN341@Draw
	npad	10
$LL7@Draw:

; 113  : 				LODModel->GL_Meshes[SubModelIndexOpaque].UpdateInstances(1);

	mov	eax, DWORD PTR [r15]
	mov	edx, 1
; File C:\Program Files\Microsoft Visual Studio\2022\Community\VC\Tools\MSVC\14.37.32822\include\vector

; 1889 :         return _My_data._Myfirst[_Pos];

	mov	rcx, QWORD PTR [r14+24]
	lea	rdi, QWORD PTR [rax+rax*2]
	shl	rdi, 5
	add	rcx, rdi
; File H:\Paul\switchemulator\Zelda TotK\MapEditorV4\OldVersion\MapEditor\UMii.cpp

; 113  : 				LODModel->GL_Meshes[SubModelIndexOpaque].UpdateInstances(1);

	call	?UpdateInstances@Mesh@@QEAAXI@Z		; Mesh::UpdateInstances

; 114  : 				glUniformMatrix4fv(glGetUniformLocation(Shader->ID, "modelMatrix"), 1, GL_FALSE, glm::value_ptr(GLMModel));

	mov	rax, QWORD PTR glad_glGetUniformLocation
	lea	rdx, OFFSET FLAT:??_C@_0M@DDLHAGJC@modelMatrix@
	mov	ecx, DWORD PTR [rsi]
	mov	rbx, QWORD PTR glad_glUniformMatrix4fv
	call	rax
	xor	r8d, r8d
	lea	r9, QWORD PTR GLMModel$12[rbp-256]
	mov	ecx, eax
	lea	edx, QWORD PTR [r8+1]
	call	rbx
; File C:\Program Files\Microsoft Visual Studio\2022\Community\VC\Tools\MSVC\14.37.32822\include\vector

; 1889 :         return _My_data._Myfirst[_Pos];

	mov	rcx, QWORD PTR [r14+24]
	add	rcx, rdi
; File H:\Paul\switchemulator\Zelda TotK\MapEditorV4\OldVersion\MapEditor\UMii.cpp

; 115  : 				LODModel->GL_Meshes[SubModelIndexOpaque].Draw();

	call	?Draw@Mesh@@QEAAXPEAVShader@@H@Z	; Mesh::Draw
	add	r15, 4
	cmp	r15, r12
	jne	SHORT $LL7@Draw
$LN341@Draw:

; 116  : 			}
; 117  : 
; 118  : 			for (uint32_t SubModelIndexTransparent : LODModel->TransparentObjects)

	mov	r12, QWORD PTR [r14+80]
	mov	r15, QWORD PTR [r14+72]
	cmp	r15, r12
	je	SHORT $LN367@Draw
	npad	10
$LL10@Draw:

; 120  : 				LODModel->GL_Meshes[SubModelIndexTransparent].UpdateInstances(1);

	mov	eax, DWORD PTR [r15]
	mov	edx, 1
; File C:\Program Files\Microsoft Visual Studio\2022\Community\VC\Tools\MSVC\14.37.32822\include\vector

; 1889 :         return _My_data._Myfirst[_Pos];

	mov	rcx, QWORD PTR [r14+24]
	lea	rdi, QWORD PTR [rax+rax*2]
	shl	rdi, 5
	add	rcx, rdi
; File H:\Paul\switchemulator\Zelda TotK\MapEditorV4\OldVersion\MapEditor\UMii.cpp

; 120  : 				LODModel->GL_Meshes[SubModelIndexTransparent].UpdateInstances(1);

	call	?UpdateInstances@Mesh@@QEAAXI@Z		; Mesh::UpdateInstances

; 121  : 				glUniformMatrix4fv(glGetUniformLocation(Shader->ID, "modelMatrix"), 1, GL_FALSE, glm::value_ptr(GLMModel));

	mov	rax, QWORD PTR glad_glGetUniformLocation
	lea	rdx, OFFSET FLAT:??_C@_0M@DDLHAGJC@modelMatrix@
	mov	ecx, DWORD PTR [rsi]
	mov	rbx, QWORD PTR glad_glUniformMatrix4fv
	call	rax
	xor	r8d, r8d
	lea	r9, QWORD PTR GLMModel$12[rbp-256]
	mov	ecx, eax
	lea	edx, QWORD PTR [r8+1]
	call	rbx
; File C:\Program Files\Microsoft Visual Studio\2022\Community\VC\Tools\MSVC\14.37.32822\include\vector

; 1889 :         return _My_data._Myfirst[_Pos];

	mov	rcx, QWORD PTR [r14+24]
	add	rcx, rdi
; File H:\Paul\switchemulator\Zelda TotK\MapEditorV4\OldVersion\MapEditor\UMii.cpp

; 122  : 				LODModel->GL_Meshes[SubModelIndexTransparent].Draw();

	call	?Draw@Mesh@@QEAAXPEAVShader@@H@Z	; Mesh::Draw
	add	r15, 4
	cmp	r15, r12
	jne	SHORT $LL10@Draw
$LN367@Draw:
	movaps	xmm14, XMMWORD PTR [rsp+336]
	movaps	xmm13, XMMWORD PTR [rsp+352]
	movaps	xmm12, XMMWORD PTR [rsp+368]
	movaps	xmm11, XMMWORD PTR [rsp+384]
	movaps	xmm10, XMMWORD PTR [rsp+400]
	movaps	xmm9, XMMWORD PTR [rsp+416]
	movaps	xmm8, XMMWORD PTR [rsp+432]
	movaps	xmm7, XMMWORD PTR [rsp+448]
	movaps	xmm6, XMMWORD PTR [rsp+464]
	mov	r14, QWORD PTR [rsp+480]
	mov	r12, QWORD PTR [rsp+488]
	mov	rdi, QWORD PTR [rsp+552]
	movaps	xmm15, XMMWORD PTR [rsp+320]
$LN9@Draw:

; 131  : 		}
; 132  : 	}
; 133  : }

	mov	rcx, QWORD PTR __$ArrayPad$[rbp-256]
	xor	rcx, rsp
	call	__security_check_cookie
	add	rsp, 496				; 000001f0H
	pop	r15
	pop	r13
	pop	rsi
	pop	rbx
	pop	rbp
	ret	0
?Draw@UMii@@QEAAXVVector3F@@00PEAVShader@@_NPEAVCamera@@@Z ENDP ; UMii::Draw
_TEXT	ENDS
; Function compile flags: /Ogtpy
; File C:\Program Files\Microsoft Visual Studio\2022\Community\VC\Tools\MSVC\14.37.32822\include\vector
;	COMDAT ?_Unchecked_end@?$vector@UModelElement@UMii@@V?$allocator@UModelElement@UMii@@@std@@@std@@QEAAPEAUModelElement@UMii@@XZ
_TEXT	SEGMENT
this$ = 8
?_Unchecked_end@?$vector@UModelElement@UMii@@V?$allocator@UModelElement@UMii@@@std@@@std@@QEAAPEAUModelElement@UMii@@XZ PROC ; std::vector<UMii::ModelElement,std::allocator<UMii::ModelElement> >::_Unchecked_end, COMDAT

; 1855 :         return _Mypair._Myval2._Mylast;

	mov	rax, QWORD PTR [rcx+8]

; 1856 :     }

	ret	0
?_Unchecked_end@?$vector@UModelElement@UMii@@V?$allocator@UModelElement@UMii@@@std@@@std@@QEAAPEAUModelElement@UMii@@XZ ENDP ; std::vector<UMii::ModelElement,std::allocator<UMii::ModelElement> >::_Unchecked_end
_TEXT	ENDS
; Function compile flags: /Ogtpy
; File C:\Program Files\Microsoft Visual Studio\2022\Community\VC\Tools\MSVC\14.37.32822\include\vector
;	COMDAT ?_Unchecked_begin@?$vector@UModelElement@UMii@@V?$allocator@UModelElement@UMii@@@std@@@std@@QEAAPEAUModelElement@UMii@@XZ
_TEXT	SEGMENT
this$ = 8
?_Unchecked_begin@?$vector@UModelElement@UMii@@V?$allocator@UModelElement@UMii@@@std@@@std@@QEAAPEAUModelElement@UMii@@XZ PROC ; std::vector<UMii::ModelElement,std::allocator<UMii::ModelElement> >::_Unchecked_begin, COMDAT

; 1847 :         return _Mypair._Myval2._Myfirst;

	mov	rax, QWORD PTR [rcx]

; 1848 :     }

	ret	0
?_Unchecked_begin@?$vector@UModelElement@UMii@@V?$allocator@UModelElement@UMii@@@std@@@std@@QEAAPEAUModelElement@UMii@@XZ ENDP ; std::vector<UMii::ModelElement,std::allocator<UMii::ModelElement> >::_Unchecked_begin
_TEXT	ENDS
; Function compile flags: /Ogtpy
; File C:\Program Files\Microsoft Visual Studio\2022\Community\VC\Tools\MSVC\14.37.32822\include\vector
; File C:\Program Files\Microsoft Visual Studio\2022\Community\VC\Tools\MSVC\14.37.32822\include\xutility
; File C:\Program Files\Microsoft Visual Studio\2022\Community\VC\Tools\MSVC\14.37.32822\include\vector
;	COMDAT ?push_back@?$vector@UModelElement@UMii@@V?$allocator@UModelElement@UMii@@@std@@@std@@QEAAX$$QEAUModelElement@UMii@@@Z
_TEXT	SEGMENT
this$ = 8
_Val$ = 16
?push_back@?$vector@UModelElement@UMii@@V?$allocator@UModelElement@UMii@@@std@@@std@@QEAAX$$QEAUModelElement@UMii@@@Z PROC ; std::vector<UMii::ModelElement,std::allocator<UMii::ModelElement> >::push_back, COMDAT

; 876  :     _CONSTEXPR20 void push_back(_Ty&& _Val) {

	mov	r8, rdx

; 781  :         if (_Mylast != _My_data._Myend) {

	mov	rdx, QWORD PTR [rcx+8]
	cmp	rdx, QWORD PTR [rcx+16]
	je	SHORT $LN4@push_back
; File C:\Program Files\Microsoft Visual Studio\2022\Community\VC\Tools\MSVC\14.37.32822\include\xutility

; 254  :         ::new (static_cast<void*>(_STD addressof(_Obj))) _Ty(_STD forward<_Types>(_Args)...);

	movups	xmm0, XMMWORD PTR [r8]
	movups	XMMWORD PTR [rdx], xmm0
	movups	xmm1, XMMWORD PTR [r8+16]
	movups	XMMWORD PTR [rdx+16], xmm1
	movups	xmm0, XMMWORD PTR [r8+32]
	movups	XMMWORD PTR [rdx+32], xmm0
; File C:\Program Files\Microsoft Visual Studio\2022\Community\VC\Tools\MSVC\14.37.32822\include\vector

; 806  :         ++_Mylast;

	add	QWORD PTR [rcx+8], 48			; 00000030H

; 877  :         // insert by moving into element at end, provide strong guarantee
; 878  :         _Emplace_one_at_back(_STD move(_Val));
; 879  :     }

	ret	0
$LN4@push_back:

; 785  :         return *_Emplace_reallocate(_Mylast, _STD forward<_Valty>(_Val)...);

	jmp	??$_Emplace_reallocate@UModelElement@UMii@@@?$vector@UModelElement@UMii@@V?$allocator@UModelElement@UMii@@@std@@@std@@AEAAPEAUModelElement@UMii@@QEAU23@$$QEAU23@@Z ; std::vector<UMii::ModelElement,std::allocator<UMii::ModelElement> >::_Emplace_reallocate<UMii::ModelElement>
?push_back@?$vector@UModelElement@UMii@@V?$allocator@UModelElement@UMii@@@std@@@std@@QEAAX$$QEAUModelElement@UMii@@@Z ENDP ; std::vector<UMii::ModelElement,std::allocator<UMii::ModelElement> >::push_back
_TEXT	ENDS
; Function compile flags: /Ogtpy
; File C:\Program Files\Microsoft Visual Studio\2022\Community\VC\Tools\MSVC\14.37.32822\include\type_traits
;	COMDAT ??$move@AEAUModelElement@UMii@@@std@@YA$$QEAUModelElement@UMii@@AEAU12@@Z
_TEXT	SEGMENT
_Arg$ = 8
??$move@AEAUModelElement@UMii@@@std@@YA$$QEAUModelElement@UMii@@AEAU12@@Z PROC ; std::move<UMii::ModelElement &>, COMDAT

; 1595 :     return static_cast<remove_reference_t<_Ty>&&>(_Arg);

	mov	rax, rcx

; 1596 : }

	ret	0
??$move@AEAUModelElement@UMii@@@std@@YA$$QEAUModelElement@UMii@@AEAU12@@Z ENDP ; std::move<UMii::ModelElement &>
_TEXT	ENDS
; Function compile flags: /Ogtpy
; File C:\Program Files\Microsoft Visual Studio\2022\Community\VC\Tools\MSVC\14.37.32822\include\vector
; File C:\Program Files\Microsoft Visual Studio\2022\Community\VC\Tools\MSVC\14.37.32822\include\xutility
; File C:\Program Files\Microsoft Visual Studio\2022\Community\VC\Tools\MSVC\14.37.32822\include\vector
;	COMDAT ??$_Emplace_one_at_back@UModelElement@UMii@@@?$vector@UModelElement@UMii@@V?$allocator@UModelElement@UMii@@@std@@@std@@AEAAAEAUModelElement@UMii@@$$QEAU23@@Z
_TEXT	SEGMENT
this$ = 8
<_Val_0>$ = 16
??$_Emplace_one_at_back@UModelElement@UMii@@@?$vector@UModelElement@UMii@@V?$allocator@UModelElement@UMii@@@std@@@std@@AEAAAEAUModelElement@UMii@@$$QEAU23@@Z PROC ; std::vector<UMii::ModelElement,std::allocator<UMii::ModelElement> >::_Emplace_one_at_back<UMii::ModelElement>, COMDAT

; 776  :     _CONSTEXPR20 _Ty& _Emplace_one_at_back(_Valty&&... _Val) {

	mov	r8, rdx
	mov	r9, rcx

; 777  :         // insert by perfectly forwarding into element at end, provide strong guarantee
; 778  :         auto& _My_data   = _Mypair._Myval2;
; 779  :         pointer& _Mylast = _My_data._Mylast;
; 780  : 
; 781  :         if (_Mylast != _My_data._Myend) {

	mov	rdx, QWORD PTR [rcx+8]
	cmp	rdx, QWORD PTR [rcx+16]
	je	SHORT $LN2@Emplace_on
; File C:\Program Files\Microsoft Visual Studio\2022\Community\VC\Tools\MSVC\14.37.32822\include\xutility

; 254  :         ::new (static_cast<void*>(_STD addressof(_Obj))) _Ty(_STD forward<_Types>(_Args)...);

	movups	xmm0, XMMWORD PTR [r8]
	movups	XMMWORD PTR [rdx], xmm0
	movups	xmm1, XMMWORD PTR [r8+16]
	movups	XMMWORD PTR [rdx+16], xmm1
	movups	xmm0, XMMWORD PTR [r8+32]
	movups	XMMWORD PTR [rdx+32], xmm0
; File C:\Program Files\Microsoft Visual Studio\2022\Community\VC\Tools\MSVC\14.37.32822\include\vector

; 805  :         _Ty& _Result = *_Mylast;

	mov	rax, QWORD PTR [rcx+8]

; 806  :         ++_Mylast;

	lea	rcx, QWORD PTR [rax+48]
	mov	QWORD PTR [r9+8], rcx

; 786  :     }

	ret	0
$LN2@Emplace_on:

; 782  :             return _Emplace_back_with_unused_capacity(_STD forward<_Valty>(_Val)...);
; 783  :         }
; 784  : 
; 785  :         return *_Emplace_reallocate(_Mylast, _STD forward<_Valty>(_Val)...);

	jmp	??$_Emplace_reallocate@UModelElement@UMii@@@?$vector@UModelElement@UMii@@V?$allocator@UModelElement@UMii@@@std@@@std@@AEAAPEAUModelElement@UMii@@QEAU23@$$QEAU23@@Z ; std::vector<UMii::ModelElement,std::allocator<UMii::ModelElement> >::_Emplace_reallocate<UMii::ModelElement>
??$_Emplace_one_at_back@UModelElement@UMii@@@?$vector@UModelElement@UMii@@V?$allocator@UModelElement@UMii@@@std@@@std@@AEAAAEAUModelElement@UMii@@$$QEAU23@@Z ENDP ; std::vector<UMii::ModelElement,std::allocator<UMii::ModelElement> >::_Emplace_one_at_back<UMii::ModelElement>
_TEXT	ENDS
; Function compile flags: /Ogtpy
; File C:\Program Files\Microsoft Visual Studio\2022\Community\VC\Tools\MSVC\14.37.32822\include\type_traits
;	COMDAT ??$forward@UModelElement@UMii@@@std@@YA$$QEAUModelElement@UMii@@AEAU12@@Z
_TEXT	SEGMENT
_Arg$ = 8
??$forward@UModelElement@UMii@@@std@@YA$$QEAUModelElement@UMii@@AEAU12@@Z PROC ; std::forward<UMii::ModelElement>, COMDAT

; 1584 :     return static_cast<_Ty&&>(_Arg);

	mov	rax, rcx

; 1585 : }

	ret	0
??$forward@UModelElement@UMii@@@std@@YA$$QEAUModelElement@UMii@@AEAU12@@Z ENDP ; std::forward<UMii::ModelElement>
_TEXT	ENDS
; Function compile flags: /Ogtpy
; File C:\Program Files\Microsoft Visual Studio\2022\Community\VC\Tools\MSVC\14.37.32822\include\vector
; File C:\Program Files\Microsoft Visual Studio\2022\Community\VC\Tools\MSVC\14.37.32822\include\xutility
; File C:\Program Files\Microsoft Visual Studio\2022\Community\VC\Tools\MSVC\14.37.32822\include\vector
; File C:\Program Files\Microsoft Visual Studio\2022\Community\VC\Tools\MSVC\14.37.32822\include\xutility
; File C:\Program Files\Microsoft Visual Studio\2022\Community\VC\Tools\MSVC\14.37.32822\include\vector
;	COMDAT ??$_Emplace_back_with_unused_capacity@UModelElement@UMii@@@?$vector@UModelElement@UMii@@V?$allocator@UModelElement@UMii@@@std@@@std@@AEAAAEAUModelElement@UMii@@$$QEAU23@@Z
_TEXT	SEGMENT
this$ = 8
<_Val_0>$ = 16
??$_Emplace_back_with_unused_capacity@UModelElement@UMii@@@?$vector@UModelElement@UMii@@V?$allocator@UModelElement@UMii@@@std@@@std@@AEAAAEAUModelElement@UMii@@$$QEAU23@@Z PROC ; std::vector<UMii::ModelElement,std::allocator<UMii::ModelElement> >::_Emplace_back_with_unused_capacity<UMii::ModelElement>, COMDAT
; File C:\Program Files\Microsoft Visual Studio\2022\Community\VC\Tools\MSVC\14.37.32822\include\xutility

; 254  :         ::new (static_cast<void*>(_STD addressof(_Obj))) _Ty(_STD forward<_Types>(_Args)...);

	movups	xmm0, XMMWORD PTR [rdx]
; File C:\Program Files\Microsoft Visual Studio\2022\Community\VC\Tools\MSVC\14.37.32822\include\vector

; 797  :             _Construct_in_place(*_Mylast, _STD forward<_Valty>(_Val)...);

	mov	rax, QWORD PTR [rcx+8]
; File C:\Program Files\Microsoft Visual Studio\2022\Community\VC\Tools\MSVC\14.37.32822\include\xutility

; 254  :         ::new (static_cast<void*>(_STD addressof(_Obj))) _Ty(_STD forward<_Types>(_Args)...);

	movups	XMMWORD PTR [rax], xmm0
	movups	xmm1, XMMWORD PTR [rdx+16]
	movups	XMMWORD PTR [rax+16], xmm1
	movups	xmm0, XMMWORD PTR [rdx+32]
	movups	XMMWORD PTR [rax+32], xmm0
; File C:\Program Files\Microsoft Visual Studio\2022\Community\VC\Tools\MSVC\14.37.32822\include\vector

; 805  :         _Ty& _Result = *_Mylast;

	mov	rax, QWORD PTR [rcx+8]

; 806  :         ++_Mylast;

	lea	rdx, QWORD PTR [rax+48]
	mov	QWORD PTR [rcx+8], rdx

; 807  : 
; 808  :         return _Result;
; 809  :     }

	ret	0
??$_Emplace_back_with_unused_capacity@UModelElement@UMii@@@?$vector@UModelElement@UMii@@V?$allocator@UModelElement@UMii@@@std@@@std@@AEAAAEAUModelElement@UMii@@$$QEAU23@@Z ENDP ; std::vector<UMii::ModelElement,std::allocator<UMii::ModelElement> >::_Emplace_back_with_unused_capacity<UMii::ModelElement>
_TEXT	ENDS
; Function compile flags: /Ogtpy
; File C:\Program Files\Microsoft Visual Studio\2022\Community\VC\Tools\MSVC\14.37.32822\include\vector
; File C:\Program Files\Microsoft Visual Studio\2022\Community\VC\Tools\MSVC\14.37.32822\include\xutility
; File C:\Program Files\Microsoft Visual Studio\2022\Community\VC\Tools\MSVC\14.37.32822\include\vector
; File C:\Program Files\Microsoft Visual Studio\2022\Community\VC\Tools\MSVC\14.37.32822\include\xutility
; File C:\Program Files\Microsoft Visual Studio\2022\Community\VC\Tools\MSVC\14.37.32822\include\vector
; File C:\Program Files\Microsoft Visual Studio\2022\Community\VC\Tools\MSVC\14.37.32822\include\xutility
; File C:\Program Files\Microsoft Visual Studio\2022\Community\VC\Tools\MSVC\14.37.32822\include\vector
; File C:\Program Files\Microsoft Visual Studio\2022\Community\VC\Tools\MSVC\14.37.32822\include\xutility
; File C:\Program Files\Microsoft Visual Studio\2022\Community\VC\Tools\MSVC\14.37.32822\include\xmemory
; File C:\Program Files\Microsoft Visual Studio\2022\Community\VC\Tools\MSVC\14.37.32822\include\vector
; File C:\Program Files\Microsoft Visual Studio\2022\Community\VC\Tools\MSVC\14.37.32822\include\xutility
; File C:\Program Files\Microsoft Visual Studio\2022\Community\VC\Tools\MSVC\14.37.32822\include\vector
; File C:\Program Files\Microsoft Visual Studio\2022\Community\VC\Tools\MSVC\14.37.32822\include\xmemory
; File C:\Program Files\Microsoft Visual Studio\2022\Community\VC\Tools\MSVC\14.37.32822\include\vector
; File C:\Program Files\Microsoft Visual Studio\2022\Community\VC\Tools\MSVC\14.37.32822\include\xmemory
; File C:\Program Files\Microsoft Visual Studio\2022\Community\VC\Tools\MSVC\14.37.32822\include\vector
;	COMDAT ??$_Emplace_reallocate@UModelElement@UMii@@@?$vector@UModelElement@UMii@@V?$allocator@UModelElement@UMii@@@std@@@std@@AEAAPEAUModelElement@UMii@@QEAU23@$$QEAU23@@Z
_TEXT	SEGMENT
this$ = 96
_Whereptr$ = 104
<_Val_0>$ = 112
??$_Emplace_reallocate@UModelElement@UMii@@@?$vector@UModelElement@UMii@@V?$allocator@UModelElement@UMii@@@std@@@std@@AEAAPEAUModelElement@UMii@@QEAU23@$$QEAU23@@Z PROC ; std::vector<UMii::ModelElement,std::allocator<UMii::ModelElement> >::_Emplace_reallocate<UMii::ModelElement>, COMDAT

; 812  :     _CONSTEXPR20 pointer _Emplace_reallocate(const pointer _Whereptr, _Valty&&... _Val) {

$LN130:
	push	rbx
	push	rdi
	push	r12
	push	r13
	push	r14
	push	r15
	sub	rsp, 40					; 00000028H

; 813  :         // reallocate and insert by perfectly forwarding _Val at _Whereptr
; 814  :         _Alty& _Al        = _Getal();
; 815  :         auto& _My_data    = _Mypair._Myval2;
; 816  :         pointer& _Myfirst = _My_data._Myfirst;
; 817  :         pointer& _Mylast  = _My_data._Mylast;
; 818  : 
; 819  :         _STL_INTERNAL_CHECK(_Mylast == _My_data._Myend); // check that we have no unused capacity
; 820  : 
; 821  :         const auto _Whereoff = static_cast<size_type>(_Whereptr - _Myfirst);
; 822  :         const auto _Oldsize  = static_cast<size_type>(_Mylast - _Myfirst);

	mov	r14, QWORD PTR [rcx+8]
	mov	r15, rdx
	mov	r13, r8
	mov	rax, 3074457345618258603		; 2aaaaaaaaaaaaaabH
	mov	r8, QWORD PTR [rcx]

; 823  : 
; 824  :         if (_Oldsize == max_size()) {

	mov	rdi, 384307168202282325			; 0555555555555555H
	sub	r14, r8
	sub	rdx, r8
	imul	rdx
	sar	r14, 4
	mov	rbx, rcx
	mov	r12, rdx
	sar	r12, 3
	mov	rax, r12
	shr	rax, 63					; 0000003fH
	add	r12, rax
	mov	rax, -6148914691236517205		; aaaaaaaaaaaaaaabH
	imul	r14, rax
	cmp	r14, rdi
	je	$LN128@Emplace_re

; 1879 :         return static_cast<size_type>(_My_data._Myend - _My_data._Myfirst);

	mov	rcx, QWORD PTR [rcx+16]

; 826  :         }
; 827  : 
; 828  :         const size_type _Newsize     = _Oldsize + 1;

	inc	r14

; 1879 :         return static_cast<size_type>(_My_data._Myend - _My_data._Myfirst);

	sub	rcx, r8
	mov	QWORD PTR [rsp+112], rbp
	sar	rcx, 4
	imul	rcx, rax

; 1966 :         if (_Oldcapacity > _Max - _Oldcapacity / 2) {

	mov	rax, rdi
	mov	QWORD PTR [rsp+32], rsi
	mov	rdx, rcx
	shr	rdx, 1
	sub	rax, rdx
	cmp	rcx, rax
	ja	SHORT $LN13@Emplace_re

; 1967 :             return _Max; // geometric growth would overflow
; 1968 :         }
; 1969 : 
; 1970 :         const size_type _Geometric = _Oldcapacity + _Oldcapacity / 2;

	lea	rdi, QWORD PTR [rdx+rcx]

; 1971 : 
; 1972 :         if (_Geometric < _Newsize) {

	cmp	rdi, r14
	cmovb	rdi, r14
$LN13@Emplace_re:

; 829  :         const size_type _Newcapacity = _Calculate_growth(_Newsize);
; 830  : 
; 831  :         const pointer _Newvec           = _Al.allocate(_Newcapacity);

	mov	rdx, rdi
	call	?allocate@?$allocator@UModelElement@UMii@@@std@@QEAAPEAUModelElement@UMii@@_K@Z ; std::allocator<UMii::ModelElement>::allocate
; File C:\Program Files\Microsoft Visual Studio\2022\Community\VC\Tools\MSVC\14.37.32822\include\xutility

; 241  :     _MSVC_CONSTEXPR return ::new (static_cast<void*>(_Location)) _Ty(_STD forward<_Types>(_Args)...);

	movups	xmm0, XMMWORD PTR [r13]
; File C:\Program Files\Microsoft Visual Studio\2022\Community\VC\Tools\MSVC\14.37.32822\include\vector

; 836  :         _Alty_traits::construct(_Al, _Unfancy(_Newvec + _Whereoff), _STD forward<_Valty>(_Val)...);

	lea	rbp, QWORD PTR [r12+r12*2]
	mov	rsi, rax
	shl	rbp, 4

; 839  :         if (_Whereptr == _Mylast) { // at back, provide strong guarantee

	mov	rcx, rax
	add	rbp, rax
; File C:\Program Files\Microsoft Visual Studio\2022\Community\VC\Tools\MSVC\14.37.32822\include\xutility

; 241  :     _MSVC_CONSTEXPR return ::new (static_cast<void*>(_Location)) _Ty(_STD forward<_Types>(_Args)...);

	movups	XMMWORD PTR [rbp], xmm0
	movups	xmm1, XMMWORD PTR [r13+16]
	movups	XMMWORD PTR [rbp+16], xmm1
	movups	xmm0, XMMWORD PTR [r13+32]
	movups	XMMWORD PTR [rbp+32], xmm0
; File C:\Program Files\Microsoft Visual Studio\2022\Community\VC\Tools\MSVC\14.37.32822\include\vector

; 839  :         if (_Whereptr == _Mylast) { // at back, provide strong guarantee

	mov	r8, QWORD PTR [rbx+8]
	mov	rdx, QWORD PTR [rbx]
	cmp	r15, r8
	jne	SHORT $LN4@Emplace_re
; File C:\Program Files\Microsoft Visual Studio\2022\Community\VC\Tools\MSVC\14.37.32822\include\xutility

; 4533 :     const auto _Count           = static_cast<size_t>(_Last_ch - _First_ch);

	sub	r8, rdx
; File C:\Program Files\Microsoft Visual Studio\2022\Community\VC\Tools\MSVC\14.37.32822\include\vector

; 845  :         } else { // provide basic guarantee

	jmp	SHORT $LN126@Emplace_re
$LN4@Emplace_re:
; File C:\Program Files\Microsoft Visual Studio\2022\Community\VC\Tools\MSVC\14.37.32822\include\xutility

; 4533 :     const auto _Count           = static_cast<size_t>(_Last_ch - _First_ch);

	mov	r8, r15
	sub	r8, rdx

; 4534 :     _CSTD memmove(_Dest_ch, _First_ch, _Count);

	call	memmove
; File C:\Program Files\Microsoft Visual Studio\2022\Community\VC\Tools\MSVC\14.37.32822\include\xmemory

; 1932 :     const auto _ULast = _Get_unwrapped(_Last);

	mov	r8, QWORD PTR [rbx+8]
; File C:\Program Files\Microsoft Visual Studio\2022\Community\VC\Tools\MSVC\14.37.32822\include\vector

; 848  :             _Uninitialized_move(_Whereptr, _Mylast, _Newvec + _Whereoff + 1, _Al);

	lea	rcx, QWORD PTR [rbp+48]
; File C:\Program Files\Microsoft Visual Studio\2022\Community\VC\Tools\MSVC\14.37.32822\include\xutility

; 4533 :     const auto _Count           = static_cast<size_t>(_Last_ch - _First_ch);

	sub	r8, r15

; 4534 :     _CSTD memmove(_Dest_ch, _First_ch, _Count);

	mov	rdx, r15
$LN126@Emplace_re:
; File C:\Program Files\Microsoft Visual Studio\2022\Community\VC\Tools\MSVC\14.37.32822\include\vector

; 848  :             _Uninitialized_move(_Whereptr, _Mylast, _Newvec + _Whereoff + 1, _Al);

	call	memmove

; 2023 :         if (_Myfirst) { // destroy and deallocate old array

	mov	rcx, QWORD PTR [rbx]
	test	rcx, rcx
	je	SHORT $LN88@Emplace_re

; 2024 :             _Destroy_range(_Myfirst, _Mylast, _Al);
; 2025 :             _ASAN_VECTOR_REMOVE;
; 2026 :             _Al.deallocate(_Myfirst, static_cast<size_type>(_Myend - _Myfirst));

	mov	rax, QWORD PTR [rbx+16]
	mov	rdx, -6148914691236517205		; aaaaaaaaaaaaaaabH
	sub	rax, rcx
	sar	rax, 4
	imul	rax, rdx
; File C:\Program Files\Microsoft Visual Studio\2022\Community\VC\Tools\MSVC\14.37.32822\include\xmemory

; 969  :         _Deallocate<_New_alignof<_Ty>>(_Ptr, sizeof(_Ty) * _Count);

	lea	rdx, QWORD PTR [rax+rax*2]
	shl	rdx, 4

; 261  :         if (_Bytes >= _Big_allocation_threshold) { // boost the alignment of big allocations to help autovectorization

	cmp	rdx, 4096				; 00001000H
	jb	SHORT $LN100@Emplace_re

; 160  :     const uintptr_t _Ptr_container   = _Ptr_user[-1];

	mov	r8, QWORD PTR [rcx-8]
	add	rdx, 39					; 00000027H

; 161  : 
; 162  :     // If the following asserts, it likely means that we are performing
; 163  :     // an aligned delete on memory coming from an unaligned allocation.
; 164  :     _STL_ASSERT(_Ptr_user[-2] == _Big_allocation_sentinel, "invalid argument");
; 165  : 
; 166  :     // Extra paranoia on aligned allocation/deallocation; ensure _Ptr_container is
; 167  :     // in range [_Min_back_shift, _Non_user_size]
; 168  : #ifdef _DEBUG
; 169  :     constexpr uintptr_t _Min_back_shift = 2 * sizeof(void*);
; 170  : #else // ^^^ _DEBUG / !_DEBUG vvv
; 171  :     constexpr uintptr_t _Min_back_shift = sizeof(void*);
; 172  : #endif // _DEBUG
; 173  :     const uintptr_t _Back_shift = reinterpret_cast<uintptr_t>(_Ptr) - _Ptr_container;

	sub	rcx, r8

; 174  :     _STL_VERIFY(_Back_shift >= _Min_back_shift && _Back_shift <= _Non_user_size, "invalid argument");

	lea	rax, QWORD PTR [rcx-8]
	cmp	rax, 31
	ja	SHORT $LN97@Emplace_re

; 175  :     _Ptr = reinterpret_cast<void*>(_Ptr_container);

	mov	rcx, r8
$LN100@Emplace_re:

; 265  :         ::operator delete(_Ptr, _Bytes);

	call	??3@YAXPEAX_K@Z				; operator delete
$LN88@Emplace_re:
; File C:\Program Files\Microsoft Visual Studio\2022\Community\VC\Tools\MSVC\14.37.32822\include\vector

; 2029 :         _Myfirst = _Newvec;

	mov	QWORD PTR [rbx], rsi

; 2030 :         _Mylast  = _Newvec + _Newsize;

	lea	rcx, QWORD PTR [r14+r14*2]
	shl	rcx, 4

; 849  :         }
; 850  :         _CATCH_ALL
; 851  :         _Destroy_range(_Constructed_first, _Constructed_last, _Al);
; 852  :         _Al.deallocate(_Newvec, _Newcapacity);
; 853  :         _RERAISE;
; 854  :         _CATCH_END
; 855  : 
; 856  :         _Change_array(_Newvec, _Newsize, _Newcapacity);
; 857  :         return _Newvec + _Whereoff;

	mov	rax, rbp
	mov	rbp, QWORD PTR [rsp+112]

; 2030 :         _Mylast  = _Newvec + _Newsize;

	add	rcx, rsi
	mov	QWORD PTR [rbx+8], rcx

; 2031 :         _Myend   = _Newvec + _Newcapacity;

	lea	rcx, QWORD PTR [rdi+rdi*2]
	shl	rcx, 4
	add	rcx, rsi
	mov	rsi, QWORD PTR [rsp+32]
	mov	QWORD PTR [rbx+16], rcx

; 858  :     }

	add	rsp, 40					; 00000028H
	pop	r15
	pop	r14
	pop	r13
	pop	r12
	pop	rdi
	pop	rbx
	ret	0
$LN97@Emplace_re:
; File C:\Program Files\Microsoft Visual Studio\2022\Community\VC\Tools\MSVC\14.37.32822\include\xmemory

; 174  :     _STL_VERIFY(_Back_shift >= _Min_back_shift && _Back_shift <= _Non_user_size, "invalid argument");

	call	QWORD PTR __imp__invalid_parameter_noinfo_noreturn
	int	3
$LN128@Emplace_re:
; File C:\Program Files\Microsoft Visual Studio\2022\Community\VC\Tools\MSVC\14.37.32822\include\vector

; 825  :             _Xlength();

	call	?_Xlength@?$vector@UModelElement@UMii@@V?$allocator@UModelElement@UMii@@@std@@@std@@CAXXZ ; std::vector<UMii::ModelElement,std::allocator<UMii::ModelElement> >::_Xlength
	int	3
$LN125@Emplace_re:
??$_Emplace_reallocate@UModelElement@UMii@@@?$vector@UModelElement@UMii@@V?$allocator@UModelElement@UMii@@@std@@@std@@AEAAPEAUModelElement@UMii@@QEAU23@$$QEAU23@@Z ENDP ; std::vector<UMii::ModelElement,std::allocator<UMii::ModelElement> >::_Emplace_reallocate<UMii::ModelElement>
_TEXT	ENDS
; Function compile flags: /Ogtpy
; File C:\Program Files\Microsoft Visual Studio\2022\Community\VC\Tools\MSVC\14.37.32822\include\vector
;	COMDAT ?_Orphan_range@?$vector@UModelElement@UMii@@V?$allocator@UModelElement@UMii@@@std@@@std@@AEBAXPEAUModelElement@UMii@@0@Z
_TEXT	SEGMENT
this$dead$ = 8
__formal$dead$ = 16
__formal$dead$ = 24
?_Orphan_range@?$vector@UModelElement@UMii@@V?$allocator@UModelElement@UMii@@@std@@@std@@AEBAXPEAUModelElement@UMii@@0@Z PROC ; std::vector<UMii::ModelElement,std::allocator<UMii::ModelElement> >::_Orphan_range, COMDAT

; 2177 :     _CONSTEXPR20 void _Orphan_range(pointer, pointer) const {}

	ret	0
?_Orphan_range@?$vector@UModelElement@UMii@@V?$allocator@UModelElement@UMii@@@std@@@std@@AEBAXPEAUModelElement@UMii@@0@Z ENDP ; std::vector<UMii::ModelElement,std::allocator<UMii::ModelElement> >::_Orphan_range
_TEXT	ENDS
; Function compile flags: /Ogtpy
; File C:\Program Files\Microsoft Visual Studio\2022\Community\VC\Tools\MSVC\14.37.32822\include\vector
; File C:\Program Files\Microsoft Visual Studio\2022\Community\VC\Tools\MSVC\14.37.32822\include\xmemory
; File C:\Program Files\Microsoft Visual Studio\2022\Community\VC\Tools\MSVC\14.37.32822\include\vector
; File C:\Program Files\Microsoft Visual Studio\2022\Community\VC\Tools\MSVC\14.37.32822\include\xmemory
; File C:\Program Files\Microsoft Visual Studio\2022\Community\VC\Tools\MSVC\14.37.32822\include\vector
;	COMDAT ?_Change_array@?$vector@UModelElement@UMii@@V?$allocator@UModelElement@UMii@@@std@@@std@@AEAAXQEAUModelElement@UMii@@_K1@Z
_TEXT	SEGMENT
this$ = 48
_Newvec$ = 56
_Newsize$ = 64
_Newcapacity$ = 72
?_Change_array@?$vector@UModelElement@UMii@@V?$allocator@UModelElement@UMii@@@std@@@std@@AEAAXQEAUModelElement@UMii@@_K1@Z PROC ; std::vector<UMii::ModelElement,std::allocator<UMii::ModelElement> >::_Change_array, COMDAT

; 2013 :     _CONSTEXPR20 void _Change_array(const pointer _Newvec, const size_type _Newsize, const size_type _Newcapacity) {

$LN30:
	mov	QWORD PTR [rsp+16], rbx
	mov	QWORD PTR [rsp+24], rsi
	mov	QWORD PTR [rsp+32], rdi
	push	r14
	sub	rsp, 32					; 00000020H
	mov	rbx, rcx
	mov	rsi, r9

; 2014 :         // orphan all iterators, discard old array, acquire new array
; 2015 :         auto& _Al         = _Getal();
; 2016 :         auto& _My_data    = _Mypair._Myval2;
; 2017 :         pointer& _Myfirst = _My_data._Myfirst;
; 2018 :         pointer& _Mylast  = _My_data._Mylast;
; 2019 :         pointer& _Myend   = _My_data._Myend;
; 2020 : 
; 2021 :         _My_data._Orphan_all();
; 2022 : 
; 2023 :         if (_Myfirst) { // destroy and deallocate old array

	mov	rcx, QWORD PTR [rcx]
	mov	r14, r8
	mov	rdi, rdx
	test	rcx, rcx
	je	SHORT $LN8@Change_arr

; 2024 :             _Destroy_range(_Myfirst, _Mylast, _Al);
; 2025 :             _ASAN_VECTOR_REMOVE;
; 2026 :             _Al.deallocate(_Myfirst, static_cast<size_type>(_Myend - _Myfirst));

	mov	rax, QWORD PTR [rbx+16]
	mov	rdx, -6148914691236517205		; aaaaaaaaaaaaaaabH
	sub	rax, rcx
	sar	rax, 4
	imul	rax, rdx
; File C:\Program Files\Microsoft Visual Studio\2022\Community\VC\Tools\MSVC\14.37.32822\include\xmemory

; 969  :         _Deallocate<_New_alignof<_Ty>>(_Ptr, sizeof(_Ty) * _Count);

	lea	rdx, QWORD PTR [rax+rax*2]
	shl	rdx, 4

; 261  :         if (_Bytes >= _Big_allocation_threshold) { // boost the alignment of big allocations to help autovectorization

	cmp	rdx, 4096				; 00001000H
	jb	SHORT $LN20@Change_arr

; 160  :     const uintptr_t _Ptr_container   = _Ptr_user[-1];

	mov	r8, QWORD PTR [rcx-8]
	add	rdx, 39					; 00000027H

; 161  : 
; 162  :     // If the following asserts, it likely means that we are performing
; 163  :     // an aligned delete on memory coming from an unaligned allocation.
; 164  :     _STL_ASSERT(_Ptr_user[-2] == _Big_allocation_sentinel, "invalid argument");
; 165  : 
; 166  :     // Extra paranoia on aligned allocation/deallocation; ensure _Ptr_container is
; 167  :     // in range [_Min_back_shift, _Non_user_size]
; 168  : #ifdef _DEBUG
; 169  :     constexpr uintptr_t _Min_back_shift = 2 * sizeof(void*);
; 170  : #else // ^^^ _DEBUG / !_DEBUG vvv
; 171  :     constexpr uintptr_t _Min_back_shift = sizeof(void*);
; 172  : #endif // _DEBUG
; 173  :     const uintptr_t _Back_shift = reinterpret_cast<uintptr_t>(_Ptr) - _Ptr_container;

	sub	rcx, r8

; 174  :     _STL_VERIFY(_Back_shift >= _Min_back_shift && _Back_shift <= _Non_user_size, "invalid argument");

	lea	rax, QWORD PTR [rcx-8]
	cmp	rax, 31
	ja	SHORT $LN17@Change_arr

; 175  :     _Ptr = reinterpret_cast<void*>(_Ptr_container);

	mov	rcx, r8
$LN20@Change_arr:

; 265  :         ::operator delete(_Ptr, _Bytes);

	call	??3@YAXPEAX_K@Z				; operator delete
$LN8@Change_arr:
; File C:\Program Files\Microsoft Visual Studio\2022\Community\VC\Tools\MSVC\14.37.32822\include\vector

; 2029 :         _Myfirst = _Newvec;

	mov	QWORD PTR [rbx], rdi

; 2030 :         _Mylast  = _Newvec + _Newsize;

	lea	rax, QWORD PTR [r14+r14*2]
	shl	rax, 4
	add	rax, rdi
	mov	QWORD PTR [rbx+8], rax

; 2031 :         _Myend   = _Newvec + _Newcapacity;

	lea	rax, QWORD PTR [rsi+rsi*2]

; 2033 :     }

	mov	rsi, QWORD PTR [rsp+64]
	shl	rax, 4
	add	rax, rdi
	mov	rdi, QWORD PTR [rsp+72]
	mov	QWORD PTR [rbx+16], rax
	mov	rbx, QWORD PTR [rsp+56]
	add	rsp, 32					; 00000020H
	pop	r14
	ret	0
$LN17@Change_arr:
; File C:\Program Files\Microsoft Visual Studio\2022\Community\VC\Tools\MSVC\14.37.32822\include\xmemory

; 174  :     _STL_VERIFY(_Back_shift >= _Min_back_shift && _Back_shift <= _Non_user_size, "invalid argument");

	call	QWORD PTR __imp__invalid_parameter_noinfo_noreturn
	int	3
$LN27@Change_arr:
?_Change_array@?$vector@UModelElement@UMii@@V?$allocator@UModelElement@UMii@@@std@@@std@@AEAAXQEAUModelElement@UMii@@_K1@Z ENDP ; std::vector<UMii::ModelElement,std::allocator<UMii::ModelElement> >::_Change_array
_TEXT	ENDS
; Function compile flags: /Ogtpy
; File C:\Program Files\Microsoft Visual Studio\2022\Community\VC\Tools\MSVC\14.37.32822\include\xutility
;	COMDAT ??$_Construct_in_place@UModelElement@UMii@@U12@@std@@YAXAEAUModelElement@UMii@@$$QEAU12@@Z
_TEXT	SEGMENT
_Obj$ = 8
<_Args_0>$ = 16
??$_Construct_in_place@UModelElement@UMii@@U12@@std@@YAXAEAUModelElement@UMii@@$$QEAU12@@Z PROC ; std::_Construct_in_place<UMii::ModelElement,UMii::ModelElement>, COMDAT

; 248  : #if _HAS_CXX20
; 249  :     if (_STD is_constant_evaluated()) {
; 250  :         _STD construct_at(_STD addressof(_Obj), _STD forward<_Types>(_Args)...);
; 251  :     } else
; 252  : #endif // _HAS_CXX20
; 253  :     {
; 254  :         ::new (static_cast<void*>(_STD addressof(_Obj))) _Ty(_STD forward<_Types>(_Args)...);

	movups	xmm0, XMMWORD PTR [rdx]
	movups	XMMWORD PTR [rcx], xmm0
	movups	xmm1, XMMWORD PTR [rdx+16]
	movups	XMMWORD PTR [rcx+16], xmm1
	movups	xmm0, XMMWORD PTR [rdx+32]
	movups	XMMWORD PTR [rcx+32], xmm0

; 255  :     }
; 256  : }

	ret	0
??$_Construct_in_place@UModelElement@UMii@@U12@@std@@YAXAEAUModelElement@UMii@@$$QEAU12@@Z ENDP ; std::_Construct_in_place<UMii::ModelElement,UMii::ModelElement>
_TEXT	ENDS
; Function compile flags: /Ogtpy
; File C:\Program Files\Microsoft Visual Studio\2022\Community\VC\Tools\MSVC\14.37.32822\include\xmemory
; File C:\Program Files\Microsoft Visual Studio\2022\Community\VC\Tools\MSVC\14.37.32822\include\xutility
; File C:\Program Files\Microsoft Visual Studio\2022\Community\VC\Tools\MSVC\14.37.32822\include\xmemory
;	COMDAT ??$construct@UModelElement@UMii@@U12@@?$_Default_allocator_traits@V?$allocator@UModelElement@UMii@@@std@@@std@@SAXAEAV?$allocator@UModelElement@UMii@@@1@QEAUModelElement@UMii@@$$QEAU34@@Z
_TEXT	SEGMENT
__formal$dead$ = 8
_Ptr$ = 16
<_Args_0>$ = 24
??$construct@UModelElement@UMii@@U12@@?$_Default_allocator_traits@V?$allocator@UModelElement@UMii@@@std@@@std@@SAXAEAV?$allocator@UModelElement@UMii@@@1@QEAUModelElement@UMii@@$$QEAU34@@Z PROC ; std::_Default_allocator_traits<std::allocator<UMii::ModelElement> >::construct<UMii::ModelElement,UMii::ModelElement>, COMDAT
; File C:\Program Files\Microsoft Visual Studio\2022\Community\VC\Tools\MSVC\14.37.32822\include\xutility

; 241  :     _MSVC_CONSTEXPR return ::new (static_cast<void*>(_Location)) _Ty(_STD forward<_Types>(_Args)...);

	movups	xmm0, XMMWORD PTR [r8]
	movups	XMMWORD PTR [rdx], xmm0
	movups	xmm1, XMMWORD PTR [r8+16]
	movups	XMMWORD PTR [rdx+16], xmm1
	movups	xmm0, XMMWORD PTR [r8+32]
	movups	XMMWORD PTR [rdx+32], xmm0
; File C:\Program Files\Microsoft Visual Studio\2022\Community\VC\Tools\MSVC\14.37.32822\include\xmemory

; 721  :     }

	ret	0
??$construct@UModelElement@UMii@@U12@@?$_Default_allocator_traits@V?$allocator@UModelElement@UMii@@@std@@@std@@SAXAEAV?$allocator@UModelElement@UMii@@@1@QEAUModelElement@UMii@@$$QEAU34@@Z ENDP ; std::_Default_allocator_traits<std::allocator<UMii::ModelElement> >::construct<UMii::ModelElement,UMii::ModelElement>
_TEXT	ENDS
; Function compile flags: /Ogtpy
; File C:\Program Files\Microsoft Visual Studio\2022\Community\VC\Tools\MSVC\14.37.32822\include\xutility
;	COMDAT ??$_Get_unwrapped@AEBQEAUModelElement@UMii@@@std@@YA?A_TAEBQEAUModelElement@UMii@@@Z
_TEXT	SEGMENT
_It$ = 8
