; Listing generated by Microsoft (R) Optimizing Compiler Version 19.37.32822.0 

include listing.inc

INCLUDELIB OLDNAMES

PUBLIC	??_C@_08OBNFFMDJ@is_empty@			; `string'
PUBLIC	??_C@_06LEMKAMD@remove@				; `string'
PUBLIC	??_C@_09IEBMEPAH@copy_file@			; `string'
PUBLIC	??_C@_0BD@EPABGGCG@create_directories@		; `string'
PUBLIC	??_C@_04KDDNKLJG@Util@				; `string'
PUBLIC	??_C@_04COAGEIMF@copy@				; `string'
PUBLIC	??_R1A@?0A@EA@?$basic_istringstream@DU?$char_traits@D@std@@V?$allocator@D@2@@std@@8 ; std::basic_istringstream<char,std::char_traits<char>,std::allocator<char> >::`RTTI Base Class Descriptor at (0,-1,0,64)'
PUBLIC	??_R2?$basic_istringstream@DU?$char_traits@D@std@@V?$allocator@D@2@@std@@8 ; std::basic_istringstream<char,std::char_traits<char>,std::allocator<char> >::`RTTI Base Class Array'
PUBLIC	??_R3?$basic_istringstream@DU?$char_traits@D@std@@V?$allocator@D@2@@std@@8 ; std::basic_istringstream<char,std::char_traits<char>,std::allocator<char> >::`RTTI Class Hierarchy Descriptor'
PUBLIC	??_R0?AV?$basic_istringstream@DU?$char_traits@D@std@@V?$allocator@D@2@@std@@@8 ; std::basic_istringstream<char,std::char_traits<char>,std::allocator<char> > `RTTI Type Descriptor'
PUBLIC	??_8?$basic_istringstream@DU?$char_traits@D@std@@V?$allocator@D@2@@std@@7B@ ; std::basic_istringstream<char,std::char_traits<char>,std::allocator<char> >::`vbtable'
PUBLIC	??_R4?$basic_istringstream@DU?$char_traits@D@std@@V?$allocator@D@2@@std@@6B@ ; std::basic_istringstream<char,std::char_traits<char>,std::allocator<char> >::`RTTI Complete Object Locator'
PUBLIC	??_7?$basic_istringstream@DU?$char_traits@D@std@@V?$allocator@D@2@@std@@6B@ ; std::basic_istringstream<char,std::char_traits<char>,std::allocator<char> >::`vftable'
EXTRN	__imp_??5?$basic_istream@DU?$char_traits@D@std@@@std@@QEAAAEAV01@AEAM@Z:PROC
EXTRN	__imp_??5?$basic_istream@DU?$char_traits@D@std@@@std@@QEAAAEAV01@AEA_J@Z:PROC
EXTRN	__imp_??5?$basic_istream@DU?$char_traits@D@std@@@std@@QEAAAEAV01@AEAI@Z:PROC
EXTRN	__imp_??5?$basic_istream@DU?$char_traits@D@std@@@std@@QEAAAEAV01@AEA_K@Z:PROC
EXTRN	__imp_??5?$basic_istream@DU?$char_traits@D@std@@@std@@QEAAAEAV01@AEAH@Z:PROC
EXTRN	__std_fs_create_symbolic_link:PROC
EXTRN	__std_fs_read_reparse_data_buffer:PROC
EXTRN	__std_fs_create_directory:PROC
EXTRN	__std_fs_copy_file:PROC
EXTRN	__std_fs_get_file_attributes_by_handle:PROC
EXTRN	__std_fs_write_reparse_data_buffer:PROC
EXTRN	__std_fs_read_name_from_reparse_data_buffer:PROC
EXTRN	??_U@YAPEAX_KAEBUnothrow_t@std@@@Z:PROC		; operator new[]
EXTRN	__std_fs_create_hard_link:PROC
EXTRN	__std_fs_get_file_id:PROC
EXTRN	__std_fs_remove:PROC
EXTRN	__std_fs_open_handle:PROC
EXTRN	__std_fs_close_handle:PROC
EXTRN	__std_fs_is_junction_from_reparse_data_buffer:PROC
EXTRN	__std_fs_create_directory_symbolic_link:PROC
;	COMDAT ??_7?$basic_istringstream@DU?$char_traits@D@std@@V?$allocator@D@2@@std@@6B@
CONST	SEGMENT
??_7?$basic_istringstream@DU?$char_traits@D@std@@V?$allocator@D@2@@std@@6B@ DQ FLAT:??_R4?$basic_istringstream@DU?$char_traits@D@std@@V?$allocator@D@2@@std@@6B@ ; std::basic_istringstream<char,std::char_traits<char>,std::allocator<char> >::`vftable'
	DQ	FLAT:??_E?$basic_istringstream@DU?$char_traits@D@std@@V?$allocator@D@2@@std@@$4PPPPPPPM@A@EAAPEAXI@Z
CONST	ENDS
;	COMDAT ??_R4?$basic_istringstream@DU?$char_traits@D@std@@V?$allocator@D@2@@std@@6B@
rdata$r	SEGMENT
??_R4?$basic_istringstream@DU?$char_traits@D@std@@V?$allocator@D@2@@std@@6B@ DD 01H ; std::basic_istringstream<char,std::char_traits<char>,std::allocator<char> >::`RTTI Complete Object Locator'
	DD	090H
	DD	04H
	DD	imagerel ??_R0?AV?$basic_istringstream@DU?$char_traits@D@std@@V?$allocator@D@2@@std@@@8
	DD	imagerel ??_R3?$basic_istringstream@DU?$char_traits@D@std@@V?$allocator@D@2@@std@@8
	DD	imagerel ??_R4?$basic_istringstream@DU?$char_traits@D@std@@V?$allocator@D@2@@std@@6B@
rdata$r	ENDS
;	COMDAT ??_8?$basic_istringstream@DU?$char_traits@D@std@@V?$allocator@D@2@@std@@7B@
CONST	SEGMENT
??_8?$basic_istringstream@DU?$char_traits@D@std@@V?$allocator@D@2@@std@@7B@ DD 00H ; std::basic_istringstream<char,std::char_traits<char>,std::allocator<char> >::`vbtable'
	DD	090H
CONST	ENDS
;	COMDAT ??_R0?AV?$basic_istringstream@DU?$char_traits@D@std@@V?$allocator@D@2@@std@@@8
data$rs	SEGMENT
??_R0?AV?$basic_istringstream@DU?$char_traits@D@std@@V?$allocator@D@2@@std@@@8 DQ FLAT:??_7type_info@@6B@ ; std::basic_istringstream<char,std::char_traits<char>,std::allocator<char> > `RTTI Type Descriptor'
	DQ	0000000000000000H
	DB	'.?AV?$basic_istringstream@DU?$char_traits@D@std@@V?$allo'
	DB	'cator@D@2@@std@@', 00H
data$rs	ENDS
;	COMDAT ??_R3?$basic_istringstream@DU?$char_traits@D@std@@V?$allocator@D@2@@std@@8
rdata$r	SEGMENT
??_R3?$basic_istringstream@DU?$char_traits@D@std@@V?$allocator@D@2@@std@@8 DD 00H ; std::basic_istringstream<char,std::char_traits<char>,std::allocator<char> >::`RTTI Class Hierarchy Descriptor'
	DD	00H
	DD	05H
	DD	imagerel ??_R2?$basic_istringstream@DU?$char_traits@D@std@@V?$allocator@D@2@@std@@8
rdata$r	ENDS
;	COMDAT ??_R2?$basic_istringstream@DU?$char_traits@D@std@@V?$allocator@D@2@@std@@8
rdata$r	SEGMENT
??_R2?$basic_istringstream@DU?$char_traits@D@std@@V?$allocator@D@2@@std@@8 DD imagerel ??_R1A@?0A@EA@?$basic_istringstream@DU?$char_traits@D@std@@V?$allocator@D@2@@std@@8 ; std::basic_istringstream<char,std::char_traits<char>,std::allocator<char> >::`RTTI Base Class Array'
	DD	imagerel ??_R1A@?0A@EA@?$basic_istream@DU?$char_traits@D@std@@@std@@8
	DD	imagerel ??_R1A@A@3FA@?$basic_ios@DU?$char_traits@D@std@@@std@@8
	DD	imagerel ??_R1A@A@3EA@ios_base@std@@8
	DD	imagerel ??_R17A@3EA@?$_Iosb@H@std@@8
	ORG $+3
rdata$r	ENDS
;	COMDAT ??_R1A@?0A@EA@?$basic_istringstream@DU?$char_traits@D@std@@V?$allocator@D@2@@std@@8
rdata$r	SEGMENT
??_R1A@?0A@EA@?$basic_istringstream@DU?$char_traits@D@std@@V?$allocator@D@2@@std@@8 DD imagerel ??_R0?AV?$basic_istringstream@DU?$char_traits@D@std@@V?$allocator@D@2@@std@@@8 ; std::basic_istringstream<char,std::char_traits<char>,std::allocator<char> >::`RTTI Base Class Descriptor at (0,-1,0,64)'
	DD	04H
	DD	00H
	DD	0ffffffffH
	DD	00H
	DD	040H
	DD	imagerel ??_R3?$basic_istringstream@DU?$char_traits@D@std@@V?$allocator@D@2@@std@@8
rdata$r	ENDS
;	COMDAT ??_C@_04COAGEIMF@copy@
CONST	SEGMENT
??_C@_04COAGEIMF@copy@ DB 'copy', 00H			; `string'
CONST	ENDS
;	COMDAT ??_C@_04KDDNKLJG@Util@
CONST	SEGMENT
??_C@_04KDDNKLJG@Util@ DB 'Util', 00H			; `string'
CONST	ENDS
;	COMDAT ??_C@_0BD@EPABGGCG@create_directories@
CONST	SEGMENT
??_C@_0BD@EPABGGCG@create_directories@ DB 'create_directories', 00H ; `string'
CONST	ENDS
;	COMDAT ??_C@_09IEBMEPAH@copy_file@
CONST	SEGMENT
??_C@_09IEBMEPAH@copy_file@ DB 'copy_file', 00H		; `string'
CONST	ENDS
;	COMDAT ??_C@_06LEMKAMD@remove@
CONST	SEGMENT
??_C@_06LEMKAMD@remove@ DB 'remove', 00H		; `string'
CONST	ENDS
;	COMDAT ??_C@_08OBNFFMDJ@is_empty@
CONST	SEGMENT
??_C@_08OBNFFMDJ@is_empty@ DB 'is_empty', 00H		; `string'
PUBLIC	??_E?$basic_istringstream@DU?$char_traits@D@std@@V?$allocator@D@2@@std@@$4PPPPPPPM@A@EAAPEAXI@Z ; std::basic_istringstream<char,std::char_traits<char>,std::allocator<char> >::`vector deleting destructor'
PUBLIC	??$_Refancy@PEBD$0A@@std@@YAPEBDPEBD@Z		; std::_Refancy<char const *,0>
PUBLIC	??$forward@PEA_W@std@@YA$$QEAPEA_WAEAPEA_W@Z	; std::forward<wchar_t *>
PUBLIC	?_Seek_to@?$_String_const_iterator@V?$_String_val@U?$_Simple_types@D@std@@@std@@@std@@QEAAXPEBD@Z ; std::_String_const_iterator<std::_String_val<std::_Simple_types<char> > >::_Seek_to
PUBLIC	??$exchange@PEA_W$$T@std@@YAPEA_WAEAPEA_W$$QEA$$T@Z ; std::exchange<wchar_t *,std::nullptr_t>
PUBLIC	??$_Seek_wrapped@V?$_String_iterator@V?$_String_val@U?$_Simple_types@D@std@@@std@@@std@@AEAPEAD@std@@YAXAEAV?$_String_iterator@V?$_String_val@U?$_Simple_types@D@std@@@std@@@0@AEAPEAD@Z ; std::_Seek_wrapped<std::_String_iterator<std::_String_val<std::_Simple_types<char> > >,char * &>
PUBLIC	??$forward@W4__std_win_error@@@std@@YA$$QEAW4__std_win_error@@AEAW41@@Z ; std::forward<enum __std_win_error>
PUBLIC	??$forward@AEAW4__std_win_error@@@std@@YAAEAW4__std_win_error@@AEAW41@@Z ; std::forward<enum __std_win_error &>
PUBLIC	??$?0$$V@?$_Compressed_pair@U?$default_delete@$$BY0A@D@std@@PEAD$00@std@@QEAA@U_Zero_then_variadic_args_t@1@@Z ; std::_Compressed_pair<std::default_delete<char [0]>,char *,1>::_Compressed_pair<std::default_delete<char [0]>,char *,1><>
PUBLIC	??$exchange@PEADAEAPEAD@std@@YAPEADAEAPEAD0@Z	; std::exchange<char *,char * &>
PUBLIC	??$?0U?$default_delete@$$BY0A@_W@std@@PEA_W@?$_Compressed_pair@U?$default_delete@$$BY0A@_W@std@@PEA_W$00@std@@QEAA@U_One_then_variadic_args_t@1@$$QEAU?$default_delete@$$BY0A@_W@1@$$QEAPEA_W@Z ; std::_Compressed_pair<std::default_delete<wchar_t [0]>,wchar_t *,1>::_Compressed_pair<std::default_delete<wchar_t [0]>,wchar_t *,1><std::default_delete<wchar_t [0]>,wchar_t *>
PUBLIC	??$forward@U?$default_delete@$$BY0A@_W@std@@@std@@YA$$QEAU?$default_delete@$$BY0A@_W@0@AEAU10@@Z ; std::forward<std::default_delete<wchar_t [0]> >
PUBLIC	??$_Seek_wrapped@PEA_WAEAPEA_W@std@@YAXAEAPEA_W0@Z ; std::_Seek_wrapped<wchar_t *,wchar_t * &>
PUBLIC	??$?0AEAPEA_W@?$_Compressed_pair@U?$default_delete@$$BY0A@_W@std@@PEA_W$00@std@@QEAA@U_Zero_then_variadic_args_t@1@AEAPEA_W@Z ; std::_Compressed_pair<std::default_delete<wchar_t [0]>,wchar_t *,1>::_Compressed_pair<std::default_delete<wchar_t [0]>,wchar_t *,1><wchar_t * &>
PUBLIC	?get_deleter@?$unique_ptr@$$BY0A@_WU?$default_delete@$$BY0A@_W@std@@@std@@QEAAAEAU?$default_delete@$$BY0A@_W@2@XZ ; std::unique_ptr<wchar_t [0],std::default_delete<wchar_t [0]> >::get_deleter
PUBLIC	?release@?$unique_ptr@$$BY0A@_WU?$default_delete@$$BY0A@_W@std@@@std@@QEAAPEA_WXZ ; std::unique_ptr<wchar_t [0],std::default_delete<wchar_t [0]> >::release
PUBLIC	?_Verify_offset@?$_String_const_iterator@V?$_String_val@U?$_Simple_types@D@std@@@std@@@std@@QEBAX_J@Z ; std::_String_const_iterator<std::_String_val<std::_Simple_types<char> > >::_Verify_offset
PUBLIC	??$_Reallocate_grow_by@V<lambda_1>@?1??replace@?$basic_string@DU?$char_traits@D@std@@V?$allocator@D@2@@std@@QEAAAEAV34@_K_KQEBD0@Z@_K_KPEBD_K@?$basic_string@DU?$char_traits@D@std@@V?$allocator@D@2@@std@@AEAAAEAV01@_KV<lambda_1>@?1??replace@01@QEAAAEAV01@0_KQEBD0@Z@11PEBD1@Z ; std::basic_string<char,std::char_traits<char>,std::allocator<char> >::_Reallocate_grow_by<`std::basic_string<char,std::char_traits<char>,std::allocator<char> >::replace'::`2'::<lambda_1>,unsigned __int64,unsigned __int64,char const *,unsigned __int64>
PUBLIC	??$_Reallocate_grow_by@V<lambda_1>@?1??reserve@?$basic_string@_WU?$char_traits@_W@std@@V?$allocator@_W@2@@std@@QEAAX_K@Z@$$V@?$basic_string@_WU?$char_traits@_W@std@@V?$allocator@_W@2@@std@@AEAAAEAV01@_KV<lambda_1>@?1??reserve@01@QEAAX0@Z@@Z ; std::basic_string<wchar_t,std::char_traits<wchar_t>,std::allocator<wchar_t> >::_Reallocate_grow_by<`std::basic_string<wchar_t,std::char_traits<wchar_t>,std::allocator<wchar_t> >::reserve'::`2'::<lambda_1> >
PUBLIC	??$?R_W$0A@@?$default_delete@$$BY0A@_W@std@@QEBAXPEA_W@Z ; std::default_delete<wchar_t [0]>::operator()<wchar_t,0>
PUBLIC	??$?RD$0A@@?$default_delete@$$BY0A@D@std@@QEBAXPEAD@Z ; std::default_delete<char [0]>::operator()<char,0>
PUBLIC	??$_Get_unwrapped@AEAV?$_String_iterator@V?$_String_val@U?$_Simple_types@D@std@@@std@@@std@@@std@@YA?A_TAEAV?$_String_iterator@V?$_String_val@U?$_Simple_types@D@std@@@std@@@0@@Z ; std::_Get_unwrapped<std::_String_iterator<std::_String_val<std::_Simple_types<char> > > &>
PUBLIC	??$_Get_unwrapped_n@AEAV?$_String_iterator@V?$_String_val@U?$_Simple_types@D@std@@@std@@@std@@_J@std@@YA?A_TAEAV?$_String_iterator@V?$_String_val@U?$_Simple_types@D@std@@@std@@@0@_J@Z ; std::_Get_unwrapped_n<std::_String_iterator<std::_String_val<std::_Simple_types<char> > > &,__int64>
PUBLIC	??$_Idl_distance@V?$_String_iterator@V?$_String_val@U?$_Simple_types@D@std@@@std@@@std@@PEAD@std@@YA?A_PAEBQEAD0@Z ; std::_Idl_distance<std::_String_iterator<std::_String_val<std::_Simple_types<char> > >,char *>
PUBLIC	??$transform@V?$_String_iterator@V?$_String_val@U?$_Simple_types@D@std@@@std@@@std@@V12@P6AHH@Z@std@@YA?AV?$_String_iterator@V?$_String_val@U?$_Simple_types@D@std@@@std@@@0@V10@0V10@P6AHH@Z@Z ; std::transform<std::_String_iterator<std::_String_val<std::_Simple_types<char> > >,std::_String_iterator<std::_String_val<std::_Simple_types<char> > >,int (__cdecl*)(int)>
PUBLIC	??$degrees@M@glm@@YAMM@Z			; glm::degrees<float>
PUBLIC	??$append@PEB_W$0A@@?$basic_string@_WU?$char_traits@_W@std@@V?$allocator@_W@2@@std@@QEAAAEAV01@QEB_W0@Z ; std::basic_string<wchar_t,std::char_traits<wchar_t>,std::allocator<wchar_t> >::append<wchar_t const *,0>
PUBLIC	??$?0W4__std_win_error@@_N$0A@@?$pair@W4__std_win_error@@_N@std@@QEAA@$$QEAW4__std_win_error@@$$QEA_N@Z ; std::pair<enum __std_win_error,bool>::pair<enum __std_win_error,bool><enum __std_win_error,bool,0>
PUBLIC	??$?0AEAW4__std_win_error@@_N$0A@@?$pair@W4__std_win_error@@_N@std@@QEAA@AEAW4__std_win_error@@$$QEA_N@Z ; std::pair<enum __std_win_error,bool>::pair<enum __std_win_error,bool><enum __std_win_error &,bool,0>
PUBLIC	??$?0U?$default_delete@$$BY0A@D@std@@$0A@@?$unique_ptr@$$BY0A@DU?$default_delete@$$BY0A@D@std@@@std@@QEAA@XZ ; std::unique_ptr<char [0],std::default_delete<char [0]> >::unique_ptr<char [0],std::default_delete<char [0]> ><std::default_delete<char [0]>,0>
PUBLIC	??$reset@PEAD$0A@@?$unique_ptr@$$BY0A@DU?$default_delete@$$BY0A@D@std@@@std@@QEAAXPEAD@Z ; std::unique_ptr<char [0],std::default_delete<char [0]> >::reset<char *,0>
PUBLIC	??$?0U?$default_delete@$$BY0A@_W@std@@$0A@@?$unique_ptr@$$BY0A@_WU?$default_delete@$$BY0A@_W@std@@@std@@QEAA@$$QEAV01@@Z ; std::unique_ptr<wchar_t [0],std::default_delete<wchar_t [0]> >::unique_ptr<wchar_t [0],std::default_delete<wchar_t [0]> ><std::default_delete<wchar_t [0]>,0>
PUBLIC	??$_Get_unwrapped_n@AEAPEA_W_J@std@@YA?A_TAEAPEA_W_J@Z ; std::_Get_unwrapped_n<wchar_t * &,__int64>
PUBLIC	??$_Idl_distance@PEB_WPEB_W@std@@YA?A_PAEBQEB_W0@Z ; std::_Idl_distance<wchar_t const *,wchar_t const *>
PUBLIC	??$replace_copy_if@PEB_WPEA_WU_Is_slash_oper@std@@_W@std@@YAPEA_WPEB_W0PEA_WU_Is_slash_oper@0@AEB_W@Z ; std::replace_copy_if<wchar_t const *,wchar_t *,std::_Is_slash_oper,wchar_t>
PUBLIC	??$?0PEA_WU?$default_delete@$$BY0A@_W@std@@$0A@$0A@@?$unique_ptr@$$BY0A@_WU?$default_delete@$$BY0A@_W@std@@@std@@QEAA@PEA_W@Z ; std::unique_ptr<wchar_t [0],std::default_delete<wchar_t [0]> >::unique_ptr<wchar_t [0],std::default_delete<wchar_t [0]> ><wchar_t *,std::default_delete<wchar_t [0]>,0,0>
PUBLIC	?_Init@?$basic_stringbuf@DU?$char_traits@D@std@@V?$allocator@D@2@@std@@IEAAXPEBD_KH@Z ; std::basic_stringbuf<char,std::char_traits<char>,std::allocator<char> >::_Init
PUBLIC	??R<lambda_1>@?1??replace@?$basic_string@DU?$char_traits@D@std@@V?$allocator@D@2@@std@@QEAAAEAV23@_K_KQEBD0@Z@QEBA@QEAD200020@Z ; `std::basic_string<char,std::char_traits<char>,std::allocator<char> >::replace'::`2'::<lambda_1>::operator()
PUBLIC	?replace@?$basic_string@DU?$char_traits@D@std@@V?$allocator@D@2@@std@@QEAAAEAV12@_K_KQEBD0@Z ; std::basic_string<char,std::char_traits<char>,std::allocator<char> >::replace
PUBLIC	??0?$basic_stringbuf@DU?$char_traits@D@std@@V?$allocator@D@2@@std@@QEAA@AEBV?$basic_string@DU?$char_traits@D@std@@V?$allocator@D@2@@1@H@Z ; std::basic_stringbuf<char,std::char_traits<char>,std::allocator<char> >::basic_stringbuf<char,std::char_traits<char>,std::allocator<char> >
PUBLIC	?_Get_first@?$_Compressed_pair@U?$default_delete@$$BY0A@_W@std@@PEA_W$00@std@@QEAAAEAU?$default_delete@$$BY0A@_W@2@XZ ; std::_Compressed_pair<std::default_delete<wchar_t [0]>,wchar_t *,1>::_Get_first
PUBLIC	?_Get_first@?$_Compressed_pair@U?$default_delete@$$BY0A@D@std@@PEAD$00@std@@QEAAAEAU?$default_delete@$$BY0A@D@2@XZ ; std::_Compressed_pair<std::default_delete<char [0]>,char *,1>::_Get_first
PUBLIC	?_Compat@?$_String_const_iterator@V?$_String_val@U?$_Simple_types@D@std@@@std@@@std@@QEBAXAEBV12@@Z ; std::_String_const_iterator<std::_String_val<std::_Simple_types<char> > >::_Compat
PUBLIC	??_G?$basic_istringstream@DU?$char_traits@D@std@@V?$allocator@D@2@@std@@UEAAPEAXI@Z ; std::basic_istringstream<char,std::char_traits<char>,std::allocator<char> >::`scalar deleting destructor'
PUBLIC	?replace@?$basic_string@DU?$char_traits@D@std@@V?$allocator@D@2@@std@@QEAAAEAV12@_K0AEBV12@@Z ; std::basic_string<char,std::char_traits<char>,std::allocator<char> >::replace
PUBLIC	?clear@?$basic_string@_WU?$char_traits@_W@std@@V?$allocator@_W@2@@std@@QEAAXXZ ; std::basic_string<wchar_t,std::char_traits<wchar_t>,std::allocator<wchar_t> >::clear
PUBLIC	??R<lambda_1>@?1??reserve@?$basic_string@_WU?$char_traits@_W@std@@V?$allocator@_W@2@@std@@QEAAX_K@Z@QEBA@QEA_WQEB_W0@Z ; `std::basic_string<wchar_t,std::char_traits<wchar_t>,std::allocator<wchar_t> >::reserve'::`2'::<lambda_1>::operator()
PUBLIC	?reserve@?$basic_string@_WU?$char_traits@_W@std@@V?$allocator@_W@2@@std@@QEAAX_K@Z ; std::basic_string<wchar_t,std::char_traits<wchar_t>,std::allocator<wchar_t> >::reserve
PUBLIC	?empty@?$basic_string@_WU?$char_traits@_W@std@@V?$allocator@_W@2@@std@@QEBA_NXZ ; std::basic_string<wchar_t,std::char_traits<wchar_t>,std::allocator<wchar_t> >::empty
PUBLIC	??B?$shared_ptr@U_Dir_enum_impl@filesystem@std@@@std@@QEBA_NXZ ; std::shared_ptr<std::filesystem::_Dir_enum_impl>::operator bool
PUBLIC	??1?$unique_ptr@$$BY0A@_WU?$default_delete@$$BY0A@_W@std@@@std@@QEAA@XZ ; std::unique_ptr<wchar_t [0],std::default_delete<wchar_t [0]> >::~unique_ptr<wchar_t [0],std::default_delete<wchar_t [0]> >
PUBLIC	?get@?$unique_ptr@$$BY0A@_WU?$default_delete@$$BY0A@_W@std@@@std@@QEBAPEA_WXZ ; std::unique_ptr<wchar_t [0],std::default_delete<wchar_t [0]> >::get
PUBLIC	??B?$unique_ptr@$$BY0A@_WU?$default_delete@$$BY0A@_W@std@@@std@@QEBA_NXZ ; std::unique_ptr<wchar_t [0],std::default_delete<wchar_t [0]> >::operator bool
PUBLIC	??1?$unique_ptr@$$BY0A@DU?$default_delete@$$BY0A@D@std@@@std@@QEAA@XZ ; std::unique_ptr<char [0],std::default_delete<char [0]> >::~unique_ptr<char [0],std::default_delete<char [0]> >
PUBLIC	?get@?$unique_ptr@$$BY0A@DU?$default_delete@$$BY0A@D@std@@@std@@QEBAPEADXZ ; std::unique_ptr<char [0],std::default_delete<char [0]> >::get
PUBLIC	??B?$unique_ptr@$$BY0A@DU?$default_delete@$$BY0A@D@std@@@std@@QEBA_NXZ ; std::unique_ptr<char [0],std::default_delete<char [0]> >::operator bool
PUBLIC	??0?$basic_istringstream@DU?$char_traits@D@std@@V?$allocator@D@2@@std@@QEAA@AEBV?$basic_string@DU?$char_traits@D@std@@V?$allocator@D@2@@1@H@Z ; std::basic_istringstream<char,std::char_traits<char>,std::allocator<char> >::basic_istringstream<char,std::char_traits<char>,std::allocator<char> >
PUBLIC	??1?$basic_istringstream@DU?$char_traits@D@std@@V?$allocator@D@2@@std@@UEAA@XZ ; std::basic_istringstream<char,std::char_traits<char>,std::allocator<char> >::~basic_istringstream<char,std::char_traits<char>,std::allocator<char> >
PUBLIC	??8?$_String_const_iterator@V?$_String_val@U?$_Simple_types@D@std@@@std@@@std@@QEBA_NAEBV01@@Z ; std::_String_const_iterator<std::_String_val<std::_Simple_types<char> > >::operator==
PUBLIC	?__autoclassinit2@?$basic_istringstream@DU?$char_traits@D@std@@V?$allocator@D@2@@std@@QEAAX_K@Z ; std::basic_istringstream<char,std::char_traits<char>,std::allocator<char> >::__autoclassinit2
PUBLIC	??_D?$basic_istringstream@DU?$char_traits@D@std@@V?$allocator@D@2@@std@@QEAAXXZ ; std::basic_istringstream<char,std::char_traits<char>,std::allocator<char> >::`vbase destructor'
PUBLIC	?copy@filesystem@std@@YAXAEBVpath@12@0W4copy_options@12@@Z ; std::filesystem::copy
PUBLIC	?copy@filesystem@std@@YAXAEBVpath@12@0W4copy_options@12@AEAVerror_code@2@@Z ; std::filesystem::copy
PUBLIC	?_Copy_impl@filesystem@std@@YAXAEBVdirectory_entry@12@AEBVpath@12@W4copy_options@12@AEAVerror_code@2@@Z ; std::filesystem::_Copy_impl
PUBLIC	?create_directories@filesystem@std@@YA_NAEBVpath@12@@Z ; std::filesystem::create_directories
PUBLIC	?create_directories@filesystem@std@@YA_NAEBVpath@12@AEAVerror_code@2@@Z ; std::filesystem::create_directories
PUBLIC	?create_directory@filesystem@std@@YA_NAEBVpath@12@0AEAVerror_code@2@@Z ; std::filesystem::create_directory
PUBLIC	?_Get_any_status@filesystem@std@@YA?AU_File_status_and_error@12@AEBVpath@12@W4__std_fs_stats_flags@@@Z ; std::filesystem::_Get_any_status
PUBLIC	?remove@filesystem@std@@YA_NAEBVpath@12@@Z	; std::filesystem::remove
PUBLIC	?is_empty@filesystem@std@@YA_NAEBVpath@12@@Z	; std::filesystem::is_empty
PUBLIC	?is_empty@filesystem@std@@YA_NAEBVpath@12@AEAVerror_code@2@@Z ; std::filesystem::is_empty
PUBLIC	?__autoclassinit2@error_code@std@@QEAAX_K@Z	; std::error_code::__autoclassinit2
PUBLIC	?equivalent@filesystem@std@@YA_NAEBVpath@12@0AEAVerror_code@2@@Z ; std::filesystem::equivalent
PUBLIC	?_Equivalent@filesystem@std@@YA?AU?$pair@W4__std_win_error@@_N@2@QEB_W0@Z ; std::filesystem::_Equivalent
PUBLIC	?copy_file@filesystem@std@@YA_NAEBVpath@12@0@Z	; std::filesystem::copy_file
PUBLIC	?copy_file@filesystem@std@@YA_NAEBVpath@12@0W4copy_options@12@@Z ; std::filesystem::copy_file
PUBLIC	?copy_file@filesystem@std@@YA_NAEBVpath@12@0W4copy_options@12@AEAVerror_code@2@@Z ; std::filesystem::copy_file
PUBLIC	?copy_symlink@filesystem@std@@YAXAEBVpath@12@0AEAVerror_code@2@@Z ; std::filesystem::copy_symlink
PUBLIC	??1_Delete_directory_scope_guard@?1??_Copy_junction@filesystem@std@@YA?AW4__std_win_error@@AEBVpath@23@0@Z@QEAA@XZ ; `std::filesystem::_Copy_junction'::`2'::_Delete_directory_scope_guard::~_Delete_directory_scope_guard
PUBLIC	?_Copy_junction@filesystem@std@@YA?AW4__std_win_error@@AEBVpath@12@0@Z ; std::filesystem::_Copy_junction
PUBLIC	?_Copy_symlink@filesystem@std@@YA?AW4__std_win_error@@AEBVpath@12@0@Z ; std::filesystem::_Copy_symlink
PUBLIC	?__autoclassinit2@?$unique_ptr@$$BY0A@DU?$default_delete@$$BY0A@D@std@@@std@@QEAAX_K@Z ; std::unique_ptr<char [0],std::default_delete<char [0]> >::__autoclassinit2
PUBLIC	?_Read_reparse_data@filesystem@std@@YA?AW4__std_win_error@@AEBU_Fs_file@2@AEAV?$unique_ptr@$$BY0A@DU?$default_delete@$$BY0A@D@std@@@2@@Z ; std::filesystem::_Read_reparse_data
PUBLIC	?create_symlink@filesystem@std@@YAXAEBVpath@12@0AEAVerror_code@2@@Z ; std::filesystem::create_symlink
PUBLIC	?create_hard_link@filesystem@std@@YAXAEBVpath@12@0AEAVerror_code@2@@Z ; std::filesystem::create_hard_link
PUBLIC	?__autoclassinit2@?$unique_ptr@$$BY0A@_WU?$default_delete@$$BY0A@_W@std@@@std@@QEAAX_K@Z ; std::unique_ptr<wchar_t [0],std::default_delete<wchar_t [0]> >::__autoclassinit2
PUBLIC	?_Get_cleaned_symlink_target@filesystem@std@@YA?AV?$unique_ptr@$$BY0A@_WU?$default_delete@$$BY0A@_W@std@@@2@AEBVpath@12@@Z ; std::filesystem::_Get_cleaned_symlink_target
PUBLIC	?_At_end@directory_iterator@filesystem@std@@QEBA_NXZ ; std::filesystem::directory_iterator::_At_end
PUBLIC	?increment@directory_iterator@filesystem@std@@QEAAAEAV123@AEAVerror_code@3@@Z ; std::filesystem::directory_iterator::increment
PUBLIC	??Cdirectory_iterator@filesystem@std@@QEBAPEBVdirectory_entry@12@XZ ; std::filesystem::directory_iterator::operator->
PUBLIC	??0directory_iterator@filesystem@std@@QEAA@AEBVpath@12@AEAVerror_code@2@@Z ; std::filesystem::directory_iterator::directory_iterator
PUBLIC	?_Refresh@directory_entry@filesystem@std@@CA?AW4__std_win_error@@AEAU__std_fs_stats@@AEBVpath@23@@Z ; std::filesystem::directory_entry::_Refresh
PUBLIC	?is_directory@directory_entry@filesystem@std@@QEBA_NXZ ; std::filesystem::directory_entry::is_directory
PUBLIC	??Bdirectory_entry@filesystem@std@@QEBAAEBVpath@12@XZ ; std::filesystem::directory_entry::operator std::filesystem::path const &
PUBLIC	?refresh@directory_entry@filesystem@std@@QEAAXAEAVerror_code@3@@Z ; std::filesystem::directory_entry::refresh
PUBLIC	??0directory_entry@filesystem@std@@QEAA@AEBVpath@12@AEAVerror_code@2@@Z ; std::filesystem::directory_entry::directory_entry
PUBLIC	?is_symlink@filesystem@std@@YA_NVfile_status@12@@Z ; std::filesystem::is_symlink
PUBLIC	?is_other@filesystem@std@@YA_NVfile_status@12@@Z ; std::filesystem::is_other
PUBLIC	?is_directory@filesystem@std@@YA_NVfile_status@12@@Z ; std::filesystem::is_directory
PUBLIC	?exists@filesystem@std@@YA_NVfile_status@12@@Z	; std::filesystem::exists
PUBLIC	??Ufilesystem@std@@YA?AW4copy_options@01@W4201@0@Z ; std::filesystem::operator|
PUBLIC	??Ifilesystem@std@@YA?AW4copy_options@01@W4201@0@Z ; std::filesystem::operator&
PUBLIC	?_Throw_fs_error@filesystem@std@@YAXPEBDAEBVerror_code@2@AEBVpath@12@2@Z ; std::filesystem::_Throw_fs_error
PUBLIC	?_Throw_fs_error@filesystem@std@@YAXPEBDAEBVerror_code@2@AEBVpath@12@@Z ; std::filesystem::_Throw_fs_error
PUBLIC	?_Throw_fs_error@filesystem@std@@YAXPEBDW4__std_win_error@@AEBVpath@12@2@Z ; std::filesystem::_Throw_fs_error
PUBLIC	??0filesystem_error@filesystem@std@@QEAA@AEBV?$basic_string@DU?$char_traits@D@std@@V?$allocator@D@2@@2@AEBVpath@12@1Verror_code@2@@Z ; std::filesystem::filesystem_error::filesystem_error
PUBLIC	??Kfilesystem@std@@YA?AVpath@01@AEBV201@0@Z	; std::filesystem::operator/
PUBLIC	?empty@path@filesystem@std@@QEBA_NXZ		; std::filesystem::path::empty
PUBLIC	?clear@path@filesystem@std@@QEAAXXZ		; std::filesystem::path::clear
PUBLIC	??1_Fs_file@std@@QEAA@XZ			; std::_Fs_file::~_Fs_file
PUBLIC	??0_Fs_file@std@@QEAA@QEB_WW4__std_access_rights@@W4__std_fs_file_flags@@QEAW4__std_win_error@@@Z ; std::_Fs_file::_Fs_file
PUBLIC	??U@YA?AW4__std_fs_file_flags@@W40@0@Z		; operator|
PUBLIC	??Berror_code@std@@QEBA_NXZ			; std::error_code::operator bool
PUBLIC	?clear@error_code@std@@QEAAXXZ			; std::error_code::clear
PUBLIC	??0error_code@std@@QEAA@XZ			; std::error_code::error_code
PUBLIC	?fabs@@YAMM@Z					; fabs
PUBLIC	?WriteFile@Util@@YAXV?$basic_string@DU?$char_traits@D@std@@V?$allocator@D@2@@std@@V?$vector@EV?$allocator@E@std@@@3@@Z ; Util::WriteFile
PUBLIC	?ReadFile@Util@@YA?AV?$vector@EV?$allocator@E@std@@@std@@V?$basic_string@DU?$char_traits@D@std@@V?$allocator@D@2@@3@@Z ; Util::ReadFile
PUBLIC	?CopyFileToDest@Util@@YAXAEBV?$basic_string@DU?$char_traits@D@std@@V?$allocator@D@2@@std@@0@Z ; Util::CopyFileToDest
PUBLIC	?RemoveFile@Util@@YAXAEBV?$basic_string@DU?$char_traits@D@std@@V?$allocator@D@2@@std@@@Z ; Util::RemoveFile
PUBLIC	?StringToLowerCase@Util@@YA?AV?$basic_string@DU?$char_traits@D@std@@V?$allocator@D@2@@std@@V23@@Z ; Util::StringToLowerCase
PUBLIC	?IsNumber@Util@@YA_NV?$basic_string@DU?$char_traits@D@std@@V?$allocator@D@2@@std@@@Z ; Util::IsNumber
PUBLIC	?CopyDirectoryRecursively@Util@@YAXAEBV?$basic_string@DU?$char_traits@D@std@@V?$allocator@D@2@@std@@0@Z ; Util::CopyDirectoryRecursively
PUBLIC	?RadiansToDegrees@Util@@YAMM@Z			; Util::RadiansToDegrees
PUBLIC	??$StringToNumber@_K@Util@@YA_KV?$basic_string@DU?$char_traits@D@std@@V?$allocator@D@2@@std@@@Z ; Util::StringToNumber<unsigned __int64>
PUBLIC	??$StringToNumber@I@Util@@YAIV?$basic_string@DU?$char_traits@D@std@@V?$allocator@D@2@@std@@@Z ; Util::StringToNumber<unsigned int>
PUBLIC	??$StringToNumber@_J@Util@@YA_JV?$basic_string@DU?$char_traits@D@std@@V?$allocator@D@2@@std@@@Z ; Util::StringToNumber<__int64>
PUBLIC	??$StringToNumber@H@Util@@YAHV?$basic_string@DU?$char_traits@D@std@@V?$allocator@D@2@@std@@@Z ; Util::StringToNumber<int>
PUBLIC	??$StringToNumber@M@Util@@YAMV?$basic_string@DU?$char_traits@D@std@@V?$allocator@D@2@@std@@@Z ; Util::StringToNumber<float>
PUBLIC	?CompareFloatsWithTolerance@Util@@YA_NMMM@Z	; Util::CompareFloatsWithTolerance
PUBLIC	?DegreesToRadians@Util@@YAMM@Z			; Util::DegreesToRadians
PUBLIC	?ReplaceString@Util@@YA_NAEAV?$basic_string@DU?$char_traits@D@std@@V?$allocator@D@2@@std@@AEBV23@1@Z ; Util::ReplaceString
PUBLIC	?FileExists@Util@@YA_NV?$basic_string@DU?$char_traits@D@std@@V?$allocator@D@2@@std@@@Z ; Util::FileExists
PUBLIC	?CreateDir@Util@@YAXV?$basic_string@DU?$char_traits@D@std@@V?$allocator@D@2@@std@@@Z ; Util::CreateDir
EXTRN	??_E?$basic_istringstream@DU?$char_traits@D@std@@V?$allocator@D@2@@std@@UEAAPEAXI@Z:PROC ; std::basic_istringstream<char,std::char_traits<char>,std::allocator<char> >::`vector deleting destructor'
;	COMDAT pdata
pdata	SEGMENT
$pdata$??$_Reallocate_grow_by@V<lambda_1>@?1??replace@?$basic_string@DU?$char_traits@D@std@@V?$allocator@D@2@@std@@QEAAAEAV34@_K_KQEBD0@Z@_K_KPEBD_K@?$basic_string@DU?$char_traits@D@std@@V?$allocator@D@2@@std@@AEAAAEAV01@_KV<lambda_1>@?1??replace@01@QEAAAEAV01@0_KQEBD0@Z@11PEBD1@Z DD imagerel $LN153
	DD	imagerel $LN153+58
	DD	imagerel $unwind$??$_Reallocate_grow_by@V<lambda_1>@?1??replace@?$basic_string@DU?$char_traits@D@std@@V?$allocator@D@2@@std@@QEAAAEAV34@_K_KQEBD0@Z@_K_KPEBD_K@?$basic_string@DU?$char_traits@D@std@@V?$allocator@D@2@@std@@AEAAAEAV01@_KV<lambda_1>@?1??replace@01@QEAAAEAV01@0_KQEBD0@Z@11PEBD1@Z
pdata	ENDS
;	COMDAT pdata
pdata	SEGMENT
$pdata$3$??$_Reallocate_grow_by@V<lambda_1>@?1??replace@?$basic_string@DU?$char_traits@D@std@@V?$allocator@D@2@@std@@QEAAAEAV34@_K_KQEBD0@Z@_K_KPEBD_K@?$basic_string@DU?$char_traits@D@std@@V?$allocator@D@2@@std@@AEAAAEAV01@_KV<lambda_1>@?1??replace@01@QEAAAEAV01@0_KQEBD0@Z@11PEBD1@Z DD imagerel $LN153+58
	DD	imagerel $LN153+464
	DD	imagerel $chain$3$??$_Reallocate_grow_by@V<lambda_1>@?1??replace@?$basic_string@DU?$char_traits@D@std@@V?$allocator@D@2@@std@@QEAAAEAV34@_K_KQEBD0@Z@_K_KPEBD_K@?$basic_string@DU?$char_traits@D@std@@V?$allocator@D@2@@std@@AEAAAEAV01@_KV<lambda_1>@?1??replace@01@QEAAAEAV01@0_KQEBD0@Z@11PEBD1@Z
pdata	ENDS
;	COMDAT pdata
pdata	SEGMENT
$pdata$5$??$_Reallocate_grow_by@V<lambda_1>@?1??replace@?$basic_string@DU?$char_traits@D@std@@V?$allocator@D@2@@std@@QEAAAEAV34@_K_KQEBD0@Z@_K_KPEBD_K@?$basic_string@DU?$char_traits@D@std@@V?$allocator@D@2@@std@@AEAAAEAV01@_KV<lambda_1>@?1??replace@01@QEAAAEAV01@0_KQEBD0@Z@11PEBD1@Z DD imagerel $LN153+464
	DD	imagerel $LN153+470
	DD	imagerel $chain$5$??$_Reallocate_grow_by@V<lambda_1>@?1??replace@?$basic_string@DU?$char_traits@D@std@@V?$allocator@D@2@@std@@QEAAAEAV34@_K_KQEBD0@Z@_K_KPEBD_K@?$basic_string@DU?$char_traits@D@std@@V?$allocator@D@2@@std@@AEAAAEAV01@_KV<lambda_1>@?1??replace@01@QEAAAEAV01@0_KQEBD0@Z@11PEBD1@Z
pdata	ENDS
;	COMDAT pdata
pdata	SEGMENT
$pdata$6$??$_Reallocate_grow_by@V<lambda_1>@?1??replace@?$basic_string@DU?$char_traits@D@std@@V?$allocator@D@2@@std@@QEAAAEAV34@_K_KQEBD0@Z@_K_KPEBD_K@?$basic_string@DU?$char_traits@D@std@@V?$allocator@D@2@@std@@AEAAAEAV01@_KV<lambda_1>@?1??replace@01@QEAAAEAV01@0_KQEBD0@Z@11PEBD1@Z DD imagerel $LN153+470
	DD	imagerel $LN153+476
	DD	imagerel $chain$6$??$_Reallocate_grow_by@V<lambda_1>@?1??replace@?$basic_string@DU?$char_traits@D@std@@V?$allocator@D@2@@std@@QEAAAEAV34@_K_KQEBD0@Z@_K_KPEBD_K@?$basic_string@DU?$char_traits@D@std@@V?$allocator@D@2@@std@@AEAAAEAV01@_KV<lambda_1>@?1??replace@01@QEAAAEAV01@0_KQEBD0@Z@11PEBD1@Z
pdata	ENDS
;	COMDAT pdata
pdata	SEGMENT
$pdata$??$_Reallocate_grow_by@V<lambda_1>@?1??reserve@?$basic_string@_WU?$char_traits@_W@std@@V?$allocator@_W@2@@std@@QEAAX_K@Z@$$V@?$basic_string@_WU?$char_traits@_W@std@@V?$allocator@_W@2@@std@@AEAAAEAV01@_KV<lambda_1>@?1??reserve@01@QEAAX0@Z@@Z DD imagerel $LN74
	DD	imagerel $LN74+41
	DD	imagerel $unwind$??$_Reallocate_grow_by@V<lambda_1>@?1??reserve@?$basic_string@_WU?$char_traits@_W@std@@V?$allocator@_W@2@@std@@QEAAX_K@Z@$$V@?$basic_string@_WU?$char_traits@_W@std@@V?$allocator@_W@2@@std@@AEAAAEAV01@_KV<lambda_1>@?1??reserve@01@QEAAX0@Z@@Z
pdata	ENDS
;	COMDAT pdata
pdata	SEGMENT
$pdata$1$??$_Reallocate_grow_by@V<lambda_1>@?1??reserve@?$basic_string@_WU?$char_traits@_W@std@@V?$allocator@_W@2@@std@@QEAAX_K@Z@$$V@?$basic_string@_WU?$char_traits@_W@std@@V?$allocator@_W@2@@std@@AEAAAEAV01@_KV<lambda_1>@?1??reserve@01@QEAAX0@Z@@Z DD imagerel $LN74+41
	DD	imagerel $LN74+55
	DD	imagerel $chain$1$??$_Reallocate_grow_by@V<lambda_1>@?1??reserve@?$basic_string@_WU?$char_traits@_W@std@@V?$allocator@_W@2@@std@@QEAAX_K@Z@$$V@?$basic_string@_WU?$char_traits@_W@std@@V?$allocator@_W@2@@std@@AEAAAEAV01@_KV<lambda_1>@?1??reserve@01@QEAAX0@Z@@Z
pdata	ENDS
;	COMDAT pdata
pdata	SEGMENT
$pdata$2$??$_Reallocate_grow_by@V<lambda_1>@?1??reserve@?$basic_string@_WU?$char_traits@_W@std@@V?$allocator@_W@2@@std@@QEAAX_K@Z@$$V@?$basic_string@_WU?$char_traits@_W@std@@V?$allocator@_W@2@@std@@AEAAAEAV01@_KV<lambda_1>@?1??reserve@01@QEAAX0@Z@@Z DD imagerel $LN74+55
	DD	imagerel $LN74+149
	DD	imagerel $chain$2$??$_Reallocate_grow_by@V<lambda_1>@?1??reserve@?$basic_string@_WU?$char_traits@_W@std@@V?$allocator@_W@2@@std@@QEAAX_K@Z@$$V@?$basic_string@_WU?$char_traits@_W@std@@V?$allocator@_W@2@@std@@AEAAAEAV01@_KV<lambda_1>@?1??reserve@01@QEAAX0@Z@@Z
pdata	ENDS
;	COMDAT pdata
pdata	SEGMENT
$pdata$3$??$_Reallocate_grow_by@V<lambda_1>@?1??reserve@?$basic_string@_WU?$char_traits@_W@std@@V?$allocator@_W@2@@std@@QEAAX_K@Z@$$V@?$basic_string@_WU?$char_traits@_W@std@@V?$allocator@_W@2@@std@@AEAAAEAV01@_KV<lambda_1>@?1??reserve@01@QEAAX0@Z@@Z DD imagerel $LN74+149
	DD	imagerel $LN74+251
	DD	imagerel $chain$3$??$_Reallocate_grow_by@V<lambda_1>@?1??reserve@?$basic_string@_WU?$char_traits@_W@std@@V?$allocator@_W@2@@std@@QEAAX_K@Z@$$V@?$basic_string@_WU?$char_traits@_W@std@@V?$allocator@_W@2@@std@@AEAAAEAV01@_KV<lambda_1>@?1??reserve@01@QEAAX0@Z@@Z
pdata	ENDS
;	COMDAT pdata
pdata	SEGMENT
$pdata$4$??$_Reallocate_grow_by@V<lambda_1>@?1??reserve@?$basic_string@_WU?$char_traits@_W@std@@V?$allocator@_W@2@@std@@QEAAX_K@Z@$$V@?$basic_string@_WU?$char_traits@_W@std@@V?$allocator@_W@2@@std@@AEAAAEAV01@_KV<lambda_1>@?1??reserve@01@QEAAX0@Z@@Z DD imagerel $LN74+251
	DD	imagerel $LN74+257
	DD	imagerel $chain$4$??$_Reallocate_grow_by@V<lambda_1>@?1??reserve@?$basic_string@_WU?$char_traits@_W@std@@V?$allocator@_W@2@@std@@QEAAX_K@Z@$$V@?$basic_string@_WU?$char_traits@_W@std@@V?$allocator@_W@2@@std@@AEAAAEAV01@_KV<lambda_1>@?1??reserve@01@QEAAX0@Z@@Z
pdata	ENDS
;	COMDAT pdata
pdata	SEGMENT
$pdata$??$find_if@V?$_String_iterator@V?$_String_val@U?$_Simple_types@D@std@@@std@@@std@@V<lambda_1>@?1??IsNumber@Util@@YA_NV?$basic_string@DU?$char_traits@D@std@@V?$allocator@D@2@@2@@Z@@std@@YA?AV?$_String_iterator@V?$_String_val@U?$_Simple_types@D@std@@@std@@@0@V10@V10@V<lambda_1>@?1??IsNumber@Util@@YA_NV?$basic_string@DU?$char_traits@D@std@@V?$allocator@D@2@@0@@Z@@Z DD imagerel ??$find_if@V?$_String_iterator@V?$_String_val@U?$_Simple_types@D@std@@@std@@@std@@V<lambda_1>@?1??IsNumber@Util@@YA_NV?$basic_string@DU?$char_traits@D@std@@V?$allocator@D@2@@2@@Z@@std@@YA?AV?$_String_iterator@V?$_String_val@U?$_Simple_types@D@std@@@std@@@0@V10@V10@V<lambda_1>@?1??IsNumber@Util@@YA_NV?$basic_string@DU?$char_traits@D@std@@V?$allocator@D@2@@0@@Z@@Z
	DD	imagerel ??$find_if@V?$_String_iterator@V?$_String_val@U?$_Simple_types@D@std@@@std@@@std@@V<lambda_1>@?1??IsNumber@Util@@YA_NV?$basic_string@DU?$char_traits@D@std@@V?$allocator@D@2@@2@@Z@@std@@YA?AV?$_String_iterator@V?$_String_val@U?$_Simple_types@D@std@@@std@@@0@V10@V10@V<lambda_1>@?1??IsNumber@Util@@YA_NV?$basic_string@DU?$char_traits@D@std@@V?$allocator@D@2@@0@@Z@@Z+97
	DD	imagerel $unwind$??$find_if@V?$_String_iterator@V?$_String_val@U?$_Simple_types@D@std@@@std@@@std@@V<lambda_1>@?1??IsNumber@Util@@YA_NV?$basic_string@DU?$char_traits@D@std@@V?$allocator@D@2@@2@@Z@@std@@YA?AV?$_String_iterator@V?$_String_val@U?$_Simple_types@D@std@@@std@@@0@V10@V10@V<lambda_1>@?1??IsNumber@Util@@YA_NV?$basic_string@DU?$char_traits@D@std@@V?$allocator@D@2@@0@@Z@@Z
pdata	ENDS
;	COMDAT pdata
pdata	SEGMENT
$pdata$??$transform@V?$_String_iterator@V?$_String_val@U?$_Simple_types@D@std@@@std@@@std@@V12@P6AHH@Z@std@@YA?AV?$_String_iterator@V?$_String_val@U?$_Simple_types@D@std@@@std@@@0@V10@0V10@P6AHH@Z@Z DD imagerel $LN17
	DD	imagerel $LN17+88
	DD	imagerel $unwind$??$transform@V?$_String_iterator@V?$_String_val@U?$_Simple_types@D@std@@@std@@@std@@V12@P6AHH@Z@std@@YA?AV?$_String_iterator@V?$_String_val@U?$_Simple_types@D@std@@@std@@@0@V10@0V10@P6AHH@Z@Z
pdata	ENDS
;	COMDAT pdata
pdata	SEGMENT
$pdata$?_Init@?$basic_stringbuf@DU?$char_traits@D@std@@V?$allocator@D@2@@std@@IEAAXPEBD_KH@Z DD imagerel $LN42
	DD	imagerel $LN42+77
	DD	imagerel $unwind$?_Init@?$basic_stringbuf@DU?$char_traits@D@std@@V?$allocator@D@2@@std@@IEAAXPEBD_KH@Z
pdata	ENDS
;	COMDAT pdata
pdata	SEGMENT
$pdata$0$?_Init@?$basic_stringbuf@DU?$char_traits@D@std@@V?$allocator@D@2@@std@@IEAAXPEBD_KH@Z DD imagerel $LN42+77
	DD	imagerel $LN42+225
	DD	imagerel $chain$0$?_Init@?$basic_stringbuf@DU?$char_traits@D@std@@V?$allocator@D@2@@std@@IEAAXPEBD_KH@Z
pdata	ENDS
;	COMDAT pdata
pdata	SEGMENT
$pdata$1$?_Init@?$basic_stringbuf@DU?$char_traits@D@std@@V?$allocator@D@2@@std@@IEAAXPEBD_KH@Z DD imagerel $LN42+225
	DD	imagerel $LN42+258
	DD	imagerel $chain$1$?_Init@?$basic_stringbuf@DU?$char_traits@D@std@@V?$allocator@D@2@@std@@IEAAXPEBD_KH@Z
pdata	ENDS
;	COMDAT pdata
pdata	SEGMENT
$pdata$??R<lambda_1>@?1??replace@?$basic_string@DU?$char_traits@D@std@@V?$allocator@D@2@@std@@QEAAAEAV23@_K_KQEBD0@Z@QEBA@QEAD200020@Z DD imagerel $LN41
	DD	imagerel $LN41+135
	DD	imagerel $unwind$??R<lambda_1>@?1??replace@?$basic_string@DU?$char_traits@D@std@@V?$allocator@D@2@@std@@QEAAAEAV23@_K_KQEBD0@Z@QEBA@QEAD200020@Z
pdata	ENDS
;	COMDAT pdata
pdata	SEGMENT
$pdata$?replace@?$basic_string@DU?$char_traits@D@std@@V?$allocator@D@2@@std@@QEAAAEAV12@_K_KQEBD0@Z DD imagerel $LN214
	DD	imagerel $LN214+103
	DD	imagerel $unwind$?replace@?$basic_string@DU?$char_traits@D@std@@V?$allocator@D@2@@std@@QEAAAEAV12@_K_KQEBD0@Z
pdata	ENDS
;	COMDAT pdata
pdata	SEGMENT
$pdata$1$?replace@?$basic_string@DU?$char_traits@D@std@@V?$allocator@D@2@@std@@QEAAAEAV12@_K_KQEBD0@Z DD imagerel $LN214+103
	DD	imagerel $LN214+198
	DD	imagerel $chain$1$?replace@?$basic_string@DU?$char_traits@D@std@@V?$allocator@D@2@@std@@QEAAAEAV12@_K_KQEBD0@Z
pdata	ENDS
;	COMDAT pdata
pdata	SEGMENT
$pdata$2$?replace@?$basic_string@DU?$char_traits@D@std@@V?$allocator@D@2@@std@@QEAAAEAV12@_K_KQEBD0@Z DD imagerel $LN214+198
	DD	imagerel $LN214+385
	DD	imagerel $chain$2$?replace@?$basic_string@DU?$char_traits@D@std@@V?$allocator@D@2@@std@@QEAAAEAV12@_K_KQEBD0@Z
pdata	ENDS
;	COMDAT pdata
pdata	SEGMENT
$pdata$3$?replace@?$basic_string@DU?$char_traits@D@std@@V?$allocator@D@2@@std@@QEAAAEAV12@_K_KQEBD0@Z DD imagerel $LN214+385
	DD	imagerel $LN214+407
	DD	imagerel $chain$3$?replace@?$basic_string@DU?$char_traits@D@std@@V?$allocator@D@2@@std@@QEAAAEAV12@_K_KQEBD0@Z
pdata	ENDS
;	COMDAT pdata
pdata	SEGMENT
$pdata$4$?replace@?$basic_string@DU?$char_traits@D@std@@V?$allocator@D@2@@std@@QEAAAEAV12@_K_KQEBD0@Z DD imagerel $LN214+407
	DD	imagerel $LN214+413
	DD	imagerel $chain$4$?replace@?$basic_string@DU?$char_traits@D@std@@V?$allocator@D@2@@std@@QEAAAEAV12@_K_KQEBD0@Z
pdata	ENDS
;	COMDAT pdata
pdata	SEGMENT
$pdata$??0?$basic_stringbuf@DU?$char_traits@D@std@@V?$allocator@D@2@@std@@QEAA@AEBV?$basic_string@DU?$char_traits@D@std@@V?$allocator@D@2@@1@H@Z DD imagerel $LN52
	DD	imagerel $LN52+187
	DD	imagerel $unwind$??0?$basic_stringbuf@DU?$char_traits@D@std@@V?$allocator@D@2@@std@@QEAA@AEBV?$basic_string@DU?$char_traits@D@std@@V?$allocator@D@2@@1@H@Z
pdata	ENDS
;	COMDAT pdata
pdata	SEGMENT
$pdata$??_G?$basic_istringstream@DU?$char_traits@D@std@@V?$allocator@D@2@@std@@UEAAPEAXI@Z DD imagerel $LN8
	DD	imagerel $LN8+59
	DD	imagerel $unwind$??_G?$basic_istringstream@DU?$char_traits@D@std@@V?$allocator@D@2@@std@@UEAAPEAXI@Z
pdata	ENDS
;	COMDAT pdata
pdata	SEGMENT
$pdata$?replace@?$basic_string@DU?$char_traits@D@std@@V?$allocator@D@2@@std@@QEAAAEAV12@_K0AEBV12@@Z DD imagerel $LN10
	DD	imagerel $LN10+33
	DD	imagerel $unwind$?replace@?$basic_string@DU?$char_traits@D@std@@V?$allocator@D@2@@std@@QEAAAEAV12@_K0AEBV12@@Z
pdata	ENDS
;	COMDAT pdata
pdata	SEGMENT
$pdata$?reserve@?$basic_string@_WU?$char_traits@_W@std@@V?$allocator@_W@2@@std@@QEAAX_K@Z DD imagerel $LN80
	DD	imagerel $LN80+28
	DD	imagerel $unwind$?reserve@?$basic_string@_WU?$char_traits@_W@std@@V?$allocator@_W@2@@std@@QEAAX_K@Z
pdata	ENDS
;	COMDAT pdata
pdata	SEGMENT
$pdata$2$?reserve@?$basic_string@_WU?$char_traits@_W@std@@V?$allocator@_W@2@@std@@QEAAX_K@Z DD imagerel $LN80+28
	DD	imagerel $LN80+254
	DD	imagerel $chain$2$?reserve@?$basic_string@_WU?$char_traits@_W@std@@V?$allocator@_W@2@@std@@QEAAX_K@Z
pdata	ENDS
;	COMDAT pdata
pdata	SEGMENT
$pdata$3$?reserve@?$basic_string@_WU?$char_traits@_W@std@@V?$allocator@_W@2@@std@@QEAAX_K@Z DD imagerel $LN80+254
	DD	imagerel $LN80+263
	DD	imagerel $chain$3$?reserve@?$basic_string@_WU?$char_traits@_W@std@@V?$allocator@_W@2@@std@@QEAAX_K@Z
pdata	ENDS
;	COMDAT pdata
pdata	SEGMENT
$pdata$4$?reserve@?$basic_string@_WU?$char_traits@_W@std@@V?$allocator@_W@2@@std@@QEAAX_K@Z DD imagerel $LN80+263
	DD	imagerel $LN80+269
	DD	imagerel $chain$4$?reserve@?$basic_string@_WU?$char_traits@_W@std@@V?$allocator@_W@2@@std@@QEAAX_K@Z
pdata	ENDS
;	COMDAT pdata
pdata	SEGMENT
$pdata$??0?$basic_istringstream@DU?$char_traits@D@std@@V?$allocator@D@2@@std@@QEAA@AEBV?$basic_string@DU?$char_traits@D@std@@V?$allocator@D@2@@1@H@Z DD imagerel $LN60
	DD	imagerel $LN60+273
	DD	imagerel $unwind$??0?$basic_istringstream@DU?$char_traits@D@std@@V?$allocator@D@2@@std@@QEAA@AEBV?$basic_string@DU?$char_traits@D@std@@V?$allocator@D@2@@1@H@Z
pdata	ENDS
;	COMDAT pdata
pdata	SEGMENT
$pdata$?dtor$0@?0???0?$basic_istringstream@DU?$char_traits@D@std@@V?$allocator@D@2@@std@@QEAA@AEBV?$basic_string@DU?$char_traits@D@std@@V?$allocator@D@2@@1@H@Z@4HA DD imagerel ?dtor$0@?0???0?$basic_istringstream@DU?$char_traits@D@std@@V?$allocator@D@2@@std@@QEAA@AEBV?$basic_string@DU?$char_traits@D@std@@V?$allocator@D@2@@1@H@Z@4HA
	DD	imagerel ?dtor$0@?0???0?$basic_istringstream@DU?$char_traits@D@std@@V?$allocator@D@2@@std@@QEAA@AEBV?$basic_string@DU?$char_traits@D@std@@V?$allocator@D@2@@1@H@Z@4HA+46
	DD	imagerel $unwind$?dtor$0@?0???0?$basic_istringstream@DU?$char_traits@D@std@@V?$allocator@D@2@@std@@QEAA@AEBV?$basic_string@DU?$char_traits@D@std@@V?$allocator@D@2@@1@H@Z@4HA
pdata	ENDS
;	COMDAT pdata
pdata	SEGMENT
$pdata$??1?$basic_istringstream@DU?$char_traits@D@std@@V?$allocator@D@2@@std@@UEAA@XZ DD imagerel $LN8
	DD	imagerel $LN8+116
	DD	imagerel $unwind$??1?$basic_istringstream@DU?$char_traits@D@std@@V?$allocator@D@2@@std@@UEAA@XZ
pdata	ENDS
;	COMDAT pdata
pdata	SEGMENT
$pdata$??R<lambda_1>@?1??IsNumber@Util@@YA_NV?$basic_string@DU?$char_traits@D@std@@V?$allocator@D@2@@std@@@Z@QEBA@E@Z DD imagerel ??R<lambda_1>@?1??IsNumber@Util@@YA_NV?$basic_string@DU?$char_traits@D@std@@V?$allocator@D@2@@std@@@Z@QEBA@E@Z
	DD	imagerel ??R<lambda_1>@?1??IsNumber@Util@@YA_NV?$basic_string@DU?$char_traits@D@std@@V?$allocator@D@2@@std@@@Z@QEBA@E@Z+23
	DD	imagerel $unwind$??R<lambda_1>@?1??IsNumber@Util@@YA_NV?$basic_string@DU?$char_traits@D@std@@V?$allocator@D@2@@std@@@Z@QEBA@E@Z
pdata	ENDS
;	COMDAT pdata
pdata	SEGMENT
$pdata$??_D?$basic_istringstream@DU?$char_traits@D@std@@V?$allocator@D@2@@std@@QEAAXXZ DD imagerel $LN11
	DD	imagerel $LN11+121
	DD	imagerel $unwind$??_D?$basic_istringstream@DU?$char_traits@D@std@@V?$allocator@D@2@@std@@QEAAXXZ
pdata	ENDS
;	COMDAT pdata
pdata	SEGMENT
$pdata$?copy@filesystem@std@@YAXAEBVpath@12@0W4copy_options@12@@Z DD imagerel $LN97
	DD	imagerel $LN97+309
	DD	imagerel $unwind$?copy@filesystem@std@@YAXAEBVpath@12@0W4copy_options@12@@Z
pdata	ENDS
;	COMDAT pdata
pdata	SEGMENT
$pdata$?copy@filesystem@std@@YAXAEBVpath@12@0W4copy_options@12@AEAVerror_code@2@@Z DD imagerel $LN86
	DD	imagerel $LN86+289
	DD	imagerel $unwind$?copy@filesystem@std@@YAXAEBVpath@12@0W4copy_options@12@AEAVerror_code@2@@Z
pdata	ENDS
;	COMDAT pdata
pdata	SEGMENT
$pdata$?_Copy_impl@filesystem@std@@YAXAEBVdirectory_entry@12@AEBVpath@12@W4copy_options@12@AEAVerror_code@2@@Z DD imagerel $LN717
	DD	imagerel $LN717+2276
	DD	imagerel $unwind$?_Copy_impl@filesystem@std@@YAXAEBVdirectory_entry@12@AEBVpath@12@W4copy_options@12@AEAVerror_code@2@@Z
pdata	ENDS
;	COMDAT pdata
pdata	SEGMENT
$pdata$?dtor$20@?0??_Copy_impl@filesystem@std@@YAXAEBVdirectory_entry@12@AEBVpath@12@W4copy_options@12@AEAVerror_code@2@@Z@4HA DD imagerel ?dtor$20@?0??_Copy_impl@filesystem@std@@YAXAEBVdirectory_entry@12@AEBVpath@12@W4copy_options@12@AEAVerror_code@2@@Z@4HA
	DD	imagerel ?dtor$20@?0??_Copy_impl@filesystem@std@@YAXAEBVdirectory_entry@12@AEBVpath@12@W4copy_options@12@AEAVerror_code@2@@Z@4HA+38
	DD	imagerel $unwind$?dtor$20@?0??_Copy_impl@filesystem@std@@YAXAEBVdirectory_entry@12@AEBVpath@12@W4copy_options@12@AEAVerror_code@2@@Z@4HA
pdata	ENDS
;	COMDAT pdata
pdata	SEGMENT
$pdata$?dtor$15@?0??_Copy_impl@filesystem@std@@YAXAEBVdirectory_entry@12@AEBVpath@12@W4copy_options@12@AEAVerror_code@2@@Z@4HA DD imagerel ?dtor$15@?0??_Copy_impl@filesystem@std@@YAXAEBVdirectory_entry@12@AEBVpath@12@W4copy_options@12@AEAVerror_code@2@@Z@4HA
	DD	imagerel ?dtor$15@?0??_Copy_impl@filesystem@std@@YAXAEBVdirectory_entry@12@AEBVpath@12@W4copy_options@12@AEAVerror_code@2@@Z@4HA+41
	DD	imagerel $unwind$?dtor$15@?0??_Copy_impl@filesystem@std@@YAXAEBVdirectory_entry@12@AEBVpath@12@W4copy_options@12@AEAVerror_code@2@@Z@4HA
pdata	ENDS
;	COMDAT pdata
pdata	SEGMENT
$pdata$?create_directories@filesystem@std@@YA_NAEBVpath@12@@Z DD imagerel $LN15
	DD	imagerel $LN15+100
	DD	imagerel $unwind$?create_directories@filesystem@std@@YA_NAEBVpath@12@@Z
pdata	ENDS
;	COMDAT pdata
pdata	SEGMENT
$pdata$?create_directories@filesystem@std@@YA_NAEBVpath@12@AEAVerror_code@2@@Z DD imagerel $LN322
	DD	imagerel $LN322+815
	DD	imagerel $unwind$?create_directories@filesystem@std@@YA_NAEBVpath@12@AEAVerror_code@2@@Z
pdata	ENDS
;	COMDAT pdata
pdata	SEGMENT
$pdata$?create_directory@filesystem@std@@YA_NAEBVpath@12@0AEAVerror_code@2@@Z DD imagerel $LN19
	DD	imagerel $LN19+61
	DD	imagerel $unwind$?create_directory@filesystem@std@@YA_NAEBVpath@12@0AEAVerror_code@2@@Z
pdata	ENDS
;	COMDAT pdata
pdata	SEGMENT
$pdata$?_Get_any_status@filesystem@std@@YA?AU_File_status_and_error@12@AEBVpath@12@W4__std_fs_stats_flags@@@Z DD imagerel $LN57
	DD	imagerel $LN57+215
	DD	imagerel $unwind$?_Get_any_status@filesystem@std@@YA?AU_File_status_and_error@12@AEBVpath@12@W4__std_fs_stats_flags@@@Z
pdata	ENDS
;	COMDAT pdata
pdata	SEGMENT
$pdata$?remove@filesystem@std@@YA_NAEBVpath@12@@Z DD imagerel $LN19
	DD	imagerel $LN19+66
	DD	imagerel $unwind$?remove@filesystem@std@@YA_NAEBVpath@12@@Z
pdata	ENDS
;	COMDAT pdata
pdata	SEGMENT
$pdata$?is_empty@filesystem@std@@YA_NAEBVpath@12@@Z DD imagerel $LN70
	DD	imagerel $LN70+336
	DD	imagerel $unwind$?is_empty@filesystem@std@@YA_NAEBVpath@12@@Z
pdata	ENDS
;	COMDAT pdata
pdata	SEGMENT
$pdata$?is_empty@filesystem@std@@YA_NAEBVpath@12@AEAVerror_code@2@@Z DD imagerel $LN59
	DD	imagerel $LN59+286
	DD	imagerel $unwind$?is_empty@filesystem@std@@YA_NAEBVpath@12@AEAVerror_code@2@@Z
pdata	ENDS
;	COMDAT pdata
pdata	SEGMENT
$pdata$?equivalent@filesystem@std@@YA_NAEBVpath@12@0AEAVerror_code@2@@Z DD imagerel $LN45
	DD	imagerel $LN45+184
	DD	imagerel $unwind$?equivalent@filesystem@std@@YA_NAEBVpath@12@0AEAVerror_code@2@@Z
pdata	ENDS
;	COMDAT pdata
pdata	SEGMENT
$pdata$?_Equivalent@filesystem@std@@YA?AU?$pair@W4__std_win_error@@_N@2@QEB_W0@Z DD imagerel $LN20
	DD	imagerel $LN20+145
	DD	imagerel $unwind$?_Equivalent@filesystem@std@@YA?AU?$pair@W4__std_win_error@@_N@2@QEB_W0@Z
pdata	ENDS
;	COMDAT pdata
pdata	SEGMENT
$pdata$?copy_file@filesystem@std@@YA_NAEBVpath@12@0@Z DD imagerel $LN32
	DD	imagerel $LN32+87
	DD	imagerel $unwind$?copy_file@filesystem@std@@YA_NAEBVpath@12@0@Z
pdata	ENDS
;	COMDAT pdata
pdata	SEGMENT
$pdata$?copy_file@filesystem@std@@YA_NAEBVpath@12@0W4copy_options@12@@Z DD imagerel $LN29
	DD	imagerel $LN29+87
	DD	imagerel $unwind$?copy_file@filesystem@std@@YA_NAEBVpath@12@0W4copy_options@12@@Z
pdata	ENDS
;	COMDAT pdata
pdata	SEGMENT
$pdata$?copy_file@filesystem@std@@YA_NAEBVpath@12@0W4copy_options@12@AEAVerror_code@2@@Z DD imagerel $LN29
	DD	imagerel $LN29+71
	DD	imagerel $unwind$?copy_file@filesystem@std@@YA_NAEBVpath@12@0W4copy_options@12@AEAVerror_code@2@@Z
pdata	ENDS
;	COMDAT pdata
pdata	SEGMENT
$pdata$?copy_symlink@filesystem@std@@YAXAEBVpath@12@0AEAVerror_code@2@@Z DD imagerel $LN9
	DD	imagerel $LN9+44
	DD	imagerel $unwind$?copy_symlink@filesystem@std@@YAXAEBVpath@12@0AEAVerror_code@2@@Z
pdata	ENDS
;	COMDAT pdata
pdata	SEGMENT
$pdata$?_Copy_junction@filesystem@std@@YA?AW4__std_win_error@@AEBVpath@12@0@Z DD imagerel $LN154
	DD	imagerel $LN154+90
	DD	imagerel $unwind$?_Copy_junction@filesystem@std@@YA?AW4__std_win_error@@AEBVpath@12@0@Z
pdata	ENDS
;	COMDAT pdata
pdata	SEGMENT
$pdata$0$?_Copy_junction@filesystem@std@@YA?AW4__std_win_error@@AEBVpath@12@0@Z DD imagerel $LN154+90
	DD	imagerel $LN154+318
	DD	imagerel $chain$0$?_Copy_junction@filesystem@std@@YA?AW4__std_win_error@@AEBVpath@12@0@Z
pdata	ENDS
;	COMDAT pdata
pdata	SEGMENT
$pdata$1$?_Copy_junction@filesystem@std@@YA?AW4__std_win_error@@AEBVpath@12@0@Z DD imagerel $LN154+318
	DD	imagerel $LN154+376
	DD	imagerel $chain$1$?_Copy_junction@filesystem@std@@YA?AW4__std_win_error@@AEBVpath@12@0@Z
pdata	ENDS
;	COMDAT pdata
pdata	SEGMENT
$pdata$2$?_Copy_junction@filesystem@std@@YA?AW4__std_win_error@@AEBVpath@12@0@Z DD imagerel $LN154+376
	DD	imagerel $LN154+381
	DD	imagerel $chain$2$?_Copy_junction@filesystem@std@@YA?AW4__std_win_error@@AEBVpath@12@0@Z
pdata	ENDS
;	COMDAT pdata
pdata	SEGMENT
$pdata$3$?_Copy_junction@filesystem@std@@YA?AW4__std_win_error@@AEBVpath@12@0@Z DD imagerel $LN154+381
	DD	imagerel $LN154+401
	DD	imagerel $chain$3$?_Copy_junction@filesystem@std@@YA?AW4__std_win_error@@AEBVpath@12@0@Z
pdata	ENDS
;	COMDAT pdata
pdata	SEGMENT
$pdata$?_Copy_symlink@filesystem@std@@YA?AW4__std_win_error@@AEBVpath@12@0@Z DD imagerel $LN131
	DD	imagerel $LN131+90
	DD	imagerel $unwind$?_Copy_symlink@filesystem@std@@YA?AW4__std_win_error@@AEBVpath@12@0@Z
pdata	ENDS
;	COMDAT pdata
pdata	SEGMENT
$pdata$0$?_Copy_symlink@filesystem@std@@YA?AW4__std_win_error@@AEBVpath@12@0@Z DD imagerel $LN131+90
	DD	imagerel $LN131+250
	DD	imagerel $chain$0$?_Copy_symlink@filesystem@std@@YA?AW4__std_win_error@@AEBVpath@12@0@Z
pdata	ENDS
;	COMDAT pdata
pdata	SEGMENT
$pdata$1$?_Copy_symlink@filesystem@std@@YA?AW4__std_win_error@@AEBVpath@12@0@Z DD imagerel $LN131+250
	DD	imagerel $LN131+377
	DD	imagerel $chain$1$?_Copy_symlink@filesystem@std@@YA?AW4__std_win_error@@AEBVpath@12@0@Z
pdata	ENDS
;	COMDAT pdata
pdata	SEGMENT
$pdata$2$?_Copy_symlink@filesystem@std@@YA?AW4__std_win_error@@AEBVpath@12@0@Z DD imagerel $LN131+377
	DD	imagerel $LN131+382
	DD	imagerel $chain$2$?_Copy_symlink@filesystem@std@@YA?AW4__std_win_error@@AEBVpath@12@0@Z
pdata	ENDS
;	COMDAT pdata
pdata	SEGMENT
$pdata$3$?_Copy_symlink@filesystem@std@@YA?AW4__std_win_error@@AEBVpath@12@0@Z DD imagerel $LN131+382
	DD	imagerel $LN131+402
	DD	imagerel $chain$3$?_Copy_symlink@filesystem@std@@YA?AW4__std_win_error@@AEBVpath@12@0@Z
pdata	ENDS
;	COMDAT pdata
pdata	SEGMENT
$pdata$?_Read_reparse_data@filesystem@std@@YA?AW4__std_win_error@@AEBU_Fs_file@2@AEAV?$unique_ptr@$$BY0A@DU?$default_delete@$$BY0A@D@std@@@2@@Z DD imagerel $LN20
	DD	imagerel $LN20+95
	DD	imagerel $unwind$?_Read_reparse_data@filesystem@std@@YA?AW4__std_win_error@@AEBU_Fs_file@2@AEAV?$unique_ptr@$$BY0A@DU?$default_delete@$$BY0A@D@std@@@2@@Z
pdata	ENDS
;	COMDAT pdata
pdata	SEGMENT
$pdata$?create_symlink@filesystem@std@@YAXAEBVpath@12@0AEAVerror_code@2@@Z DD imagerel $LN136
	DD	imagerel $LN136+322
	DD	imagerel $unwind$?create_symlink@filesystem@std@@YAXAEBVpath@12@0AEAVerror_code@2@@Z
pdata	ENDS
;	COMDAT pdata
pdata	SEGMENT
$pdata$?create_hard_link@filesystem@std@@YAXAEBVpath@12@0AEAVerror_code@2@@Z DD imagerel $LN29
	DD	imagerel $LN29+73
	DD	imagerel $unwind$?create_hard_link@filesystem@std@@YAXAEBVpath@12@0AEAVerror_code@2@@Z
pdata	ENDS
;	COMDAT pdata
pdata	SEGMENT
$pdata$?_Get_cleaned_symlink_target@filesystem@std@@YA?AV?$unique_ptr@$$BY0A@_WU?$default_delete@$$BY0A@_W@std@@@2@AEBVpath@12@@Z DD imagerel $LN103
	DD	imagerel $LN103+252
	DD	imagerel $unwind$?_Get_cleaned_symlink_target@filesystem@std@@YA?AV?$unique_ptr@$$BY0A@_WU?$default_delete@$$BY0A@_W@std@@@2@AEBVpath@12@@Z
pdata	ENDS
;	COMDAT pdata
pdata	SEGMENT
$pdata$?increment@directory_iterator@filesystem@std@@QEAAAEAV123@AEAVerror_code@3@@Z DD imagerel $LN9
	DD	imagerel $LN9+59
	DD	imagerel $unwind$?increment@directory_iterator@filesystem@std@@QEAAAEAV123@AEAVerror_code@3@@Z
pdata	ENDS
;	COMDAT pdata
pdata	SEGMENT
$pdata$??0directory_iterator@filesystem@std@@QEAA@AEBVpath@12@AEAVerror_code@2@@Z DD imagerel $LN14
	DD	imagerel $LN14+73
	DD	imagerel $unwind$??0directory_iterator@filesystem@std@@QEAA@AEBVpath@12@AEAVerror_code@2@@Z
pdata	ENDS
;	COMDAT pdata
pdata	SEGMENT
$pdata$?_Refresh@directory_entry@filesystem@std@@CA?AW4__std_win_error@@AEAU__std_fs_stats@@AEBVpath@23@@Z DD imagerel $LN26
	DD	imagerel $LN26+104
	DD	imagerel $unwind$?_Refresh@directory_entry@filesystem@std@@CA?AW4__std_win_error@@AEAU__std_fs_stats@@AEBVpath@23@@Z
pdata	ENDS
;	COMDAT pdata
pdata	SEGMENT
$pdata$?is_directory@directory_entry@filesystem@std@@QEBA_NXZ DD imagerel $LN21
	DD	imagerel $LN21+80
	DD	imagerel $unwind$?is_directory@directory_entry@filesystem@std@@QEBA_NXZ
pdata	ENDS
;	COMDAT pdata
pdata	SEGMENT
$pdata$?refresh@directory_entry@filesystem@std@@QEAAXAEAVerror_code@3@@Z DD imagerel $LN50
	DD	imagerel $LN50+175
	DD	imagerel $unwind$?refresh@directory_entry@filesystem@std@@QEAAXAEAVerror_code@3@@Z
pdata	ENDS
;	COMDAT pdata
pdata	SEGMENT
$pdata$??0directory_entry@filesystem@std@@QEAA@AEBVpath@12@AEAVerror_code@2@@Z DD imagerel $LN72
	DD	imagerel $LN72+224
	DD	imagerel $unwind$??0directory_entry@filesystem@std@@QEAA@AEBVpath@12@AEAVerror_code@2@@Z
pdata	ENDS
;	COMDAT pdata
pdata	SEGMENT
$pdata$?_Throw_fs_error@filesystem@std@@YAXPEBDAEBVerror_code@2@AEBVpath@12@2@Z DD imagerel $LN13
	DD	imagerel $LN13+104
	DD	imagerel $unwind$?_Throw_fs_error@filesystem@std@@YAXPEBDAEBVerror_code@2@AEBVpath@12@2@Z
pdata	ENDS
;	COMDAT pdata
pdata	SEGMENT
$pdata$?_Throw_fs_error@filesystem@std@@YAXPEBDAEBVerror_code@2@AEBVpath@12@@Z DD imagerel $LN13
	DD	imagerel $LN13+85
	DD	imagerel $unwind$?_Throw_fs_error@filesystem@std@@YAXPEBDAEBVerror_code@2@AEBVpath@12@@Z
pdata	ENDS
;	COMDAT pdata
pdata	SEGMENT
$pdata$?_Throw_fs_error@filesystem@std@@YAXPEBDW4__std_win_error@@AEBVpath@12@2@Z DD imagerel $LN13
	DD	imagerel $LN13+114
	DD	imagerel $unwind$?_Throw_fs_error@filesystem@std@@YAXPEBDW4__std_win_error@@AEBVpath@12@2@Z
pdata	ENDS
;	COMDAT pdata
pdata	SEGMENT
$pdata$??0filesystem_error@filesystem@std@@QEAA@AEBV?$basic_string@DU?$char_traits@D@std@@V?$allocator@D@2@@2@AEBVpath@12@1Verror_code@2@@Z DD imagerel $LN21
	DD	imagerel $LN21+193
	DD	imagerel $unwind$??0filesystem_error@filesystem@std@@QEAA@AEBV?$basic_string@DU?$char_traits@D@std@@V?$allocator@D@2@@2@AEBVpath@12@1Verror_code@2@@Z
pdata	ENDS
;	COMDAT pdata
pdata	SEGMENT
$pdata$??Kfilesystem@std@@YA?AVpath@01@AEBV201@0@Z DD imagerel $LN7
	DD	imagerel $LN7+68
	DD	imagerel $unwind$??Kfilesystem@std@@YA?AVpath@01@AEBV201@0@Z
pdata	ENDS
;	COMDAT pdata
pdata	SEGMENT
$pdata$?dtor$0@?0???Kfilesystem@std@@YA?AVpath@01@AEBV201@0@Z@4HA DD imagerel ?dtor$0@?0???Kfilesystem@std@@YA?AVpath@01@AEBV201@0@Z@4HA
	DD	imagerel ?dtor$0@?0???Kfilesystem@std@@YA?AVpath@01@AEBV201@0@Z@4HA+38
	DD	imagerel $unwind$?dtor$0@?0???Kfilesystem@std@@YA?AVpath@01@AEBV201@0@Z@4HA
pdata	ENDS
;	COMDAT pdata
pdata	SEGMENT
$pdata$??0_Fs_file@std@@QEAA@QEB_WW4__std_access_rights@@W4__std_fs_file_flags@@QEAW4__std_win_error@@@Z DD imagerel $LN4
	DD	imagerel $LN4+30
	DD	imagerel $unwind$??0_Fs_file@std@@QEAA@QEB_WW4__std_access_rights@@W4__std_fs_file_flags@@QEAW4__std_win_error@@@Z
pdata	ENDS
;	COMDAT pdata
pdata	SEGMENT
$pdata$?WriteFile@Util@@YAXV?$basic_string@DU?$char_traits@D@std@@V?$allocator@D@2@@std@@V?$vector@EV?$allocator@E@std@@@3@@Z DD imagerel $LN95
	DD	imagerel $LN95+420
	DD	imagerel $unwind$?WriteFile@Util@@YAXV?$basic_string@DU?$char_traits@D@std@@V?$allocator@D@2@@std@@V?$vector@EV?$allocator@E@std@@@3@@Z
pdata	ENDS
;	COMDAT pdata
pdata	SEGMENT
$pdata$?ReadFile@Util@@YA?AV?$vector@EV?$allocator@E@std@@@std@@V?$basic_string@DU?$char_traits@D@std@@V?$allocator@D@2@@3@@Z DD imagerel $LN80
	DD	imagerel $LN80+728
	DD	imagerel $unwind$?ReadFile@Util@@YA?AV?$vector@EV?$allocator@E@std@@@std@@V?$basic_string@DU?$char_traits@D@std@@V?$allocator@D@2@@3@@Z
pdata	ENDS
;	COMDAT pdata
pdata	SEGMENT
$pdata$?dtor$2@?0??ReadFile@Util@@YA?AV?$vector@EV?$allocator@E@std@@@std@@V?$basic_string@DU?$char_traits@D@std@@V?$allocator@D@2@@3@@Z@4HA DD imagerel ?dtor$2@?0??ReadFile@Util@@YA?AV?$vector@EV?$allocator@E@std@@@std@@V?$basic_string@DU?$char_traits@D@std@@V?$allocator@D@2@@3@@Z@4HA
	DD	imagerel ?dtor$2@?0??ReadFile@Util@@YA?AV?$vector@EV?$allocator@E@std@@@std@@V?$basic_string@DU?$char_traits@D@std@@V?$allocator@D@2@@3@@Z@4HA+38
	DD	imagerel $unwind$?dtor$2@?0??ReadFile@Util@@YA?AV?$vector@EV?$allocator@E@std@@@std@@V?$basic_string@DU?$char_traits@D@std@@V?$allocator@D@2@@3@@Z@4HA
pdata	ENDS
;	COMDAT pdata
pdata	SEGMENT
$pdata$?CopyFileToDest@Util@@YAXAEBV?$basic_string@DU?$char_traits@D@std@@V?$allocator@D@2@@std@@0@Z DD imagerel $LN46
	DD	imagerel $LN46+134
	DD	imagerel $unwind$?CopyFileToDest@Util@@YAXAEBV?$basic_string@DU?$char_traits@D@std@@V?$allocator@D@2@@std@@0@Z
pdata	ENDS
;	COMDAT pdata
pdata	SEGMENT
$pdata$?RemoveFile@Util@@YAXAEBV?$basic_string@DU?$char_traits@D@std@@V?$allocator@D@2@@std@@@Z DD imagerel $LN27
	DD	imagerel $LN27+88
	DD	imagerel $unwind$?RemoveFile@Util@@YAXAEBV?$basic_string@DU?$char_traits@D@std@@V?$allocator@D@2@@std@@@Z
pdata	ENDS
;	COMDAT pdata
pdata	SEGMENT
$pdata$?StringToLowerCase@Util@@YA?AV?$basic_string@DU?$char_traits@D@std@@V?$allocator@D@2@@std@@V23@@Z DD imagerel $LN95
	DD	imagerel $LN95+206
	DD	imagerel $unwind$?StringToLowerCase@Util@@YA?AV?$basic_string@DU?$char_traits@D@std@@V?$allocator@D@2@@std@@V23@@Z
pdata	ENDS
;	COMDAT pdata
pdata	SEGMENT
$pdata$?IsNumber@Util@@YA_NV?$basic_string@DU?$char_traits@D@std@@V?$allocator@D@2@@std@@@Z DD imagerel $LN72
	DD	imagerel $LN72+27
	DD	imagerel $unwind$?IsNumber@Util@@YA_NV?$basic_string@DU?$char_traits@D@std@@V?$allocator@D@2@@std@@@Z
pdata	ENDS
;	COMDAT pdata
pdata	SEGMENT
$pdata$0$?IsNumber@Util@@YA_NV?$basic_string@DU?$char_traits@D@std@@V?$allocator@D@2@@std@@@Z DD imagerel $LN72+27
	DD	imagerel $LN72+100
	DD	imagerel $chain$0$?IsNumber@Util@@YA_NV?$basic_string@DU?$char_traits@D@std@@V?$allocator@D@2@@std@@@Z
pdata	ENDS
;	COMDAT pdata
pdata	SEGMENT
$pdata$1$?IsNumber@Util@@YA_NV?$basic_string@DU?$char_traits@D@std@@V?$allocator@D@2@@std@@@Z DD imagerel $LN72+100
	DD	imagerel $LN72+140
	DD	imagerel $chain$1$?IsNumber@Util@@YA_NV?$basic_string@DU?$char_traits@D@std@@V?$allocator@D@2@@std@@@Z
pdata	ENDS
;	COMDAT pdata
pdata	SEGMENT
$pdata$?CopyDirectoryRecursively@Util@@YAXAEBV?$basic_string@DU?$char_traits@D@std@@V?$allocator@D@2@@std@@0@Z DD imagerel $LN761
	DD	imagerel $LN761+2465
	DD	imagerel $unwind$?CopyDirectoryRecursively@Util@@YAXAEBV?$basic_string@DU?$char_traits@D@std@@V?$allocator@D@2@@std@@0@Z
pdata	ENDS
;	COMDAT pdata
pdata	SEGMENT
$pdata$?dtor$26@?0??CopyDirectoryRecursively@Util@@YAXAEBV?$basic_string@DU?$char_traits@D@std@@V?$allocator@D@2@@std@@0@Z@4HA DD imagerel ?dtor$26@?0??CopyDirectoryRecursively@Util@@YAXAEBV?$basic_string@DU?$char_traits@D@std@@V?$allocator@D@2@@std@@0@Z@4HA
	DD	imagerel ?dtor$26@?0??CopyDirectoryRecursively@Util@@YAXAEBV?$basic_string@DU?$char_traits@D@std@@V?$allocator@D@2@@std@@0@Z@4HA+38
	DD	imagerel $unwind$?dtor$26@?0??CopyDirectoryRecursively@Util@@YAXAEBV?$basic_string@DU?$char_traits@D@std@@V?$allocator@D@2@@std@@0@Z@4HA
pdata	ENDS
;	COMDAT pdata
pdata	SEGMENT
$pdata$?dtor$35@?0??CopyDirectoryRecursively@Util@@YAXAEBV?$basic_string@DU?$char_traits@D@std@@V?$allocator@D@2@@std@@0@Z@4HA DD imagerel ?dtor$35@?0??CopyDirectoryRecursively@Util@@YAXAEBV?$basic_string@DU?$char_traits@D@std@@V?$allocator@D@2@@std@@0@Z@4HA
	DD	imagerel ?dtor$35@?0??CopyDirectoryRecursively@Util@@YAXAEBV?$basic_string@DU?$char_traits@D@std@@V?$allocator@D@2@@std@@0@Z@4HA+46
	DD	imagerel $unwind$?dtor$35@?0??CopyDirectoryRecursively@Util@@YAXAEBV?$basic_string@DU?$char_traits@D@std@@V?$allocator@D@2@@std@@0@Z@4HA
pdata	ENDS
;	COMDAT pdata
pdata	SEGMENT
$pdata$??$StringToNumber@_K@Util@@YA_KV?$basic_string@DU?$char_traits@D@std@@V?$allocator@D@2@@std@@@Z DD imagerel $LN20
	DD	imagerel $LN20+237
	DD	imagerel $unwind$??$StringToNumber@_K@Util@@YA_KV?$basic_string@DU?$char_traits@D@std@@V?$allocator@D@2@@std@@@Z
pdata	ENDS
;	COMDAT pdata
pdata	SEGMENT
$pdata$??$StringToNumber@I@Util@@YAIV?$basic_string@DU?$char_traits@D@std@@V?$allocator@D@2@@std@@@Z DD imagerel $LN20
	DD	imagerel $LN20+235
	DD	imagerel $unwind$??$StringToNumber@I@Util@@YAIV?$basic_string@DU?$char_traits@D@std@@V?$allocator@D@2@@std@@@Z
pdata	ENDS
;	COMDAT pdata
pdata	SEGMENT
$pdata$??$StringToNumber@_J@Util@@YA_JV?$basic_string@DU?$char_traits@D@std@@V?$allocator@D@2@@std@@@Z DD imagerel $LN20
	DD	imagerel $LN20+237
	DD	imagerel $unwind$??$StringToNumber@_J@Util@@YA_JV?$basic_string@DU?$char_traits@D@std@@V?$allocator@D@2@@std@@@Z
pdata	ENDS
;	COMDAT pdata
pdata	SEGMENT
$pdata$??$StringToNumber@H@Util@@YAHV?$basic_string@DU?$char_traits@D@std@@V?$allocator@D@2@@std@@@Z DD imagerel $LN20
	DD	imagerel $LN20+235
	DD	imagerel $unwind$??$StringToNumber@H@Util@@YAHV?$basic_string@DU?$char_traits@D@std@@V?$allocator@D@2@@std@@@Z
pdata	ENDS
;	COMDAT pdata
pdata	SEGMENT
$pdata$??$StringToNumber@M@Util@@YAMV?$basic_string@DU?$char_traits@D@std@@V?$allocator@D@2@@std@@@Z DD imagerel $LN20
	DD	imagerel $LN20+242
	DD	imagerel $unwind$??$StringToNumber@M@Util@@YAMV?$basic_string@DU?$char_traits@D@std@@V?$allocator@D@2@@std@@@Z
pdata	ENDS
;	COMDAT pdata
pdata	SEGMENT
$pdata$?ReplaceString@Util@@YA_NAEAV?$basic_string@DU?$char_traits@D@std@@V?$allocator@D@2@@std@@AEBV23@1@Z DD imagerel $LN34
	DD	imagerel $LN34+175
	DD	imagerel $unwind$?ReplaceString@Util@@YA_NAEAV?$basic_string@DU?$char_traits@D@std@@V?$allocator@D@2@@std@@AEBV23@1@Z
pdata	ENDS
;	COMDAT pdata
pdata	SEGMENT
$pdata$?FileExists@Util@@YA_NV?$basic_string@DU?$char_traits@D@std@@V?$allocator@D@2@@std@@@Z DD imagerel $LN18
	DD	imagerel $LN18+89
	DD	imagerel $unwind$?FileExists@Util@@YA_NV?$basic_string@DU?$char_traits@D@std@@V?$allocator@D@2@@std@@@Z
pdata	ENDS
;	COMDAT pdata
pdata	SEGMENT
$pdata$?CreateDir@Util@@YAXV?$basic_string@DU?$char_traits@D@std@@V?$allocator@D@2@@std@@@Z DD imagerel $LN28
	DD	imagerel $LN28+145
	DD	imagerel $unwind$?CreateDir@Util@@YAXV?$basic_string@DU?$char_traits@D@std@@V?$allocator@D@2@@std@@@Z
;	COMDAT xdata
xdata	SEGMENT
$ip2state$?CreateDir@Util@@YAXV?$basic_string@DU?$char_traits@D@std@@V?$allocator@D@2@@std@@@Z DB 08H
	DB	'J'
	DB	02H
	DB	'F'
	DB	04H
	DB	'N'
	DB	00H
	DB	'8'
	DB	04H
xdata	ENDS
;	COMDAT xdata
xdata	SEGMENT
$stateUnwindMap$?CreateDir@Util@@YAXV?$basic_string@DU?$char_traits@D@std@@V?$allocator@D@2@@std@@@Z DB 04H
	DB	0cH
	DD	imagerel ??1?$basic_string@DU?$char_traits@D@std@@V?$allocator@D@2@@std@@QEAA@XZ
	DB	080H
	DB	032H
	DD	imagerel ??1path@filesystem@std@@QEAA@XZ
	DB	040H
xdata	ENDS
;	COMDAT xdata
xdata	SEGMENT
$cppxdata$?CreateDir@Util@@YAXV?$basic_string@DU?$char_traits@D@std@@V?$allocator@D@2@@std@@@Z DB 028H
	DD	imagerel $stateUnwindMap$?CreateDir@Util@@YAXV?$basic_string@DU?$char_traits@D@std@@V?$allocator@D@2@@std@@@Z
	DD	imagerel $ip2state$?CreateDir@Util@@YAXV?$basic_string@DU?$char_traits@D@std@@V?$allocator@D@2@@std@@@Z
xdata	ENDS
;	COMDAT xdata
xdata	SEGMENT
$unwind$?CreateDir@Util@@YAXV?$basic_string@DU?$char_traits@D@std@@V?$allocator@D@2@@std@@@Z DD 021519H
	DD	03002b206H
	DD	imagerel __GSHandlerCheck_EH4
	DD	imagerel $cppxdata$?CreateDir@Util@@YAXV?$basic_string@DU?$char_traits@D@std@@V?$allocator@D@2@@std@@@Z
	DD	05aH
xdata	ENDS
;	COMDAT xdata
xdata	SEGMENT
$unwind$?FileExists@Util@@YA_NV?$basic_string@DU?$char_traits@D@std@@V?$allocator@D@2@@std@@@Z DD 041919H
	DD	0f340aH
	DD	07006b20aH
	DD	imagerel __GSHandlerCheck
	DD	050H
xdata	ENDS
;	COMDAT xdata
xdata	SEGMENT
$unwind$?ReplaceString@Util@@YA_NAEAV?$basic_string@DU?$char_traits@D@std@@V?$allocator@D@2@@std@@AEBV23@1@Z DD 0a1a01H
	DD	0b741aH
	DD	0a641aH
	DD	09541aH
	DD	08341aH
	DD	0e016521aH
xdata	ENDS
;	COMDAT xdata
xdata	SEGMENT
$ip2state$??$StringToNumber@M@Util@@YAMV?$basic_string@DU?$char_traits@D@std@@V?$allocator@D@2@@std@@@Z DB 06H
	DB	08aH
	DB	02H
	DB	' '
	DB	04H
	DB	01dH, 02H
	DB	00H
xdata	ENDS
;	COMDAT xdata
xdata	SEGMENT
$stateUnwindMap$??$StringToNumber@M@Util@@YAMV?$basic_string@DU?$char_traits@D@std@@V?$allocator@D@2@@std@@@Z DB 04H
	DB	0cH
	DD	imagerel ??1?$basic_string@DU?$char_traits@D@std@@V?$allocator@D@2@@std@@QEAA@XZ
	DB	040H
	DB	032H
	DD	imagerel ??_D?$basic_istringstream@DU?$char_traits@D@std@@V?$allocator@D@2@@std@@QEAAXXZ
	DB	060H
xdata	ENDS
;	COMDAT xdata
xdata	SEGMENT
$cppxdata$??$StringToNumber@M@Util@@YAMV?$basic_string@DU?$char_traits@D@std@@V?$allocator@D@2@@std@@@Z DB 028H
	DD	imagerel $stateUnwindMap$??$StringToNumber@M@Util@@YAMV?$basic_string@DU?$char_traits@D@std@@V?$allocator@D@2@@std@@@Z
	DD	imagerel $ip2state$??$StringToNumber@M@Util@@YAMV?$basic_string@DU?$char_traits@D@std@@V?$allocator@D@2@@std@@@Z
xdata	ENDS
;	COMDAT xdata
xdata	SEGMENT
$unwind$??$StringToNumber@M@Util@@YAMV?$basic_string@DU?$char_traits@D@std@@V?$allocator@D@2@@std@@@Z DD 052319H
	DD	0136811H
	DD	0280109H
	DD	03002H
	DD	imagerel __GSHandlerCheck_EH4
	DD	imagerel $cppxdata$??$StringToNumber@M@Util@@YAMV?$basic_string@DU?$char_traits@D@std@@V?$allocator@D@2@@std@@@Z
	DD	0122H
xdata	ENDS
;	COMDAT xdata
xdata	SEGMENT
$ip2state$??$StringToNumber@H@Util@@YAHV?$basic_string@DU?$char_traits@D@std@@V?$allocator@D@2@@std@@@Z DB 06H
	DB	082H
	DB	02H
	DB	' '
	DB	04H
	DB	011H, 02H
	DB	00H
xdata	ENDS
;	COMDAT xdata
xdata	SEGMENT
$stateUnwindMap$??$StringToNumber@H@Util@@YAHV?$basic_string@DU?$char_traits@D@std@@V?$allocator@D@2@@std@@@Z DB 04H
	DB	0cH
	DD	imagerel ??1?$basic_string@DU?$char_traits@D@std@@V?$allocator@D@2@@std@@QEAA@XZ
	DB	040H
	DB	032H
	DD	imagerel ??_D?$basic_istringstream@DU?$char_traits@D@std@@V?$allocator@D@2@@std@@QEAAXXZ
	DB	060H
xdata	ENDS
;	COMDAT xdata
xdata	SEGMENT
$cppxdata$??$StringToNumber@H@Util@@YAHV?$basic_string@DU?$char_traits@D@std@@V?$allocator@D@2@@std@@@Z DB 028H
	DD	imagerel $stateUnwindMap$??$StringToNumber@H@Util@@YAHV?$basic_string@DU?$char_traits@D@std@@V?$allocator@D@2@@std@@@Z
	DD	imagerel $ip2state$??$StringToNumber@H@Util@@YAHV?$basic_string@DU?$char_traits@D@std@@V?$allocator@D@2@@std@@@Z
xdata	ENDS
;	COMDAT xdata
xdata	SEGMENT
$unwind$??$StringToNumber@H@Util@@YAHV?$basic_string@DU?$char_traits@D@std@@V?$allocator@D@2@@std@@@Z DD 051f19H
	DD	029340dH
	DD	026010dH
	DD	07006H
	DD	imagerel __GSHandlerCheck_EH4
	DD	imagerel $cppxdata$??$StringToNumber@H@Util@@YAHV?$basic_string@DU?$char_traits@D@std@@V?$allocator@D@2@@std@@@Z
	DD	0122H
xdata	ENDS
;	COMDAT xdata
xdata	SEGMENT
$ip2state$??$StringToNumber@_J@Util@@YA_JV?$basic_string@DU?$char_traits@D@std@@V?$allocator@D@2@@std@@@Z DB 06H
	DB	082H
	DB	02H
	DB	' '
	DB	04H
	DB	019H, 02H
	DB	00H
xdata	ENDS
;	COMDAT xdata
xdata	SEGMENT
$stateUnwindMap$??$StringToNumber@_J@Util@@YA_JV?$basic_string@DU?$char_traits@D@std@@V?$allocator@D@2@@std@@@Z DB 04H
	DB	0cH
	DD	imagerel ??1?$basic_string@DU?$char_traits@D@std@@V?$allocator@D@2@@std@@QEAA@XZ
	DB	040H
	DB	032H
	DD	imagerel ??_D?$basic_istringstream@DU?$char_traits@D@std@@V?$allocator@D@2@@std@@QEAAXXZ
	DB	060H
xdata	ENDS
;	COMDAT xdata
xdata	SEGMENT
$cppxdata$??$StringToNumber@_J@Util@@YA_JV?$basic_string@DU?$char_traits@D@std@@V?$allocator@D@2@@std@@@Z DB 028H
	DD	imagerel $stateUnwindMap$??$StringToNumber@_J@Util@@YA_JV?$basic_string@DU?$char_traits@D@std@@V?$allocator@D@2@@std@@@Z
	DD	imagerel $ip2state$??$StringToNumber@_J@Util@@YA_JV?$basic_string@DU?$char_traits@D@std@@V?$allocator@D@2@@std@@@Z
xdata	ENDS
;	COMDAT xdata
xdata	SEGMENT
$unwind$??$StringToNumber@_J@Util@@YA_JV?$basic_string@DU?$char_traits@D@std@@V?$allocator@D@2@@std@@@Z DD 051f19H
	DD	029340dH
	DD	026010dH
	DD	07006H
	DD	imagerel __GSHandlerCheck_EH4
	DD	imagerel $cppxdata$??$StringToNumber@_J@Util@@YA_JV?$basic_string@DU?$char_traits@D@std@@V?$allocator@D@2@@std@@@Z
	DD	0122H
xdata	ENDS
;	COMDAT xdata
xdata	SEGMENT
$ip2state$??$StringToNumber@I@Util@@YAIV?$basic_string@DU?$char_traits@D@std@@V?$allocator@D@2@@std@@@Z DB 06H
	DB	082H
	DB	02H
	DB	' '
	DB	04H
	DB	011H, 02H
	DB	00H
xdata	ENDS
;	COMDAT xdata
xdata	SEGMENT
$stateUnwindMap$??$StringToNumber@I@Util@@YAIV?$basic_string@DU?$char_traits@D@std@@V?$allocator@D@2@@std@@@Z DB 04H
	DB	0cH
	DD	imagerel ??1?$basic_string@DU?$char_traits@D@std@@V?$allocator@D@2@@std@@QEAA@XZ
	DB	040H
	DB	032H
	DD	imagerel ??_D?$basic_istringstream@DU?$char_traits@D@std@@V?$allocator@D@2@@std@@QEAAXXZ
	DB	060H
xdata	ENDS
;	COMDAT xdata
xdata	SEGMENT
$cppxdata$??$StringToNumber@I@Util@@YAIV?$basic_string@DU?$char_traits@D@std@@V?$allocator@D@2@@std@@@Z DB 028H
	DD	imagerel $stateUnwindMap$??$StringToNumber@I@Util@@YAIV?$basic_string@DU?$char_traits@D@std@@V?$allocator@D@2@@std@@@Z
	DD	imagerel $ip2state$??$StringToNumber@I@Util@@YAIV?$basic_string@DU?$char_traits@D@std@@V?$allocator@D@2@@std@@@Z
xdata	ENDS
;	COMDAT xdata
xdata	SEGMENT
$unwind$??$StringToNumber@I@Util@@YAIV?$basic_string@DU?$char_traits@D@std@@V?$allocator@D@2@@std@@@Z DD 051f19H
	DD	029340dH
	DD	026010dH
	DD	07006H
	DD	imagerel __GSHandlerCheck_EH4
	DD	imagerel $cppxdata$??$StringToNumber@I@Util@@YAIV?$basic_string@DU?$char_traits@D@std@@V?$allocator@D@2@@std@@@Z
	DD	0122H
xdata	ENDS
;	COMDAT xdata
xdata	SEGMENT
$ip2state$??$StringToNumber@_K@Util@@YA_KV?$basic_string@DU?$char_traits@D@std@@V?$allocator@D@2@@std@@@Z DB 06H
	DB	082H
	DB	02H
	DB	' '
	DB	04H
	DB	019H, 02H
	DB	00H
xdata	ENDS
;	COMDAT xdata
xdata	SEGMENT
$stateUnwindMap$??$StringToNumber@_K@Util@@YA_KV?$basic_string@DU?$char_traits@D@std@@V?$allocator@D@2@@std@@@Z DB 04H
	DB	0cH
	DD	imagerel ??1?$basic_string@DU?$char_traits@D@std@@V?$allocator@D@2@@std@@QEAA@XZ
	DB	040H
	DB	032H
	DD	imagerel ??_D?$basic_istringstream@DU?$char_traits@D@std@@V?$allocator@D@2@@std@@QEAAXXZ
	DB	060H
xdata	ENDS
;	COMDAT xdata
xdata	SEGMENT
$cppxdata$??$StringToNumber@_K@Util@@YA_KV?$basic_string@DU?$char_traits@D@std@@V?$allocator@D@2@@std@@@Z DB 028H
	DD	imagerel $stateUnwindMap$??$StringToNumber@_K@Util@@YA_KV?$basic_string@DU?$char_traits@D@std@@V?$allocator@D@2@@std@@@Z
	DD	imagerel $ip2state$??$StringToNumber@_K@Util@@YA_KV?$basic_string@DU?$char_traits@D@std@@V?$allocator@D@2@@std@@@Z
xdata	ENDS
;	COMDAT xdata
xdata	SEGMENT
$unwind$??$StringToNumber@_K@Util@@YA_KV?$basic_string@DU?$char_traits@D@std@@V?$allocator@D@2@@std@@@Z DD 051f19H
	DD	029340dH
	DD	026010dH
	DD	07006H
	DD	imagerel __GSHandlerCheck_EH4
	DD	imagerel $cppxdata$??$StringToNumber@_K@Util@@YA_KV?$basic_string@DU?$char_traits@D@std@@V?$allocator@D@2@@std@@@Z
	DD	0122H
xdata	ENDS
;	COMDAT voltbl
voltbl	SEGMENT
_volmd	DW	08eH
	DW	0b2H
	DW	0d9H
	DW	0f4H
	DW	0230H
	DW	024bH
	DW	0868H
	DW	0883H
	DW	08a9H
	DW	08c2H
voltbl	ENDS
;	COMDAT xdata
xdata	SEGMENT
$unwind$?dtor$35@?0??CopyDirectoryRecursively@Util@@YAXAEBV?$basic_string@DU?$char_traits@D@std@@V?$allocator@D@2@@std@@0@Z@4HA DD 020601H
	DD	050023206H
xdata	ENDS
;	COMDAT xdata
xdata	SEGMENT
$unwind$?dtor$26@?0??CopyDirectoryRecursively@Util@@YAXAEBV?$basic_string@DU?$char_traits@D@std@@V?$allocator@D@2@@std@@0@Z@4HA DD 020601H
	DD	050023206H
xdata	ENDS
;	COMDAT xdata
xdata	SEGMENT
$ip2state$?CopyDirectoryRecursively@Util@@YAXAEBV?$basic_string@DU?$char_traits@D@std@@V?$allocator@D@2@@std@@0@Z DB '('
	DB	08cH
	DB	00H
	DB	'8'
	DB	04H
	DB	'I', 06H
	DB	0eH
	DB	095H, 05H
	DB	0cH
	DB	08dH, 04H
	DB	012H
	DB	'-', 02H
	DB	014H
	DB	'.'
	DB	016H
	DB	'M', 02H
	DB	01aH
	DB	0f8H
	DB	01cH
	DB	085H, 03H
	DB	01eH
	DB	095H, 04H
	DB	0cH
	DB	0c1H, 02H
	DB	00H
	DB	'b'
	DB	0cH
	DB	'*'
	DB	04H
	DB	'&'
	DB	0cH
	DB	'"'
	DB	012H
	DB	'4'
	DB	01aH
	DB	'4'
	DB	01cH
	DB	'('
	DB	014H
	DB	0cH
	DB	0cH
xdata	ENDS
;	COMDAT xdata
xdata	SEGMENT
$stateUnwindMap$?CopyDirectoryRecursively@Util@@YAXAEBV?$basic_string@DU?$char_traits@D@std@@V?$allocator@D@2@@std@@0@Z DB 01eH
	DB	0aH
	DD	imagerel ??1path@filesystem@std@@QEAA@XZ
	DB	0a1H
	DB	04H
	DB	03aH
	DD	imagerel ??1?$shared_ptr@U_Dir_enum_impl@filesystem@std@@@std@@QEAA@XZ
	DB	081H
	DB	06H
	DB	072H
	DD	imagerel ??1directory_iterator@filesystem@std@@QEAA@XZ
	DB	081H
	DB	06H
	DB	0b2H
	DD	imagerel ??1directory_iterator@filesystem@std@@QEAA@XZ
	DB	081H
	DB	06H
	DB	03aH
	DD	imagerel ??1directory_iterator@filesystem@std@@QEAA@XZ
	DB	01H
	DB	07H
	DB	03aH
	DD	imagerel ??1directory_iterator@filesystem@std@@QEAA@XZ
	DB	081H
	DB	08H
	DB	03aH
	DD	imagerel ??1?$shared_ptr@U_Dir_enum_impl@filesystem@std@@@std@@QEAA@XZ
	DB	0c1H
	DB	06H
	DB	072H
	DD	imagerel ??1path@filesystem@std@@QEAA@XZ
	DB	0f0H
	DB	036H
	DD	imagerel ?dtor$26@?0??CopyDirectoryRecursively@Util@@YAXAEBV?$basic_string@DU?$char_traits@D@std@@V?$allocator@D@2@@std@@0@Z@4HA
	DB	05aH
	DD	imagerel ??1?$basic_string@DU?$char_traits@D@std@@V?$allocator@D@2@@std@@QEAA@XZ
	DB	0a0H
	DB	032H
	DD	imagerel ??1?$basic_string@DU?$char_traits@D@std@@V?$allocator@D@2@@std@@QEAA@XZ
	DB	021H
	DB	05H
	DB	03aH
	DD	imagerel ??1?$basic_string@DU?$char_traits@D@std@@V?$allocator@D@2@@std@@QEAA@XZ
	DB	0e1H
	DB	02H
	DB	03eH
	DD	imagerel ?dtor$35@?0??CopyDirectoryRecursively@Util@@YAXAEBV?$basic_string@DU?$char_traits@D@std@@V?$allocator@D@2@@std@@0@Z@4HA
	DB	062H
	DD	imagerel ??1path@filesystem@std@@QEAA@XZ
	DB	061H
	DB	02H
	DB	03aH
	DD	imagerel ??1directory_entry@filesystem@std@@QEAA@XZ
	DB	081H
	DB	07H
xdata	ENDS
;	COMDAT xdata
xdata	SEGMENT
$cppxdata$?CopyDirectoryRecursively@Util@@YAXAEBV?$basic_string@DU?$char_traits@D@std@@V?$allocator@D@2@@std@@0@Z DB 028H
	DD	imagerel $stateUnwindMap$?CopyDirectoryRecursively@Util@@YAXAEBV?$basic_string@DU?$char_traits@D@std@@V?$allocator@D@2@@std@@0@Z
	DD	imagerel $ip2state$?CopyDirectoryRecursively@Util@@YAXAEBV?$basic_string@DU?$char_traits@D@std@@V?$allocator@D@2@@std@@0@Z
xdata	ENDS
;	COMDAT xdata
xdata	SEGMENT
$unwind$?CopyDirectoryRecursively@Util@@YAXAEBV?$basic_string@DU?$char_traits@D@std@@V?$allocator@D@2@@std@@0@Z DD 0b3019H
	DD	056341fH
	DD	04c011fH
	DD	0e00ef010H
	DD	0c00ad00cH
	DD	060077008H
	DD	05006H
	DD	imagerel __GSHandlerCheck_EH4
	DD	imagerel $cppxdata$?CopyDirectoryRecursively@Util@@YAXAEBV?$basic_string@DU?$char_traits@D@std@@V?$allocator@D@2@@std@@0@Z
	DD	0252H
xdata	ENDS
;	COMDAT xdata
xdata	SEGMENT
$chain$1$?IsNumber@Util@@YA_NV?$basic_string@DU?$char_traits@D@std@@V?$allocator@D@2@@std@@@Z DD 021H
	DD	imagerel $LN72
	DD	imagerel $LN72+27
	DD	imagerel $unwind$?IsNumber@Util@@YA_NV?$basic_string@DU?$char_traits@D@std@@V?$allocator@D@2@@std@@@Z
xdata	ENDS
;	COMDAT xdata
xdata	SEGMENT
$chain$0$?IsNumber@Util@@YA_NV?$basic_string@DU?$char_traits@D@std@@V?$allocator@D@2@@std@@@Z DD 020521H
	DD	076405H
	DD	imagerel $LN72
	DD	imagerel $LN72+27
	DD	imagerel $unwind$?IsNumber@Util@@YA_NV?$basic_string@DU?$char_traits@D@std@@V?$allocator@D@2@@std@@@Z
xdata	ENDS
;	COMDAT xdata
xdata	SEGMENT
$unwind$?IsNumber@Util@@YA_NV?$basic_string@DU?$char_traits@D@std@@V?$allocator@D@2@@std@@@Z DD 040a01H
	DD	08340aH
	DD	07006320aH
xdata	ENDS
;	COMDAT xdata
xdata	SEGMENT
$ip2state$?StringToLowerCase@Util@@YA?AV?$basic_string@DU?$char_traits@D@std@@V?$allocator@D@2@@std@@V23@@Z DB 04H
	DB	0c6H
	DB	02H
	DB	0a4H
	DB	00H
xdata	ENDS
;	COMDAT xdata
xdata	SEGMENT
$stateUnwindMap$?StringToLowerCase@Util@@YA?AV?$basic_string@DU?$char_traits@D@std@@V?$allocator@D@2@@std@@V23@@Z DB 02H
	DB	0cH
	DD	imagerel ??1?$basic_string@DU?$char_traits@D@std@@V?$allocator@D@2@@std@@QEAA@XZ
	DB	050H
xdata	ENDS
;	COMDAT xdata
xdata	SEGMENT
$cppxdata$?StringToLowerCase@Util@@YA?AV?$basic_string@DU?$char_traits@D@std@@V?$allocator@D@2@@std@@V23@@Z DB 028H
	DD	imagerel $stateUnwindMap$?StringToLowerCase@Util@@YA?AV?$basic_string@DU?$char_traits@D@std@@V?$allocator@D@2@@std@@V23@@Z
	DD	imagerel $ip2state$?StringToLowerCase@Util@@YA?AV?$basic_string@DU?$char_traits@D@std@@V?$allocator@D@2@@std@@V23@@Z
xdata	ENDS
;	COMDAT xdata
xdata	SEGMENT
$unwind$?StringToLowerCase@Util@@YA?AV?$basic_string@DU?$char_traits@D@std@@V?$allocator@D@2@@std@@V23@@Z DD 081f19H
	DD	0103410H
	DD	0f00c7210H
	DD	07008e00aH
	DD	050066007H
	DD	imagerel __GSHandlerCheck_EH4
	DD	imagerel $cppxdata$?StringToLowerCase@Util@@YA?AV?$basic_string@DU?$char_traits@D@std@@V?$allocator@D@2@@std@@V23@@Z
	DD	032H
xdata	ENDS
;	COMDAT xdata
xdata	SEGMENT
$ip2state$?RemoveFile@Util@@YAXAEBV?$basic_string@DU?$char_traits@D@std@@V?$allocator@D@2@@std@@@Z DB 04H
	DB	018H
	DB	00H
	DB	08cH
	DB	02H
xdata	ENDS
;	COMDAT xdata
xdata	SEGMENT
$stateUnwindMap$?RemoveFile@Util@@YAXAEBV?$basic_string@DU?$char_traits@D@std@@V?$allocator@D@2@@std@@@Z DB 02H
	DB	0aH
	DD	imagerel ??1path@filesystem@std@@QEAA@XZ
	DB	040H
xdata	ENDS
;	COMDAT xdata
xdata	SEGMENT
$cppxdata$?RemoveFile@Util@@YAXAEBV?$basic_string@DU?$char_traits@D@std@@V?$allocator@D@2@@std@@@Z DB 028H
	DD	imagerel $stateUnwindMap$?RemoveFile@Util@@YAXAEBV?$basic_string@DU?$char_traits@D@std@@V?$allocator@D@2@@std@@@Z
	DD	imagerel $ip2state$?RemoveFile@Util@@YAXAEBV?$basic_string@DU?$char_traits@D@std@@V?$allocator@D@2@@std@@@Z
xdata	ENDS
;	COMDAT xdata
xdata	SEGMENT
$unwind$?RemoveFile@Util@@YAXAEBV?$basic_string@DU?$char_traits@D@std@@V?$allocator@D@2@@std@@@Z DD 010411H
	DD	08204H
	DD	imagerel __CxxFrameHandler4
	DD	imagerel $cppxdata$?RemoveFile@Util@@YAXAEBV?$basic_string@DU?$char_traits@D@std@@V?$allocator@D@2@@std@@@Z
xdata	ENDS
;	COMDAT xdata
xdata	SEGMENT
$ip2state$?CopyFileToDest@Util@@YAXAEBV?$basic_string@DU?$char_traits@D@std@@V?$allocator@D@2@@std@@0@Z DB 06H
	DB	01cH
	DB	00H
	DB	01cH
	DB	02H
	DB	0c8H
	DB	04H
xdata	ENDS
;	COMDAT xdata
xdata	SEGMENT
$stateUnwindMap$?CopyFileToDest@Util@@YAXAEBV?$basic_string@DU?$char_traits@D@std@@V?$allocator@D@2@@std@@0@Z DB 04H
	DB	0aH
	DD	imagerel ??1path@filesystem@std@@QEAA@XZ
	DB	080H
	DB	032H
	DD	imagerel ??1path@filesystem@std@@QEAA@XZ
	DB	040H
xdata	ENDS
;	COMDAT xdata
xdata	SEGMENT
$cppxdata$?CopyFileToDest@Util@@YAXAEBV?$basic_string@DU?$char_traits@D@std@@V?$allocator@D@2@@std@@0@Z DB 028H
	DD	imagerel $stateUnwindMap$?CopyFileToDest@Util@@YAXAEBV?$basic_string@DU?$char_traits@D@std@@V?$allocator@D@2@@std@@0@Z
	DD	imagerel $ip2state$?CopyFileToDest@Util@@YAXAEBV?$basic_string@DU?$char_traits@D@std@@V?$allocator@D@2@@std@@0@Z
xdata	ENDS
;	COMDAT xdata
xdata	SEGMENT
$unwind$?CopyFileToDest@Util@@YAXAEBV?$basic_string@DU?$char_traits@D@std@@V?$allocator@D@2@@std@@0@Z DD 020611H
	DD	03002b206H
	DD	imagerel __CxxFrameHandler4
	DD	imagerel $cppxdata$?CopyFileToDest@Util@@YAXAEBV?$basic_string@DU?$char_traits@D@std@@V?$allocator@D@2@@std@@0@Z
xdata	ENDS
;	COMDAT xdata
xdata	SEGMENT
$unwind$?dtor$2@?0??ReadFile@Util@@YA?AV?$vector@EV?$allocator@E@std@@@std@@V?$basic_string@DU?$char_traits@D@std@@V?$allocator@D@2@@3@@Z@4HA DD 020601H
	DD	050023206H
xdata	ENDS
;	COMDAT xdata
xdata	SEGMENT
$ip2state$?ReadFile@Util@@YA?AV?$vector@EV?$allocator@E@std@@@std@@V?$basic_string@DU?$char_traits@D@std@@V?$allocator@D@2@@3@@Z DB 010H
	DB	0d0H
	DB	04H
	DB	0deH
	DB	06H
	DB	'Y', 02H
	DB	04H
	DB	081H, 02H
	DB	06H
	DB	082H
	DB	08H
	DB	'$'
	DB	06H
	DB	0b2H
	DB	02H
	DB	'2'
	DB	06H
xdata	ENDS
;	COMDAT xdata
xdata	SEGMENT
$stateUnwindMap$?ReadFile@Util@@YA?AV?$vector@EV?$allocator@E@std@@@std@@V?$basic_string@DU?$char_traits@D@std@@V?$allocator@D@2@@3@@Z DB 08H
	DB	0eH
	DD	imagerel ?dtor$2@?0??ReadFile@Util@@YA?AV?$vector@EV?$allocator@E@std@@@std@@V?$basic_string@DU?$char_traits@D@std@@V?$allocator@D@2@@3@@Z@4HA
	DB	02cH
	DD	imagerel ??1?$basic_string@DU?$char_traits@D@std@@V?$allocator@D@2@@std@@QEAA@XZ
	DB	01H
	DB	02H
	DB	03aH
	DD	imagerel ??_D?$basic_ifstream@DU?$char_traits@D@std@@@std@@QEAAXXZ
	DB	041H
	DB	02H
	DB	03cH
	DD	imagerel ??1?$basic_string@DU?$char_traits@D@std@@V?$allocator@D@2@@std@@QEAA@XZ
	DB	0a0H
xdata	ENDS
;	COMDAT xdata
xdata	SEGMENT
$cppxdata$?ReadFile@Util@@YA?AV?$vector@EV?$allocator@E@std@@@std@@V?$basic_string@DU?$char_traits@D@std@@V?$allocator@D@2@@3@@Z DB 028H
	DD	imagerel $stateUnwindMap$?ReadFile@Util@@YA?AV?$vector@EV?$allocator@E@std@@@std@@V?$basic_string@DU?$char_traits@D@std@@V?$allocator@D@2@@3@@Z
	DD	imagerel $ip2state$?ReadFile@Util@@YA?AV?$vector@EV?$allocator@E@std@@@std@@V?$basic_string@DU?$char_traits@D@std@@V?$allocator@D@2@@3@@Z
xdata	ENDS
;	COMDAT xdata
xdata	SEGMENT
$unwind$?ReadFile@Util@@YA?AV?$vector@EV?$allocator@E@std@@@std@@V?$basic_string@DU?$char_traits@D@std@@V?$allocator@D@2@@3@@Z DD 072919H
	DD	0403418H
	DD	03a0118H
	DD	07007e009H
	DD	05006H
	DD	imagerel __GSHandlerCheck_EH4
	DD	imagerel $cppxdata$?ReadFile@Util@@YA?AV?$vector@EV?$allocator@E@std@@@std@@V?$basic_string@DU?$char_traits@D@std@@V?$allocator@D@2@@3@@Z
	DD	01c2H
xdata	ENDS
;	COMDAT xdata
xdata	SEGMENT
$ip2state$?WriteFile@Util@@YAXV?$basic_string@DU?$char_traits@D@std@@V?$allocator@D@2@@std@@V?$vector@EV?$allocator@E@std@@@3@@Z DB 08H
	DB	0c2H
	DB	04H
	DB	08eH
	DB	06H
	DB	'v'
	DB	04H
	DB	'u', 02H
	DB	00H
xdata	ENDS
;	COMDAT xdata
xdata	SEGMENT
$stateUnwindMap$?WriteFile@Util@@YAXV?$basic_string@DU?$char_traits@D@std@@V?$allocator@D@2@@std@@V?$vector@EV?$allocator@E@std@@@3@@Z DB 06H
	DB	0cH
	DD	imagerel ??1?$vector@EV?$allocator@E@std@@@std@@QEAA@XZ
	DB	070H
	DB	034H
	DD	imagerel ??1?$basic_string@DU?$char_traits@D@std@@V?$allocator@D@2@@std@@QEAA@XZ
	DB	060H
	DB	032H
	DD	imagerel ??_D?$basic_ofstream@DU?$char_traits@D@std@@@std@@QEAAXXZ
	DB	080H
xdata	ENDS
;	COMDAT xdata
xdata	SEGMENT
$cppxdata$?WriteFile@Util@@YAXV?$basic_string@DU?$char_traits@D@std@@V?$allocator@D@2@@std@@V?$vector@EV?$allocator@E@std@@@3@@Z DB 028H
	DD	imagerel $stateUnwindMap$?WriteFile@Util@@YAXV?$basic_string@DU?$char_traits@D@std@@V?$allocator@D@2@@std@@V?$vector@EV?$allocator@E@std@@@3@@Z
	DD	imagerel $ip2state$?WriteFile@Util@@YAXV?$basic_string@DU?$char_traits@D@std@@V?$allocator@D@2@@std@@V?$vector@EV?$allocator@E@std@@@3@@Z
xdata	ENDS
;	COMDAT xdata
xdata	SEGMENT
$unwind$?WriteFile@Util@@YAXV?$basic_string@DU?$char_traits@D@std@@V?$allocator@D@2@@std@@V?$vector@EV?$allocator@E@std@@@3@@Z DD 092719H
	DD	0335415H
	DD	0323415H
	DD	02c0115H
	DD	0700ce00eH
	DD	0600bH
	DD	imagerel __GSHandlerCheck_EH4
	DD	imagerel $cppxdata$?WriteFile@Util@@YAXV?$basic_string@DU?$char_traits@D@std@@V?$allocator@D@2@@std@@V?$vector@EV?$allocator@E@std@@@3@@Z
	DD	0152H
xdata	ENDS
;	COMDAT xdata
xdata	SEGMENT
$unwind$??0_Fs_file@std@@QEAA@QEB_WW4__std_access_rights@@W4__std_fs_file_flags@@QEAW4__std_win_error@@@Z DD 020601H
	DD	030023206H
xdata	ENDS
;	COMDAT xdata
xdata	SEGMENT
$unwind$?dtor$0@?0???Kfilesystem@std@@YA?AVpath@01@AEBV201@0@Z@4HA DD 020601H
	DD	050023206H
xdata	ENDS
;	COMDAT xdata
xdata	SEGMENT
$ip2state$??Kfilesystem@std@@YA?AVpath@01@AEBV201@0@Z DB 02H
	DB	':'
	DB	02H
xdata	ENDS
;	COMDAT xdata
xdata	SEGMENT
$stateUnwindMap$??Kfilesystem@std@@YA?AVpath@01@AEBV201@0@Z DB 02H
	DB	0eH
	DD	imagerel ?dtor$0@?0???Kfilesystem@std@@YA?AVpath@01@AEBV201@0@Z@4HA
xdata	ENDS
;	COMDAT xdata
xdata	SEGMENT
$cppxdata$??Kfilesystem@std@@YA?AVpath@01@AEBV201@0@Z DB 028H
	DD	imagerel $stateUnwindMap$??Kfilesystem@std@@YA?AVpath@01@AEBV201@0@Z
	DD	imagerel $ip2state$??Kfilesystem@std@@YA?AVpath@01@AEBV201@0@Z
xdata	ENDS
;	COMDAT xdata
xdata	SEGMENT
$unwind$??Kfilesystem@std@@YA?AVpath@01@AEBV201@0@Z DD 040f11H
	DD	09340fH
	DD	0700b520fH
	DD	imagerel __CxxFrameHandler4
	DD	imagerel $cppxdata$??Kfilesystem@std@@YA?AVpath@01@AEBV201@0@Z
xdata	ENDS
;	COMDAT xdata
xdata	SEGMENT
$ip2state$??0filesystem_error@filesystem@std@@QEAA@AEBV?$basic_string@DU?$char_traits@D@std@@V?$allocator@D@2@@2@AEBVpath@12@1Verror_code@2@@Z DB 08H
	DB	'f'
	DB	00H
	DB	'.'
	DB	02H
	DB	01aH
	DB	04H
	DB	0a2H
	DB	06H
xdata	ENDS
;	COMDAT xdata
xdata	SEGMENT
$stateUnwindMap$??0filesystem_error@filesystem@std@@QEAA@AEBV?$basic_string@DU?$char_traits@D@std@@V?$allocator@D@2@@2@AEBVpath@12@1Verror_code@2@@Z DB 06H
	DB	0cH
	DD	imagerel ??1system_error@std@@UEAA@XZ
	DB	080H
	DB	036H
	DD	imagerel ?dtor$1@?0???0filesystem_error@filesystem@std@@QEAA@AEBV?$basic_string@DU?$char_traits@D@std@@V?$allocator@D@2@@2@AEBVpath@12@1Verror_code@2@@Z@4HA
	DB	02eH
	DD	imagerel ?dtor$2@?0???0filesystem_error@filesystem@std@@QEAA@AEBV?$basic_string@DU?$char_traits@D@std@@V?$allocator@D@2@@2@AEBVpath@12@1Verror_code@2@@Z@4HA
xdata	ENDS
;	COMDAT xdata
xdata	SEGMENT
$cppxdata$??0filesystem_error@filesystem@std@@QEAA@AEBV?$basic_string@DU?$char_traits@D@std@@V?$allocator@D@2@@2@AEBVpath@12@1Verror_code@2@@Z DB 028H
	DD	imagerel $stateUnwindMap$??0filesystem_error@filesystem@std@@QEAA@AEBV?$basic_string@DU?$char_traits@D@std@@V?$allocator@D@2@@2@AEBVpath@12@1Verror_code@2@@Z
	DD	imagerel $ip2state$??0filesystem_error@filesystem@std@@QEAA@AEBV?$basic_string@DU?$char_traits@D@std@@V?$allocator@D@2@@2@AEBVpath@12@1Verror_code@2@@Z
xdata	ENDS
;	COMDAT xdata
xdata	SEGMENT
$unwind$??0filesystem_error@filesystem@std@@QEAA@AEBV?$basic_string@DU?$char_traits@D@std@@V?$allocator@D@2@@2@AEBVpath@12@1Verror_code@2@@Z DD 061411H
	DD	0a6414H
	DD	093414H
	DD	070105214H
	DD	imagerel __CxxFrameHandler4
	DD	imagerel $cppxdata$??0filesystem_error@filesystem@std@@QEAA@AEBV?$basic_string@DU?$char_traits@D@std@@V?$allocator@D@2@@2@AEBVpath@12@1Verror_code@2@@Z
xdata	ENDS
;	COMDAT xdata
xdata	SEGMENT
$ip2state$?_Throw_fs_error@filesystem@std@@YAXPEBDW4__std_win_error@@AEBVpath@12@2@Z DB 04H
	DB	'b'
	DB	00H
	DB	'T'
	DB	02H
xdata	ENDS
;	COMDAT xdata
xdata	SEGMENT
$stateUnwindMap$?_Throw_fs_error@filesystem@std@@YAXPEBDW4__std_win_error@@AEBVpath@12@2@Z DB 02H
	DB	0aH
	DD	imagerel ??1?$basic_string@DU?$char_traits@D@std@@V?$allocator@D@2@@std@@QEAA@XZ
	DB	0a0H
xdata	ENDS
;	COMDAT xdata
xdata	SEGMENT
$cppxdata$?_Throw_fs_error@filesystem@std@@YAXPEBDW4__std_win_error@@AEBVpath@12@2@Z DB 028H
	DD	imagerel $stateUnwindMap$?_Throw_fs_error@filesystem@std@@YAXPEBDW4__std_win_error@@AEBVpath@12@2@Z
	DD	imagerel $ip2state$?_Throw_fs_error@filesystem@std@@YAXPEBDW4__std_win_error@@AEBVpath@12@2@Z
xdata	ENDS
;	COMDAT xdata
xdata	SEGMENT
$unwind$?_Throw_fs_error@filesystem@std@@YAXPEBDW4__std_win_error@@AEBVpath@12@2@Z DD 050d11H
	DD	022340dH
	DD	020010dH
	DD	07006H
	DD	imagerel __CxxFrameHandler4
	DD	imagerel $cppxdata$?_Throw_fs_error@filesystem@std@@YAXPEBDW4__std_win_error@@AEBVpath@12@2@Z
xdata	ENDS
;	COMDAT xdata
xdata	SEGMENT
$ip2state$?_Throw_fs_error@filesystem@std@@YAXPEBDAEBVerror_code@2@AEBVpath@12@@Z DB 04H
	DB	'8'
	DB	00H
	DB	'D'
	DB	02H
xdata	ENDS
;	COMDAT xdata
xdata	SEGMENT
$stateUnwindMap$?_Throw_fs_error@filesystem@std@@YAXPEBDAEBVerror_code@2@AEBVpath@12@@Z DB 02H
	DB	0aH
	DD	imagerel ??1?$basic_string@DU?$char_traits@D@std@@V?$allocator@D@2@@std@@QEAA@XZ
	DB	060H
xdata	ENDS
;	COMDAT xdata
xdata	SEGMENT
$cppxdata$?_Throw_fs_error@filesystem@std@@YAXPEBDAEBVerror_code@2@AEBVpath@12@@Z DB 028H
	DD	imagerel $stateUnwindMap$?_Throw_fs_error@filesystem@std@@YAXPEBDAEBVerror_code@2@AEBVpath@12@@Z
	DD	imagerel $ip2state$?_Throw_fs_error@filesystem@std@@YAXPEBDAEBVerror_code@2@AEBVpath@12@@Z
xdata	ENDS
;	COMDAT xdata
xdata	SEGMENT
$unwind$?_Throw_fs_error@filesystem@std@@YAXPEBDAEBVerror_code@2@AEBVpath@12@@Z DD 030911H
	DD	01c0109H
	DD	03002H
	DD	imagerel __CxxFrameHandler4
	DD	imagerel $cppxdata$?_Throw_fs_error@filesystem@std@@YAXPEBDAEBVerror_code@2@AEBVpath@12@@Z
xdata	ENDS
;	COMDAT xdata
xdata	SEGMENT
$ip2state$?_Throw_fs_error@filesystem@std@@YAXPEBDAEBVerror_code@2@AEBVpath@12@2@Z DB 04H
	DB	'N'
	DB	00H
	DB	'T'
	DB	02H
xdata	ENDS
;	COMDAT xdata
xdata	SEGMENT
$stateUnwindMap$?_Throw_fs_error@filesystem@std@@YAXPEBDAEBVerror_code@2@AEBVpath@12@2@Z DB 02H
	DB	0aH
	DD	imagerel ??1?$basic_string@DU?$char_traits@D@std@@V?$allocator@D@2@@std@@QEAA@XZ
	DB	080H
xdata	ENDS
;	COMDAT xdata
xdata	SEGMENT
$cppxdata$?_Throw_fs_error@filesystem@std@@YAXPEBDAEBVerror_code@2@AEBVpath@12@2@Z DB 028H
	DD	imagerel $stateUnwindMap$?_Throw_fs_error@filesystem@std@@YAXPEBDAEBVerror_code@2@AEBVpath@12@2@Z
	DD	imagerel $ip2state$?_Throw_fs_error@filesystem@std@@YAXPEBDAEBVerror_code@2@AEBVpath@12@2@Z
xdata	ENDS
;	COMDAT xdata
xdata	SEGMENT
$unwind$?_Throw_fs_error@filesystem@std@@YAXPEBDAEBVerror_code@2@AEBVpath@12@2@Z DD 050d11H
	DD	020340dH
	DD	01e010dH
	DD	07006H
	DD	imagerel __CxxFrameHandler4
	DD	imagerel $cppxdata$?_Throw_fs_error@filesystem@std@@YAXPEBDAEBVerror_code@2@AEBVpath@12@2@Z
xdata	ENDS
;	COMDAT xdata
xdata	SEGMENT
$unwind$??0directory_entry@filesystem@std@@QEAA@AEBVpath@12@AEAVerror_code@2@@Z DD 0a1801H
	DD	0c6418H
	DD	0b5418H
	DD	0a3418H
	DD	0f0145218H
	DD	07010e012H
xdata	ENDS
;	COMDAT xdata
xdata	SEGMENT
$unwind$?refresh@directory_entry@filesystem@std@@QEAAXAEAVerror_code@3@@Z DD 081501H
	DD	0a7415H
	DD	095415H
	DD	083415H
	DD	0e0115215H
xdata	ENDS
;	COMDAT xdata
xdata	SEGMENT
$unwind$?is_directory@directory_entry@filesystem@std@@QEBA_NXZ DD 020601H
	DD	030025206H
xdata	ENDS
;	COMDAT xdata
xdata	SEGMENT
$unwind$?_Refresh@directory_entry@filesystem@std@@CA?AW4__std_win_error@@AEAU__std_fs_stats@@AEBVpath@23@@Z DD 040a01H
	DD	06340aH
	DD	07006320aH
xdata	ENDS
;	COMDAT xdata
xdata	SEGMENT
$ip2state$??0directory_iterator@filesystem@std@@QEAA@AEBVpath@12@AEAVerror_code@2@@Z DB 02H
	DB	'<'
	DB	02H
xdata	ENDS
;	COMDAT xdata
xdata	SEGMENT
$stateUnwindMap$??0directory_iterator@filesystem@std@@QEAA@AEBVpath@12@AEAVerror_code@2@@Z DB 02H
	DB	0cH
	DD	imagerel ??1?$shared_ptr@U_Dir_enum_impl@filesystem@std@@@std@@QEAA@XZ
	DB	080H
xdata	ENDS
;	COMDAT xdata
xdata	SEGMENT
$cppxdata$??0directory_iterator@filesystem@std@@QEAA@AEBVpath@12@AEAVerror_code@2@@Z DB 028H
	DD	imagerel $stateUnwindMap$??0directory_iterator@filesystem@std@@QEAA@AEBVpath@12@AEAVerror_code@2@@Z
	DD	imagerel $ip2state$??0directory_iterator@filesystem@std@@QEAA@AEBVpath@12@AEAVerror_code@2@@Z
xdata	ENDS
;	COMDAT xdata
xdata	SEGMENT
$unwind$??0directory_iterator@filesystem@std@@QEAA@AEBVpath@12@AEAVerror_code@2@@Z DD 040f11H
	DD	09340fH
	DD	0700b520fH
	DD	imagerel __CxxFrameHandler4
	DD	imagerel $cppxdata$??0directory_iterator@filesystem@std@@QEAA@AEBVpath@12@AEAVerror_code@2@@Z
xdata	ENDS
;	COMDAT xdata
xdata	SEGMENT
$unwind$?increment@directory_iterator@filesystem@std@@QEAAAEAV123@AEAVerror_code@3@@Z DD 040a01H
	DD	08340aH
	DD	07006520aH
xdata	ENDS
;	COMDAT xdata
xdata	SEGMENT
$unwind$?_Get_cleaned_symlink_target@filesystem@std@@YA?AV?$unique_ptr@$$BY0A@_WU?$default_delete@$$BY0A@_W@std@@@2@AEBVpath@12@@Z DD 060f01H
	DD	0b640fH
	DD	0a340fH
	DD	0700b520fH
xdata	ENDS
;	COMDAT xdata
xdata	SEGMENT
$unwind$?create_hard_link@filesystem@std@@YAXAEBVpath@12@0AEAVerror_code@2@@Z DD 020601H
	DD	030025206H
xdata	ENDS
;	COMDAT xdata
xdata	SEGMENT
$unwind$?create_symlink@filesystem@std@@YAXAEBVpath@12@0AEAVerror_code@2@@Z DD 060b01H
	DD	0e007720bH
	DD	060047005H
	DD	030025003H
xdata	ENDS
;	COMDAT xdata
xdata	SEGMENT
$unwind$?_Read_reparse_data@filesystem@std@@YA?AW4__std_win_error@@AEBU_Fs_file@2@AEAV?$unique_ptr@$$BY0A@DU?$default_delete@$$BY0A@D@std@@@2@@Z DD 040a01H
	DD	08340aH
	DD	07006320aH
xdata	ENDS
;	COMDAT xdata
xdata	SEGMENT
$chain$3$?_Copy_symlink@filesystem@std@@YA?AW4__std_win_error@@AEBVpath@12@0@Z DD 021H
	DD	imagerel $LN131
	DD	imagerel $LN131+90
	DD	imagerel $unwind$?_Copy_symlink@filesystem@std@@YA?AW4__std_win_error@@AEBVpath@12@0@Z
xdata	ENDS
;	COMDAT xdata
xdata	SEGMENT
$chain$2$?_Copy_symlink@filesystem@std@@YA?AW4__std_win_error@@AEBVpath@12@0@Z DD 021H
	DD	imagerel $LN131+90
	DD	imagerel $LN131+250
	DD	imagerel $chain$0$?_Copy_symlink@filesystem@std@@YA?AW4__std_win_error@@AEBVpath@12@0@Z
xdata	ENDS
;	COMDAT xdata
xdata	SEGMENT
$chain$1$?_Copy_symlink@filesystem@std@@YA?AW4__std_win_error@@AEBVpath@12@0@Z DD 020821H
	DD	0105408H
	DD	imagerel $LN131+90
	DD	imagerel $LN131+250
	DD	imagerel $chain$0$?_Copy_symlink@filesystem@std@@YA?AW4__std_win_error@@AEBVpath@12@0@Z
xdata	ENDS
;	COMDAT xdata
xdata	SEGMENT
$chain$0$?_Copy_symlink@filesystem@std@@YA?AW4__std_win_error@@AEBVpath@12@0@Z DD 020521H
	DD	0a6405H
	DD	imagerel $LN131
	DD	imagerel $LN131+90
	DD	imagerel $unwind$?_Copy_symlink@filesystem@std@@YA?AW4__std_win_error@@AEBVpath@12@0@Z
xdata	ENDS
;	COMDAT xdata
xdata	SEGMENT
$unwind$?_Copy_symlink@filesystem@std@@YA?AW4__std_win_error@@AEBVpath@12@0@Z DD 031619H
	DD	07003a207H
	DD	03002H
	DD	imagerel __GSHandlerCheck
	DD	040H
xdata	ENDS
;	COMDAT xdata
xdata	SEGMENT
$chain$3$?_Copy_junction@filesystem@std@@YA?AW4__std_win_error@@AEBVpath@12@0@Z DD 021H
	DD	imagerel $LN154
	DD	imagerel $LN154+90
	DD	imagerel $unwind$?_Copy_junction@filesystem@std@@YA?AW4__std_win_error@@AEBVpath@12@0@Z
xdata	ENDS
;	COMDAT xdata
xdata	SEGMENT
$chain$2$?_Copy_junction@filesystem@std@@YA?AW4__std_win_error@@AEBVpath@12@0@Z DD 021H
	DD	imagerel $LN154+90
	DD	imagerel $LN154+318
	DD	imagerel $chain$0$?_Copy_junction@filesystem@std@@YA?AW4__std_win_error@@AEBVpath@12@0@Z
xdata	ENDS
;	COMDAT xdata
xdata	SEGMENT
$chain$1$?_Copy_junction@filesystem@std@@YA?AW4__std_win_error@@AEBVpath@12@0@Z DD 020521H
	DD	0e5405H
	DD	imagerel $LN154+90
	DD	imagerel $LN154+318
	DD	imagerel $chain$0$?_Copy_junction@filesystem@std@@YA?AW4__std_win_error@@AEBVpath@12@0@Z
xdata	ENDS
;	COMDAT xdata
xdata	SEGMENT
$chain$0$?_Copy_junction@filesystem@std@@YA?AW4__std_win_error@@AEBVpath@12@0@Z DD 020521H
	DD	086405H
	DD	imagerel $LN154
	DD	imagerel $LN154+90
	DD	imagerel $unwind$?_Copy_junction@filesystem@std@@YA?AW4__std_win_error@@AEBVpath@12@0@Z
xdata	ENDS
;	COMDAT xdata
xdata	SEGMENT
$unwind$?_Copy_junction@filesystem@std@@YA?AW4__std_win_error@@AEBVpath@12@0@Z DD 031619H
	DD	070038207H
	DD	03002H
	DD	imagerel __GSHandlerCheck
	DD	030H
xdata	ENDS
;	COMDAT xdata
xdata	SEGMENT
$unwind$?copy_symlink@filesystem@std@@YAXAEBVpath@12@0AEAVerror_code@2@@Z DD 020601H
	DD	030025206H
xdata	ENDS
;	COMDAT xdata
xdata	SEGMENT
$unwind$?copy_file@filesystem@std@@YA_NAEBVpath@12@0W4copy_options@12@AEAVerror_code@2@@Z DD 020601H
	DD	030025206H
xdata	ENDS
;	COMDAT xdata
xdata	SEGMENT
$unwind$?copy_file@filesystem@std@@YA_NAEBVpath@12@0W4copy_options@12@@Z DD 040a01H
	DD	06340aH
	DD	07006320aH
xdata	ENDS
;	COMDAT xdata
xdata	SEGMENT
$unwind$?copy_file@filesystem@std@@YA_NAEBVpath@12@0@Z DD 040a01H
	DD	06340aH
	DD	07006320aH
xdata	ENDS
;	COMDAT xdata
xdata	SEGMENT
$unwind$?_Equivalent@filesystem@std@@YA?AU?$pair@W4__std_win_error@@_N@2@QEB_W0@Z DD 041919H
	DD	011340aH
	DD	07006b20aH
	DD	imagerel __GSHandlerCheck
	DD	050H
xdata	ENDS
;	COMDAT xdata
xdata	SEGMENT
$unwind$?equivalent@filesystem@std@@YA_NAEBVpath@12@0AEAVerror_code@2@@Z DD 041919H
	DD	011340aH
	DD	07006b20aH
	DD	imagerel __GSHandlerCheck
	DD	050H
xdata	ENDS
;	COMDAT voltbl
voltbl	SEGMENT
_volmd	DB	0ccH
	DB	0e3H
voltbl	ENDS
;	COMDAT xdata
xdata	SEGMENT
$ip2state$?is_empty@filesystem@std@@YA_NAEBVpath@12@AEAVerror_code@2@@Z DB 04H
	DB	'A', 02H
	DB	02H
	DB	0e8H
	DB	00H
xdata	ENDS
;	COMDAT xdata
xdata	SEGMENT
$stateUnwindMap$?is_empty@filesystem@std@@YA_NAEBVpath@12@AEAVerror_code@2@@Z DB 02H
	DB	0aH
	DD	imagerel ??1?$shared_ptr@U_Dir_enum_impl@filesystem@std@@@std@@QEAA@XZ
	DB	090H
xdata	ENDS
;	COMDAT xdata
xdata	SEGMENT
$cppxdata$?is_empty@filesystem@std@@YA_NAEBVpath@12@AEAVerror_code@2@@Z DB 028H
	DD	imagerel $stateUnwindMap$?is_empty@filesystem@std@@YA_NAEBVpath@12@AEAVerror_code@2@@Z
	DD	imagerel $ip2state$?is_empty@filesystem@std@@YA_NAEBVpath@12@AEAVerror_code@2@@Z
xdata	ENDS
;	COMDAT xdata
xdata	SEGMENT
$unwind$?is_empty@filesystem@std@@YA_NAEBVpath@12@AEAVerror_code@2@@Z DD 062119H
	DD	0156412H
	DD	0143412H
	DD	0700bf212H
	DD	imagerel __GSHandlerCheck_EH4
	DD	imagerel $cppxdata$?is_empty@filesystem@std@@YA_NAEBVpath@12@AEAVerror_code@2@@Z
	DD	07aH
xdata	ENDS
;	COMDAT voltbl
voltbl	SEGMENT
_volmd	DB	0dbH
	DB	0f2H
voltbl	ENDS
;	COMDAT xdata
xdata	SEGMENT
$ip2state$?is_empty@filesystem@std@@YA_NAEBVpath@12@@Z DB 04H
	DB	'u', 02H
	DB	02H
	DB	01H, 02H
	DB	00H
xdata	ENDS
;	COMDAT xdata
xdata	SEGMENT
$stateUnwindMap$?is_empty@filesystem@std@@YA_NAEBVpath@12@@Z DB 02H
	DB	0aH
	DD	imagerel ??1?$shared_ptr@U_Dir_enum_impl@filesystem@std@@@std@@QEAA@XZ
	DB	0a0H
xdata	ENDS
;	COMDAT xdata
xdata	SEGMENT
$cppxdata$?is_empty@filesystem@std@@YA_NAEBVpath@12@@Z DB 028H
	DD	imagerel $stateUnwindMap$?is_empty@filesystem@std@@YA_NAEBVpath@12@@Z
	DD	imagerel $ip2state$?is_empty@filesystem@std@@YA_NAEBVpath@12@@Z
xdata	ENDS
;	COMDAT xdata
xdata	SEGMENT
$unwind$?is_empty@filesystem@std@@YA_NAEBVpath@12@@Z DD 092919H
	DD	0196417H
	DD	0185417H
	DD	0173417H
	DD	0140117H
	DD	07010H
	DD	imagerel __GSHandlerCheck_EH4
	DD	imagerel $cppxdata$?is_empty@filesystem@std@@YA_NAEBVpath@12@@Z
	DD	092H
xdata	ENDS
;	COMDAT xdata
xdata	SEGMENT
$unwind$?remove@filesystem@std@@YA_NAEBVpath@12@@Z DD 020601H
	DD	030023206H
xdata	ENDS
;	COMDAT xdata
xdata	SEGMENT
$unwind$?_Get_any_status@filesystem@std@@YA?AU_File_status_and_error@12@AEBVpath@12@W4__std_fs_stats_flags@@@Z DD 041919H
	DD	0c340aH
	DD	07006920aH
	DD	imagerel __GSHandlerCheck
	DD	040H
xdata	ENDS
;	COMDAT xdata
xdata	SEGMENT
$unwind$?create_directory@filesystem@std@@YA_NAEBVpath@12@0AEAVerror_code@2@@Z DD 020601H
	DD	030025206H
xdata	ENDS
;	COMDAT xdata
xdata	SEGMENT
$ip2state$?create_directories@filesystem@std@@YA_NAEBVpath@12@AEAVerror_code@2@@Z DB 06H
	DB	0c5H, 02H
	DB	02H
	DB	'-', 08H
	DB	00H
	DB	0daH
	DB	02H
xdata	ENDS
;	COMDAT xdata
xdata	SEGMENT
$stateUnwindMap$?create_directories@filesystem@std@@YA_NAEBVpath@12@AEAVerror_code@2@@Z DB 02H
	DB	0aH
	DD	imagerel ??1?$basic_string@_WU?$char_traits@_W@std@@V?$allocator@_W@2@@std@@QEAA@XZ
	DB	0a0H
xdata	ENDS
;	COMDAT xdata
xdata	SEGMENT
$cppxdata$?create_directories@filesystem@std@@YA_NAEBVpath@12@AEAVerror_code@2@@Z DB 028H
	DD	imagerel $stateUnwindMap$?create_directories@filesystem@std@@YA_NAEBVpath@12@AEAVerror_code@2@@Z
	DD	imagerel $ip2state$?create_directories@filesystem@std@@YA_NAEBVpath@12@AEAVerror_code@2@@Z
xdata	ENDS
;	COMDAT xdata
xdata	SEGMENT
$unwind$?create_directories@filesystem@std@@YA_NAEBVpath@12@AEAVerror_code@2@@Z DD 0a2819H
	DD	01a341aH
	DD	0f010f21aH
	DD	0d00ce00eH
	DD	07008c00aH
	DD	050066007H
	DD	imagerel __GSHandlerCheck_EH4
	DD	imagerel $cppxdata$?create_directories@filesystem@std@@YA_NAEBVpath@12@AEAVerror_code@2@@Z
	DD	072H
xdata	ENDS
;	COMDAT xdata
xdata	SEGMENT
$unwind$?create_directories@filesystem@std@@YA_NAEBVpath@12@@Z DD 021519H
	DD	030027206H
	DD	imagerel __GSHandlerCheck
	DD	030H
xdata	ENDS
;	COMDAT voltbl
voltbl	SEGMENT
_volmd	DW	079aH
	DW	07b0H
voltbl	ENDS
;	COMDAT xdata
xdata	SEGMENT
$unwind$?dtor$15@?0??_Copy_impl@filesystem@std@@YAXAEBVdirectory_entry@12@AEBVpath@12@W4copy_options@12@AEAVerror_code@2@@Z@4HA DD 020601H
	DD	050023206H
xdata	ENDS
;	COMDAT xdata
xdata	SEGMENT
$unwind$?dtor$20@?0??_Copy_impl@filesystem@std@@YAXAEBVdirectory_entry@12@AEBVpath@12@W4copy_options@12@AEAVerror_code@2@@Z@4HA DD 020601H
	DD	050023206H
xdata	ENDS
;	COMDAT xdata
xdata	SEGMENT
$ip2state$?_Copy_impl@filesystem@std@@YAXAEBVdirectory_entry@12@AEBVpath@12@W4copy_options@12@AEAVerror_code@2@@Z DB 014H
	DB	0b1H, 012H
	DB	00H
	DB	' '
	DB	04H
	DB	'\'
	DB	02H
	DB	011H, 02H
	DB	06H
	DB	'A', 05H
	DB	08H
	DB	08eH
	DB	0cH
	DB	'r'
	DB	0aH
	DB	'D'
	DB	08H
	DB	01dH, 02H
	DB	00H
	DB	'2'
	DB	08H
xdata	ENDS
;	COMDAT xdata
xdata	SEGMENT
$stateUnwindMap$?_Copy_impl@filesystem@std@@YAXAEBVdirectory_entry@12@AEBVpath@12@W4copy_options@12@AEAVerror_code@2@@Z DB 0cH
	DB	0aH
	DD	imagerel ??1path@filesystem@std@@QEAA@XZ
	DB	01H
	DB	05H
	DB	03eH
	DD	imagerel ?dtor$20@?0??_Copy_impl@filesystem@std@@YAXAEBVdirectory_entry@12@AEBVpath@12@W4copy_options@12@AEAVerror_code@2@@Z@4HA
	DB	06aH
	DD	imagerel ??1?$shared_ptr@U_Dir_enum_impl@filesystem@std@@@std@@QEAA@XZ
	DB	01H
	DB	04H
	DB	0a2H
	DD	imagerel ??1directory_iterator@filesystem@std@@QEAA@XZ
	DB	01H
	DB	04H
	DB	03aH
	DD	imagerel ??1path@filesystem@std@@QEAA@XZ
	DB	0a0H
	DB	036H
	DD	imagerel ?dtor$15@?0??_Copy_impl@filesystem@std@@YAXAEBVdirectory_entry@12@AEBVpath@12@W4copy_options@12@AEAVerror_code@2@@Z@4HA
xdata	ENDS
;	COMDAT xdata
xdata	SEGMENT
$cppxdata$?_Copy_impl@filesystem@std@@YAXAEBVdirectory_entry@12@AEBVpath@12@W4copy_options@12@AEAVerror_code@2@@Z DB 028H
	DD	imagerel $stateUnwindMap$?_Copy_impl@filesystem@std@@YAXAEBVdirectory_entry@12@AEBVpath@12@W4copy_options@12@AEAVerror_code@2@@Z
	DD	imagerel $ip2state$?_Copy_impl@filesystem@std@@YAXAEBVdirectory_entry@12@AEBVpath@12@W4copy_options@12@AEAVerror_code@2@@Z
xdata	ENDS
;	COMDAT xdata
xdata	SEGMENT
$unwind$?_Copy_impl@filesystem@std@@YAXAEBVdirectory_entry@12@AEBVpath@12@W4copy_options@12@AEAVerror_code@2@@Z DD 0a2719H
	DD	02f0119H
	DD	0e00bf00dH
	DD	0c007d009H
	DD	060047005H
	DD	050023003H
	DD	imagerel __GSHandlerCheck_EH4
	DD	imagerel $cppxdata$?_Copy_impl@filesystem@std@@YAXAEBVdirectory_entry@12@AEBVpath@12@W4copy_options@12@AEAVerror_code@2@@Z
	DD	0162H
xdata	ENDS
;	COMDAT xdata
xdata	SEGMENT
$ip2state$?copy@filesystem@std@@YAXAEBVpath@12@0W4copy_options@12@AEAVerror_code@2@@Z DB 06H
	DB	'z'
	DB	00H
	DB	0ddH, 02H
	DB	02H
	DB	'0'
	DB	00H
xdata	ENDS
;	COMDAT xdata
xdata	SEGMENT
$stateUnwindMap$?copy@filesystem@std@@YAXAEBVpath@12@0W4copy_options@12@AEAVerror_code@2@@Z DB 02H
	DB	0aH
	DD	imagerel ??1directory_entry@filesystem@std@@QEAA@XZ
	DB	060H
xdata	ENDS
;	COMDAT xdata
xdata	SEGMENT
$cppxdata$?copy@filesystem@std@@YAXAEBVpath@12@0W4copy_options@12@AEAVerror_code@2@@Z DB 028H
	DD	imagerel $stateUnwindMap$?copy@filesystem@std@@YAXAEBVpath@12@0W4copy_options@12@AEAVerror_code@2@@Z
	DD	imagerel $ip2state$?copy@filesystem@std@@YAXAEBVpath@12@0W4copy_options@12@AEAVerror_code@2@@Z
xdata	ENDS
;	COMDAT xdata
xdata	SEGMENT
$unwind$?copy@filesystem@std@@YAXAEBVpath@12@0W4copy_options@12@AEAVerror_code@2@@Z DD 081f19H
	DD	0110110H
	DD	0e007f009H
	DD	060047005H
	DD	030025003H
	DD	imagerel __GSHandlerCheck_EH4
	DD	imagerel $cppxdata$?copy@filesystem@std@@YAXAEBVpath@12@0W4copy_options@12@AEAVerror_code@2@@Z
	DD	072H
xdata	ENDS
;	COMDAT xdata
xdata	SEGMENT
$ip2state$?copy@filesystem@std@@YAXAEBVpath@12@0W4copy_options@12@@Z DB 06H
	DB	08aH
	DB	00H
	DB	0b5H, 02H
	DB	02H
	DB	'8'
	DB	00H
xdata	ENDS
;	COMDAT xdata
xdata	SEGMENT
$stateUnwindMap$?copy@filesystem@std@@YAXAEBVpath@12@0W4copy_options@12@@Z DB 02H
	DB	0aH
	DD	imagerel ??1directory_entry@filesystem@std@@QEAA@XZ
	DB	060H
xdata	ENDS
;	COMDAT xdata
xdata	SEGMENT
$cppxdata$?copy@filesystem@std@@YAXAEBVpath@12@0W4copy_options@12@@Z DB 028H
	DD	imagerel $stateUnwindMap$?copy@filesystem@std@@YAXAEBVpath@12@0W4copy_options@12@@Z
	DD	imagerel $ip2state$?copy@filesystem@std@@YAXAEBVpath@12@0W4copy_options@12@@Z
xdata	ENDS
;	COMDAT xdata
xdata	SEGMENT
$unwind$?copy@filesystem@std@@YAXAEBVpath@12@0W4copy_options@12@@Z DD 082319H
	DD	0f00bf215H
	DD	0c007e009H
	DD	060047005H
	DD	050023003H
	DD	imagerel __GSHandlerCheck_EH4
	DD	imagerel $cppxdata$?copy@filesystem@std@@YAXAEBVpath@12@0W4copy_options@12@@Z
	DD	072H
xdata	ENDS
;	COMDAT xdata
xdata	SEGMENT
$unwind$??_D?$basic_istringstream@DU?$char_traits@D@std@@V?$allocator@D@2@@std@@QEAAXXZ DD 040a01H
	DD	06340aH
	DD	07006320aH
xdata	ENDS
;	COMDAT xdata
xdata	SEGMENT
$unwind$??R<lambda_1>@?1??IsNumber@Util@@YA_NV?$basic_string@DU?$char_traits@D@std@@V?$allocator@D@2@@std@@@Z@QEBA@E@Z DD 010401H
	DD	04204H
xdata	ENDS
;	COMDAT xdata
xdata	SEGMENT
$unwind$??1?$basic_istringstream@DU?$char_traits@D@std@@V?$allocator@D@2@@std@@UEAA@XZ DD 040a01H
	DD	06340aH
	DD	07006320aH
xdata	ENDS
;	COMDAT xdata
xdata	SEGMENT
$unwind$?dtor$0@?0???0?$basic_istringstream@DU?$char_traits@D@std@@V?$allocator@D@2@@std@@QEAA@AEBV?$basic_string@DU?$char_traits@D@std@@V?$allocator@D@2@@1@H@Z@4HA DD 020601H
	DD	050023206H
xdata	ENDS
;	COMDAT xdata
xdata	SEGMENT
$ip2state$??0?$basic_istringstream@DU?$char_traits@D@std@@V?$allocator@D@2@@std@@QEAA@AEBV?$basic_string@DU?$char_traits@D@std@@V?$allocator@D@2@@1@H@Z DB 0aH
	DB	'd'
	DB	00H
	DB	'>'
	DB	02H
	DB	'f'
	DB	04H
	DB	'Z'
	DB	06H
	DB	0a2H
	DB	00H
xdata	ENDS
;	COMDAT xdata
xdata	SEGMENT
$stateUnwindMap$??0?$basic_istringstream@DU?$char_traits@D@std@@V?$allocator@D@2@@std@@QEAA@AEBV?$basic_string@DU?$char_traits@D@std@@V?$allocator@D@2@@1@H@Z DB 06H
	DB	0eH
	DD	imagerel ?dtor$0@?0???0?$basic_istringstream@DU?$char_traits@D@std@@V?$allocator@D@2@@std@@QEAA@AEBV?$basic_string@DU?$char_traits@D@std@@V?$allocator@D@2@@1@H@Z@4HA
	DB	02eH
	DD	imagerel ?dtor$1@?0???0?$basic_istringstream@DU?$char_traits@D@std@@V?$allocator@D@2@@std@@QEAA@AEBV?$basic_string@DU?$char_traits@D@std@@V?$allocator@D@2@@1@H@Z@4HA
	DB	02cH
	DD	imagerel __imp_??1?$basic_streambuf@DU?$char_traits@D@std@@@std@@UEAA@XZ
	DB	0b0H
xdata	ENDS
;	COMDAT xdata
xdata	SEGMENT
$cppxdata$??0?$basic_istringstream@DU?$char_traits@D@std@@V?$allocator@D@2@@std@@QEAA@AEBV?$basic_string@DU?$char_traits@D@std@@V?$allocator@D@2@@1@H@Z DB 028H
	DD	imagerel $stateUnwindMap$??0?$basic_istringstream@DU?$char_traits@D@std@@V?$allocator@D@2@@std@@QEAA@AEBV?$basic_string@DU?$char_traits@D@std@@V?$allocator@D@2@@1@H@Z
	DD	imagerel $ip2state$??0?$basic_istringstream@DU?$char_traits@D@std@@V?$allocator@D@2@@std@@QEAA@AEBV?$basic_string@DU?$char_traits@D@std@@V?$allocator@D@2@@1@H@Z
xdata	ENDS
;	COMDAT xdata
xdata	SEGMENT
$unwind$??0?$basic_istringstream@DU?$char_traits@D@std@@V?$allocator@D@2@@std@@QEAA@AEBV?$basic_string@DU?$char_traits@D@std@@V?$allocator@D@2@@1@H@Z DD 061511H
	DD	0f0113215H
	DD	0700de00fH
	DD	0300b600cH
	DD	imagerel __CxxFrameHandler4
	DD	imagerel $cppxdata$??0?$basic_istringstream@DU?$char_traits@D@std@@V?$allocator@D@2@@std@@QEAA@AEBV?$basic_string@DU?$char_traits@D@std@@V?$allocator@D@2@@1@H@Z
xdata	ENDS
;	COMDAT xdata
xdata	SEGMENT
$chain$4$?reserve@?$basic_string@_WU?$char_traits@_W@std@@V?$allocator@_W@2@@std@@QEAAX_K@Z DD 040021H
	DD	04e400H
	DD	057400H
	DD	imagerel $LN80
	DD	imagerel $LN80+28
	DD	imagerel $unwind$?reserve@?$basic_string@_WU?$char_traits@_W@std@@V?$allocator@_W@2@@std@@QEAAX_K@Z
xdata	ENDS
;	COMDAT xdata
xdata	SEGMENT
$chain$3$?reserve@?$basic_string@_WU?$char_traits@_W@std@@V?$allocator@_W@2@@std@@QEAAX_K@Z DD 021H
	DD	imagerel $LN80
	DD	imagerel $LN80+28
	DD	imagerel $unwind$?reserve@?$basic_string@_WU?$char_traits@_W@std@@V?$allocator@_W@2@@std@@QEAAX_K@Z
xdata	ENDS
;	COMDAT xdata
xdata	SEGMENT
$chain$2$?reserve@?$basic_string@_WU?$char_traits@_W@std@@V?$allocator@_W@2@@std@@QEAAX_K@Z DD 063621H
	DD	0c5436H
	DD	04e414H
	DD	057405H
	DD	imagerel $LN80
	DD	imagerel $LN80+28
	DD	imagerel $unwind$?reserve@?$basic_string@_WU?$char_traits@_W@std@@V?$allocator@_W@2@@std@@QEAAX_K@Z
xdata	ENDS
;	COMDAT xdata
xdata	SEGMENT
$unwind$?reserve@?$basic_string@_WU?$char_traits@_W@std@@V?$allocator@_W@2@@std@@QEAAX_K@Z DD 040901H
	DD	0f0055209H
	DD	030026003H
xdata	ENDS
;	COMDAT xdata
xdata	SEGMENT
$unwind$?replace@?$basic_string@DU?$char_traits@D@std@@V?$allocator@D@2@@std@@QEAAAEAV12@_K0AEBV12@@Z DD 010401H
	DD	06204H
xdata	ENDS
;	COMDAT xdata
xdata	SEGMENT
$unwind$??_G?$basic_istringstream@DU?$char_traits@D@std@@V?$allocator@D@2@@std@@UEAAPEAXI@Z DD 040a01H
	DD	06340aH
	DD	07006320aH
xdata	ENDS
;	COMDAT xdata
xdata	SEGMENT
$ip2state$??0?$basic_stringbuf@DU?$char_traits@D@std@@V?$allocator@D@2@@std@@QEAA@AEBV?$basic_string@DU?$char_traits@D@std@@V?$allocator@D@2@@1@H@Z DB 06H
	DB	'@'
	DB	00H
	DB	'Z'
	DB	02H
	DB	0aaH
	DB	00H
xdata	ENDS
;	COMDAT xdata
xdata	SEGMENT
$stateUnwindMap$??0?$basic_stringbuf@DU?$char_traits@D@std@@V?$allocator@D@2@@std@@QEAA@AEBV?$basic_string@DU?$char_traits@D@std@@V?$allocator@D@2@@1@H@Z DB 02H
	DB	0cH
	DD	imagerel __imp_??1?$basic_streambuf@DU?$char_traits@D@std@@@std@@UEAA@XZ
	DB	060H
xdata	ENDS
;	COMDAT xdata
xdata	SEGMENT
$cppxdata$??0?$basic_stringbuf@DU?$char_traits@D@std@@V?$allocator@D@2@@std@@QEAA@AEBV?$basic_string@DU?$char_traits@D@std@@V?$allocator@D@2@@1@H@Z DB 028H
	DD	imagerel $stateUnwindMap$??0?$basic_stringbuf@DU?$char_traits@D@std@@V?$allocator@D@2@@std@@QEAA@AEBV?$basic_string@DU?$char_traits@D@std@@V?$allocator@D@2@@1@H@Z
	DD	imagerel $ip2state$??0?$basic_stringbuf@DU?$char_traits@D@std@@V?$allocator@D@2@@std@@QEAA@AEBV?$basic_string@DU?$char_traits@D@std@@V?$allocator@D@2@@1@H@Z
xdata	ENDS
;	COMDAT xdata
xdata	SEGMENT
$unwind$??0?$basic_stringbuf@DU?$char_traits@D@std@@V?$allocator@D@2@@std@@QEAA@AEBV?$basic_string@DU?$char_traits@D@std@@V?$allocator@D@2@@1@H@Z DD 081a11H
	DD	09741aH
	DD	08641aH
	DD	07341aH
	DD	0e016321aH
	DD	imagerel __CxxFrameHandler4
	DD	imagerel $cppxdata$??0?$basic_stringbuf@DU?$char_traits@D@std@@V?$allocator@D@2@@std@@QEAA@AEBV?$basic_string@DU?$char_traits@D@std@@V?$allocator@D@2@@1@H@Z
xdata	ENDS
;	COMDAT xdata
xdata	SEGMENT
$chain$4$?replace@?$basic_string@DU?$char_traits@D@std@@V?$allocator@D@2@@std@@QEAAAEAV12@_K_KQEBD0@Z DD 021H
	DD	imagerel $LN214
	DD	imagerel $LN214+103
	DD	imagerel $unwind$?replace@?$basic_string@DU?$char_traits@D@std@@V?$allocator@D@2@@std@@QEAAAEAV12@_K_KQEBD0@Z
xdata	ENDS
;	COMDAT xdata
xdata	SEGMENT
$chain$3$?replace@?$basic_string@DU?$char_traits@D@std@@V?$allocator@D@2@@std@@QEAAAEAV12@_K_KQEBD0@Z DD 021H
	DD	imagerel $LN214+103
	DD	imagerel $LN214+198
	DD	imagerel $chain$1$?replace@?$basic_string@DU?$char_traits@D@std@@V?$allocator@D@2@@std@@QEAAAEAV12@_K_KQEBD0@Z
xdata	ENDS
;	COMDAT xdata
xdata	SEGMENT
$chain$2$?replace@?$basic_string@DU?$char_traits@D@std@@V?$allocator@D@2@@std@@QEAAAEAV12@_K_KQEBD0@Z DD 020521H
	DD	0bd405H
	DD	imagerel $LN214+103
	DD	imagerel $LN214+198
	DD	imagerel $chain$1$?replace@?$basic_string@DU?$char_traits@D@std@@V?$allocator@D@2@@std@@QEAAAEAV12@_K_KQEBD0@Z
xdata	ENDS
;	COMDAT xdata
xdata	SEGMENT
$chain$1$?replace@?$basic_string@DU?$char_traits@D@std@@V?$allocator@D@2@@std@@QEAAAEAV12@_K_KQEBD0@Z DD 040a21H
	DD	0cc40aH
	DD	0d3405H
	DD	imagerel $LN214
	DD	imagerel $LN214+103
	DD	imagerel $unwind$?replace@?$basic_string@DU?$char_traits@D@std@@V?$allocator@D@2@@std@@QEAAAEAV12@_K_KQEBD0@Z
xdata	ENDS
;	COMDAT xdata
xdata	SEGMENT
$unwind$?replace@?$basic_string@DU?$char_traits@D@std@@V?$allocator@D@2@@std@@QEAAAEAV12@_K_KQEBD0@Z DD 060c01H
	DD	0f008d20cH
	DD	07004e006H
	DD	050026003H
xdata	ENDS
;	COMDAT xdata
xdata	SEGMENT
$unwind$??R<lambda_1>@?1??replace@?$basic_string@DU?$char_traits@D@std@@V?$allocator@D@2@@std@@QEAAAEAV23@_K_KQEBD0@Z@QEBA@QEAD200020@Z DD 0a1a01H
	DD	09741aH
	DD	08641aH
	DD	07541aH
	DD	06341aH
	DD	0e016321aH
xdata	ENDS
;	COMDAT xdata
xdata	SEGMENT
$chain$1$?_Init@?$basic_stringbuf@DU?$char_traits@D@std@@V?$allocator@D@2@@std@@IEAAXPEBD_KH@Z DD 021H
	DD	imagerel $LN42
	DD	imagerel $LN42+77
	DD	imagerel $unwind$?_Init@?$basic_stringbuf@DU?$char_traits@D@std@@V?$allocator@D@2@@std@@IEAAXPEBD_KH@Z
xdata	ENDS
;	COMDAT xdata
xdata	SEGMENT
$chain$0$?_Init@?$basic_stringbuf@DU?$char_traits@D@std@@V?$allocator@D@2@@std@@IEAAXPEBD_KH@Z DD 020521H
	DD	066405H
	DD	imagerel $LN42
	DD	imagerel $LN42+77
	DD	imagerel $unwind$?_Init@?$basic_stringbuf@DU?$char_traits@D@std@@V?$allocator@D@2@@std@@IEAAXPEBD_KH@Z
xdata	ENDS
;	COMDAT xdata
xdata	SEGMENT
$unwind$?_Init@?$basic_stringbuf@DU?$char_traits@D@std@@V?$allocator@D@2@@std@@IEAAXPEBD_KH@Z DD 081501H
	DD	097415H
	DD	085415H
	DD	073415H
	DD	0e0113215H
xdata	ENDS
;	COMDAT xdata
xdata	SEGMENT
$unwind$??$transform@V?$_String_iterator@V?$_String_val@U?$_Simple_types@D@std@@@std@@@std@@V12@P6AHH@Z@std@@YA?AV?$_String_iterator@V?$_String_val@U?$_Simple_types@D@std@@@std@@@0@V10@0V10@P6AHH@Z@Z DD 081201H
	DD	0a5412H
	DD	093412H
	DD	0e00e3212H
	DD	0600b700cH
xdata	ENDS
;	COMDAT xdata
xdata	SEGMENT
$unwind$??$find_if@V?$_String_iterator@V?$_String_val@U?$_Simple_types@D@std@@@std@@@std@@V<lambda_1>@?1??IsNumber@Util@@YA_NV?$basic_string@DU?$char_traits@D@std@@V?$allocator@D@2@@2@@Z@@std@@YA?AV?$_String_iterator@V?$_String_val@U?$_Simple_types@D@std@@@std@@@0@V10@V10@V<lambda_1>@?1??IsNumber@Util@@YA_NV?$basic_string@DU?$char_traits@D@std@@V?$allocator@D@2@@0@@Z@@Z DD 060f01H
	DD	08640fH
	DD	07340fH
	DD	0700b320fH
xdata	ENDS
;	COMDAT xdata
xdata	SEGMENT
$chain$4$??$_Reallocate_grow_by@V<lambda_1>@?1??reserve@?$basic_string@_WU?$char_traits@_W@std@@V?$allocator@_W@2@@std@@QEAAX_K@Z@$$V@?$basic_string@_WU?$char_traits@_W@std@@V?$allocator@_W@2@@std@@AEAAAEAV01@_KV<lambda_1>@?1??reserve@01@QEAAX0@Z@@Z DD 021H
	DD	imagerel $LN74
	DD	imagerel $LN74+41
	DD	imagerel $unwind$??$_Reallocate_grow_by@V<lambda_1>@?1??reserve@?$basic_string@_WU?$char_traits@_W@std@@V?$allocator@_W@2@@std@@QEAAX_K@Z@$$V@?$basic_string@_WU?$char_traits@_W@std@@V?$allocator@_W@2@@std@@AEAAAEAV01@_KV<lambda_1>@?1??reserve@01@QEAAX0@Z@@Z
xdata	ENDS
;	COMDAT xdata
xdata	SEGMENT
$chain$3$??$_Reallocate_grow_by@V<lambda_1>@?1??reserve@?$basic_string@_WU?$char_traits@_W@std@@V?$allocator@_W@2@@std@@QEAAX_K@Z@$$V@?$basic_string@_WU?$char_traits@_W@std@@V?$allocator@_W@2@@std@@AEAAAEAV01@_KV<lambda_1>@?1??reserve@01@QEAAX0@Z@@Z DD 021H
	DD	imagerel $LN74+41
	DD	imagerel $LN74+55
	DD	imagerel $chain$1$??$_Reallocate_grow_by@V<lambda_1>@?1??reserve@?$basic_string@_WU?$char_traits@_W@std@@V?$allocator@_W@2@@std@@QEAAX_K@Z@$$V@?$basic_string@_WU?$char_traits@_W@std@@V?$allocator@_W@2@@std@@AEAAAEAV01@_KV<lambda_1>@?1??reserve@01@QEAAX0@Z@@Z
xdata	ENDS
;	COMDAT xdata
xdata	SEGMENT
$chain$2$??$_Reallocate_grow_by@V<lambda_1>@?1??reserve@?$basic_string@_WU?$char_traits@_W@std@@V?$allocator@_W@2@@std@@QEAAX_K@Z@$$V@?$basic_string@_WU?$char_traits@_W@std@@V?$allocator@_W@2@@std@@AEAAAEAV01@_KV<lambda_1>@?1??reserve@01@QEAAX0@Z@@Z DD 020521H
	DD	04f405H
	DD	imagerel $LN74+41
	DD	imagerel $LN74+55
	DD	imagerel $chain$1$??$_Reallocate_grow_by@V<lambda_1>@?1??reserve@?$basic_string@_WU?$char_traits@_W@std@@V?$allocator@_W@2@@std@@QEAAX_K@Z@$$V@?$basic_string@_WU?$char_traits@_W@std@@V?$allocator@_W@2@@std@@AEAAAEAV01@_KV<lambda_1>@?1??reserve@01@QEAAX0@Z@@Z
xdata	ENDS
;	COMDAT xdata
xdata	SEGMENT
$chain$1$??$_Reallocate_grow_by@V<lambda_1>@?1??reserve@?$basic_string@_WU?$char_traits@_W@std@@V?$allocator@_W@2@@std@@QEAAX_K@Z@$$V@?$basic_string@_WU?$char_traits@_W@std@@V?$allocator@_W@2@@std@@AEAAAEAV01@_KV<lambda_1>@?1??reserve@01@QEAAX0@Z@@Z DD 040e21H
	DD	05640eH
	DD	0c5405H
	DD	imagerel $LN74
	DD	imagerel $LN74+41
	DD	imagerel $unwind$??$_Reallocate_grow_by@V<lambda_1>@?1??reserve@?$basic_string@_WU?$char_traits@_W@std@@V?$allocator@_W@2@@std@@QEAAX_K@Z@$$V@?$basic_string@_WU?$char_traits@_W@std@@V?$allocator@_W@2@@std@@AEAAAEAV01@_KV<lambda_1>@?1??reserve@01@QEAAX0@Z@@Z
xdata	ENDS
;	COMDAT xdata
xdata	SEGMENT
$unwind$??$_Reallocate_grow_by@V<lambda_1>@?1??reserve@?$basic_string@_WU?$char_traits@_W@std@@V?$allocator@_W@2@@std@@QEAAX_K@Z@$$V@?$basic_string@_WU?$char_traits@_W@std@@V?$allocator@_W@2@@std@@AEAAAEAV01@_KV<lambda_1>@?1??reserve@01@QEAAX0@Z@@Z DD 040901H
	DD	0e0055209H
	DD	030027003H
xdata	ENDS
;	COMDAT xdata
xdata	SEGMENT
$chain$6$??$_Reallocate_grow_by@V<lambda_1>@?1??replace@?$basic_string@DU?$char_traits@D@std@@V?$allocator@D@2@@std@@QEAAAEAV34@_K_KQEBD0@Z@_K_KPEBD_K@?$basic_string@DU?$char_traits@D@std@@V?$allocator@D@2@@std@@AEAAAEAV01@_KV<lambda_1>@?1??replace@01@QEAAAEAV01@0_KQEBD0@Z@11PEBD1@Z DD 021H
	DD	imagerel $LN153
	DD	imagerel $LN153+58
	DD	imagerel $unwind$??$_Reallocate_grow_by@V<lambda_1>@?1??replace@?$basic_string@DU?$char_traits@D@std@@V?$allocator@D@2@@std@@QEAAAEAV34@_K_KQEBD0@Z@_K_KPEBD_K@?$basic_string@DU?$char_traits@D@std@@V?$allocator@D@2@@std@@AEAAAEAV01@_KV<lambda_1>@?1??replace@01@QEAAAEAV01@0_KQEBD0@Z@11PEBD1@Z
xdata	ENDS
;	COMDAT xdata
xdata	SEGMENT
$chain$5$??$_Reallocate_grow_by@V<lambda_1>@?1??replace@?$basic_string@DU?$char_traits@D@std@@V?$allocator@D@2@@std@@QEAAAEAV34@_K_KQEBD0@Z@_K_KPEBD_K@?$basic_string@DU?$char_traits@D@std@@V?$allocator@D@2@@std@@AEAAAEAV01@_KV<lambda_1>@?1??replace@01@QEAAAEAV01@0_KQEBD0@Z@11PEBD1@Z DD 080021H
	DD	06f400H
	DD	07e400H
	DD	08d400H
	DD	0107400H
	DD	imagerel $LN153
	DD	imagerel $LN153+58
	DD	imagerel $unwind$??$_Reallocate_grow_by@V<lambda_1>@?1??replace@?$basic_string@DU?$char_traits@D@std@@V?$allocator@D@2@@std@@QEAAAEAV34@_K_KQEBD0@Z@_K_KPEBD_K@?$basic_string@DU?$char_traits@D@std@@V?$allocator@D@2@@std@@AEAAAEAV01@_KV<lambda_1>@?1??replace@01@QEAAAEAV01@0_KQEBD0@Z@11PEBD1@Z
xdata	ENDS
;	COMDAT xdata
xdata	SEGMENT
$chain$3$??$_Reallocate_grow_by@V<lambda_1>@?1??replace@?$basic_string@DU?$char_traits@D@std@@V?$allocator@D@2@@std@@QEAAAEAV34@_K_KQEBD0@Z@_K_KPEBD_K@?$basic_string@DU?$char_traits@D@std@@V?$allocator@D@2@@std@@AEAAAEAV01@_KV<lambda_1>@?1??replace@01@QEAAAEAV01@0_KQEBD0@Z@11PEBD1@Z DD 085121H
	DD	08d451H
	DD	0107448H
	DD	06f40eH
	DD	07e405H
	DD	imagerel $LN153
	DD	imagerel $LN153+58
	DD	imagerel $unwind$??$_Reallocate_grow_by@V<lambda_1>@?1??replace@?$basic_string@DU?$char_traits@D@std@@V?$allocator@D@2@@std@@QEAAAEAV34@_K_KQEBD0@Z@_K_KPEBD_K@?$basic_string@DU?$char_traits@D@std@@V?$allocator@D@2@@std@@AEAAAEAV01@_KV<lambda_1>@?1??replace@01@QEAAAEAV01@0_KQEBD0@Z@11PEBD1@Z
xdata	ENDS
;	COMDAT xdata
xdata	SEGMENT
$unwind$??$_Reallocate_grow_by@V<lambda_1>@?1??replace@?$basic_string@DU?$char_traits@D@std@@V?$allocator@D@2@@std@@QEAAAEAV34@_K_KQEBD0@Z@_K_KPEBD_K@?$basic_string@DU?$char_traits@D@std@@V?$allocator@D@2@@std@@AEAAAEAV01@_KV<lambda_1>@?1??replace@01@QEAAAEAV01@0_KQEBD0@Z@11PEBD1@Z DD 050a01H
	DD	0c006820aH
	DD	050036004H
	DD	03002H
; Function compile flags: /Ogtpy
; File H:\Paul\switchemulator\Zelda TotK\MapEditorV4\OldVersion\MapEditor\Util.cpp
; File C:\Program Files\Microsoft Visual Studio\2022\Community\VC\Tools\MSVC\14.37.32822\include\system_error
; File C:\Program Files\Microsoft Visual Studio\2022\Community\VC\Tools\MSVC\14.37.32822\include\filesystem
; File C:\Program Files\Microsoft Visual Studio\2022\Community\VC\Tools\MSVC\14.37.32822\include\xstring
; File H:\Paul\switchemulator\Zelda TotK\MapEditorV4\OldVersion\MapEditor\Util.cpp
; File C:\Program Files\Microsoft Visual Studio\2022\Community\VC\Tools\MSVC\14.37.32822\include\filesystem
; File H:\Paul\switchemulator\Zelda TotK\MapEditorV4\OldVersion\MapEditor\Util.cpp
;	COMDAT ?CreateDir@Util@@YAXV?$basic_string@DU?$char_traits@D@std@@V?$allocator@D@2@@std@@@Z
_TEXT	SEGMENT
$T1 = 32
Path$GSCopy$ = 64
_Ec$2 = 72
__$ArrayPad$ = 88
Path$ = 112
?CreateDir@Util@@YAXV?$basic_string@DU?$char_traits@D@std@@V?$allocator@D@2@@std@@@Z PROC ; Util::CreateDir, COMDAT

; 32   : {

$LN28:
	push	rbx
	sub	rsp, 96					; 00000060H
	mov	rax, QWORD PTR __security_cookie
	xor	rax, rsp
	mov	QWORD PTR __$ArrayPad$[rsp], rax
	mov	rbx, rcx

; 31   : void Util::CreateDir(std::string Path)

	mov	QWORD PTR Path$GSCopy$[rsp], rcx

; 33   : 	std::filesystem::create_directories(Path);

	mov	rdx, rcx
	lea	rcx, QWORD PTR $T1[rsp]
	call	??$?0V?$basic_string@DU?$char_traits@D@std@@V?$allocator@D@2@@std@@$0A@@path@filesystem@std@@QEAA@AEBV?$basic_string@DU?$char_traits@D@std@@V?$allocator@D@2@@2@W4format@012@@Z ; std::filesystem::path::path<std::basic_string<char,std::char_traits<char>,std::allocator<char> >,0>
	npad	1
	xor	eax, eax
; File C:\Program Files\Microsoft Visual Studio\2022\Community\VC\Tools\MSVC\14.37.32822\include\system_error

; 166  :     error_code() noexcept : _Myval(0), _Mycat(&_STD system_category()) {} // construct non-error

	mov	QWORD PTR _Ec$2[rsp], rax
	lea	rax, OFFSET FLAT:?_Static@?1???$_Immortalize_memcpy_image@V_System_error_category@std@@@std@@YAAEBV_System_error_category@1@XZ@4V21@B ; `std::_Immortalize_memcpy_image<std::_System_error_category>'::`2'::_Static
	mov	QWORD PTR _Ec$2[rsp+8], rax
; File C:\Program Files\Microsoft Visual Studio\2022\Community\VC\Tools\MSVC\14.37.32822\include\filesystem

; 3833 :         const bool _Result = _STD filesystem::create_directories(_Path, _Ec);

	lea	rdx, QWORD PTR _Ec$2[rsp]
	lea	rcx, QWORD PTR $T1[rsp]
	call	?create_directories@filesystem@std@@YA_NAEBVpath@12@AEAVerror_code@2@@Z ; std::filesystem::create_directories

; 3834 :         if (_Ec) {

	cmp	DWORD PTR _Ec$2[rsp], 0
	jne	SHORT $LN26@CreateDir
; File C:\Program Files\Microsoft Visual Studio\2022\Community\VC\Tools\MSVC\14.37.32822\include\xstring

; 3119 :         _Tidy_deallocate();

	lea	rcx, QWORD PTR $T1[rsp]
	call	?_Tidy_deallocate@?$basic_string@_WU?$char_traits@_W@std@@V?$allocator@_W@2@@std@@AEAAXXZ ; std::basic_string<wchar_t,std::char_traits<wchar_t>,std::allocator<wchar_t> >::_Tidy_deallocate
	npad	1
	mov	rcx, rbx
	call	?_Tidy_deallocate@?$basic_string@DU?$char_traits@D@std@@V?$allocator@D@2@@std@@AEAAXXZ ; std::basic_string<char,std::char_traits<char>,std::allocator<char> >::_Tidy_deallocate
; File H:\Paul\switchemulator\Zelda TotK\MapEditorV4\OldVersion\MapEditor\Util.cpp

; 34   : }

	mov	rcx, QWORD PTR __$ArrayPad$[rsp]
	xor	rcx, rsp
	call	__security_check_cookie
	add	rsp, 96					; 00000060H
	pop	rbx
	ret	0
$LN26@CreateDir:
; File C:\Program Files\Microsoft Visual Studio\2022\Community\VC\Tools\MSVC\14.37.32822\include\filesystem

; 3835 :             _Throw_fs_error("create_directories", _Ec, _Path);

	lea	r8, QWORD PTR $T1[rsp]
	lea	rdx, QWORD PTR _Ec$2[rsp]
	lea	rcx, OFFSET FLAT:??_C@_0BD@EPABGGCG@create_directories@
	call	?_Throw_fs_error@filesystem@std@@YAXPEBDAEBVerror_code@2@AEBVpath@12@@Z ; std::filesystem::_Throw_fs_error
	int	3
$LN24@CreateDir:
?CreateDir@Util@@YAXV?$basic_string@DU?$char_traits@D@std@@V?$allocator@D@2@@std@@@Z ENDP ; Util::CreateDir
_TEXT	ENDS
; Function compile flags: /Ogtpy
;	COMDAT text$x
text$x	SEGMENT
$T1 = 32
Path$GSCopy$ = 64
_Ec$2 = 72
__$ArrayPad$ = 88
Path$ = 112
?dtor$0@?0??CreateDir@Util@@YAXV?$basic_string@DU?$char_traits@D@std@@V?$allocator@D@2@@std@@@Z@4HA PROC ; `Util::CreateDir'::`1'::dtor$0
	mov	rcx, QWORD PTR Path$GSCopy$[rdx]
	jmp	??1?$basic_string@DU?$char_traits@D@std@@V?$allocator@D@2@@std@@QEAA@XZ ; std::basic_string<char,std::char_traits<char>,std::allocator<char> >::~basic_string<char,std::char_traits<char>,std::allocator<char> >
?dtor$0@?0??CreateDir@Util@@YAXV?$basic_string@DU?$char_traits@D@std@@V?$allocator@D@2@@std@@@Z@4HA ENDP ; `Util::CreateDir'::`1'::dtor$0
text$x	ENDS
; Function compile flags: /Ogtpy
;	COMDAT text$x
text$x	SEGMENT
$T1 = 32
Path$GSCopy$ = 64
_Ec$2 = 72
__$ArrayPad$ = 88
Path$ = 112
?dtor$1@?0??CreateDir@Util@@YAXV?$basic_string@DU?$char_traits@D@std@@V?$allocator@D@2@@std@@@Z@4HA PROC ; `Util::CreateDir'::`1'::dtor$1
	lea	rcx, QWORD PTR $T1[rdx]
	jmp	??1path@filesystem@std@@QEAA@XZ		; std::filesystem::path::~path
?dtor$1@?0??CreateDir@Util@@YAXV?$basic_string@DU?$char_traits@D@std@@V?$allocator@D@2@@std@@@Z@4HA ENDP ; `Util::CreateDir'::`1'::dtor$1
text$x	ENDS
; Function compile flags: /Ogtpy
; File H:\Paul\switchemulator\Zelda TotK\MapEditorV4\OldVersion\MapEditor\Util.cpp
; File C:\Program Files\Microsoft Visual Studio\2022\Community\VC\Tools\MSVC\14.37.32822\include\xstring
; File H:\Paul\switchemulator\Zelda TotK\MapEditorV4\OldVersion\MapEditor\Util.cpp
; File C:\Program Files\Microsoft Visual Studio\2022\Community\VC\Tools\MSVC\14.37.32822\include\xstring
; File C:\Program Files (x86)\Windows Kits\10\Include\10.0.22621.0\ucrt\sys\stat.h
; File H:\Paul\switchemulator\Zelda TotK\MapEditorV4\OldVersion\MapEditor\Util.cpp
; File C:\Program Files\Microsoft Visual Studio\2022\Community\VC\Tools\MSVC\14.37.32822\include\xstring
; File H:\Paul\switchemulator\Zelda TotK\MapEditorV4\OldVersion\MapEditor\Util.cpp
; File C:\Program Files\Microsoft Visual Studio\2022\Community\VC\Tools\MSVC\14.37.32822\include\xstring
; File H:\Paul\switchemulator\Zelda TotK\MapEditorV4\OldVersion\MapEditor\Util.cpp
;	COMDAT ?FileExists@Util@@YA_NV?$basic_string@DU?$char_traits@D@std@@V?$allocator@D@2@@std@@@Z
_TEXT	SEGMENT
buffer$ = 32
__$ArrayPad$ = 80
File$ = 112
?FileExists@Util@@YA_NV?$basic_string@DU?$char_traits@D@std@@V?$allocator@D@2@@std@@@Z PROC ; Util::FileExists, COMDAT

; 21   : {

$LN18:
	mov	QWORD PTR [rsp+16], rbx
	push	rdi
	sub	rsp, 96					; 00000060H
	mov	rax, QWORD PTR __security_cookie
	xor	rax, rsp
	mov	QWORD PTR __$ArrayPad$[rsp], rax
; File C:\Program Files\Microsoft Visual Studio\2022\Community\VC\Tools\MSVC\14.37.32822\include\xstring

; 2244 :         return _BUF_SIZE <= _Myres;

	cmp	QWORD PTR [rcx+24], 16
; File H:\Paul\switchemulator\Zelda TotK\MapEditorV4\OldVersion\MapEditor\Util.cpp

; 21   : {

	mov	rdi, rcx
; File C:\Program Files\Microsoft Visual Studio\2022\Community\VC\Tools\MSVC\14.37.32822\include\xstring

; 2236 :         if (_Large_string_engaged()) {

	jb	SHORT $LN6@FileExists

; 2237 :             _Result = _Unfancy(_Bx._Ptr);

	mov	rcx, QWORD PTR [rcx]
$LN6@FileExists:
; File C:\Program Files (x86)\Windows Kits\10\Include\10.0.22621.0\ucrt\sys\stat.h

; 241  :             return _stat64i32(_FileName, (struct _stat64i32*)_Stat);

	lea	rdx, QWORD PTR buffer$[rsp]
	call	QWORD PTR __imp__stat64i32
; File H:\Paul\switchemulator\Zelda TotK\MapEditorV4\OldVersion\MapEditor\Util.cpp

; 23   : 	return (stat(File.c_str(), &buffer) == 0);

	test	eax, eax
; File C:\Program Files\Microsoft Visual Studio\2022\Community\VC\Tools\MSVC\14.37.32822\include\xstring

; 3119 :         _Tidy_deallocate();

	mov	rcx, rdi
; File H:\Paul\switchemulator\Zelda TotK\MapEditorV4\OldVersion\MapEditor\Util.cpp

; 23   : 	return (stat(File.c_str(), &buffer) == 0);

	sete	bl
; File C:\Program Files\Microsoft Visual Studio\2022\Community\VC\Tools\MSVC\14.37.32822\include\xstring

; 3119 :         _Tidy_deallocate();

	call	?_Tidy_deallocate@?$basic_string@DU?$char_traits@D@std@@V?$allocator@D@2@@std@@AEAAXXZ ; std::basic_string<char,std::char_traits<char>,std::allocator<char> >::_Tidy_deallocate
; File H:\Paul\switchemulator\Zelda TotK\MapEditorV4\OldVersion\MapEditor\Util.cpp

; 23   : 	return (stat(File.c_str(), &buffer) == 0);

	movzx	eax, bl

; 24   : }

	mov	rcx, QWORD PTR __$ArrayPad$[rsp]
	xor	rcx, rsp
	call	__security_check_cookie
	mov	rbx, QWORD PTR [rsp+120]
	add	rsp, 96					; 00000060H
	pop	rdi
	ret	0
?FileExists@Util@@YA_NV?$basic_string@DU?$char_traits@D@std@@V?$allocator@D@2@@std@@@Z ENDP ; Util::FileExists
_TEXT	ENDS
; Function compile flags: /Ogtpy
; File H:\Paul\switchemulator\Zelda TotK\MapEditorV4\OldVersion\MapEditor\Util.cpp
; File C:\Program Files\Microsoft Visual Studio\2022\Community\VC\Tools\MSVC\14.37.32822\include\xstring
; File H:\Paul\switchemulator\Zelda TotK\MapEditorV4\OldVersion\MapEditor\Util.cpp
; File C:\Program Files\Microsoft Visual Studio\2022\Community\VC\Tools\MSVC\14.37.32822\include\xstring
; File H:\Paul\switchemulator\Zelda TotK\MapEditorV4\OldVersion\MapEditor\Util.cpp
;	COMDAT ?ReplaceString@Util@@YA_NAEAV?$basic_string@DU?$char_traits@D@std@@V?$allocator@D@2@@std@@AEBV23@1@Z
_TEXT	SEGMENT
str$ = 64
from$ = 72
to$ = 80
?ReplaceString@Util@@YA_NAEAV?$basic_string@DU?$char_traits@D@std@@V?$allocator@D@2@@std@@AEBV23@1@Z PROC ; Util::ReplaceString, COMDAT

; 106  : {

$LN34:
	mov	QWORD PTR [rsp+8], rbx
	mov	QWORD PTR [rsp+16], rbp
	mov	QWORD PTR [rsp+24], rsi
	mov	QWORD PTR [rsp+32], rdi
	push	r14
	sub	rsp, 48					; 00000030H
	mov	rsi, r8
	mov	rdi, rdx
	mov	rbx, rcx

; 107  : 	size_t startPos = 0;

	xor	ebp, ebp
	npad	11
$LL2@ReplaceStr:
; File C:\Program Files\Microsoft Visual Studio\2022\Community\VC\Tools\MSVC\14.37.32822\include\xstring

; 2244 :         return _BUF_SIZE <= _Myres;

	cmp	QWORD PTR [rdi+24], 16

; 2235 :         const value_type* _Result = _Bx._Buf;

	mov	r9, rdi

; 4343 :         return static_cast<size_type>(_Traits_find<_Traits>(_Mypair._Myval2._Myptr(), _Mypair._Myval2._Mysize, _Off,

	mov	r14, QWORD PTR [rdi+16]

; 2236 :         if (_Large_string_engaged()) {

	jb	SHORT $LN8@ReplaceStr

; 2237 :             _Result = _Unfancy(_Bx._Ptr);

	mov	r9, QWORD PTR [rdi]
$LN8@ReplaceStr:

; 2244 :         return _BUF_SIZE <= _Myres;

	cmp	QWORD PTR [rbx+24], 16

; 2235 :         const value_type* _Result = _Bx._Buf;

	mov	rcx, rbx

; 2236 :         if (_Large_string_engaged()) {

	jb	SHORT $LN13@ReplaceStr

; 2237 :             _Result = _Unfancy(_Bx._Ptr);

	mov	rcx, QWORD PTR [rbx]
$LN13@ReplaceStr:

; 4343 :         return static_cast<size_type>(_Traits_find<_Traits>(_Mypair._Myval2._Myptr(), _Mypair._Myval2._Mysize, _Off,

	mov	rdx, QWORD PTR [rbx+16]
	mov	r8, rbp
	mov	QWORD PTR [rsp+32], r14
	call	??$_Traits_find@U?$char_traits@D@std@@@std@@YA_KQEBD_K101@Z ; std::_Traits_find<std::char_traits<char> >
	mov	rbp, rax
; File H:\Paul\switchemulator\Zelda TotK\MapEditorV4\OldVersion\MapEditor\Util.cpp

; 108  : 	while ((startPos = str.find(from, startPos)) != std::string::npos)

	cmp	rax, -1
	je	SHORT $LN27@ReplaceStr
; File C:\Program Files\Microsoft Visual Studio\2022\Community\VC\Tools\MSVC\14.37.32822\include\xstring

; 2244 :         return _BUF_SIZE <= _Myres;

	cmp	QWORD PTR [rsi+24], 16

; 2235 :         const value_type* _Result = _Bx._Buf;

	mov	r9, rsi

; 3678 :         return replace(_Off, _Nx, _Right._Mypair._Myval2._Myptr(), _Right._Mypair._Myval2._Mysize);

	mov	rax, QWORD PTR [rsi+16]

; 2236 :         if (_Large_string_engaged()) {

	jb	SHORT $LN20@ReplaceStr

; 2237 :             _Result = _Unfancy(_Bx._Ptr);

	mov	r9, QWORD PTR [rsi]
$LN20@ReplaceStr:

; 3678 :         return replace(_Off, _Nx, _Right._Mypair._Myval2._Myptr(), _Right._Mypair._Myval2._Mysize);

	mov	r8, r14
	mov	QWORD PTR [rsp+32], rax
	mov	rdx, rbp
	mov	rcx, rbx
	call	?replace@?$basic_string@DU?$char_traits@D@std@@V?$allocator@D@2@@std@@QEAAAEAV12@_K_KQEBD0@Z ; std::basic_string<char,std::char_traits<char>,std::allocator<char> >::replace
; File H:\Paul\switchemulator\Zelda TotK\MapEditorV4\OldVersion\MapEditor\Util.cpp

; 111  : 		startPos += to.length(); // In case the replacement string contains the target substring

	add	rbp, QWORD PTR [rsi+16]

; 112  : 	}

	jmp	SHORT $LL2@ReplaceStr
$LN27@ReplaceStr:

; 113  : 	return true;
; 114  : }

	mov	rbx, QWORD PTR [rsp+64]
	mov	al, 1
	mov	rbp, QWORD PTR [rsp+72]
	mov	rsi, QWORD PTR [rsp+80]
	mov	rdi, QWORD PTR [rsp+88]
	add	rsp, 48					; 00000030H
	pop	r14
	ret	0
?ReplaceString@Util@@YA_NAEAV?$basic_string@DU?$char_traits@D@std@@V?$allocator@D@2@@std@@AEBV23@1@Z ENDP ; Util::ReplaceString
_TEXT	ENDS
; Function compile flags: /Ogtpy
; File H:\Paul\switchemulator\Zelda TotK\MapEditorV4\OldVersion\MapEditor\Util.cpp
; File H:\Paul\switchemulator\Zelda TotK\MapEditorV4\OldVersion\MapEditor\Libraries\include\glm\detail\func_trigonometric.inl
; File H:\Paul\switchemulator\Zelda TotK\MapEditorV4\OldVersion\MapEditor\Util.cpp
;	COMDAT ?DegreesToRadians@Util@@YAMM@Z
_TEXT	SEGMENT
Degrees$ = 8
?DegreesToRadians@Util@@YAMM@Z PROC			; Util::DegreesToRadians, COMDAT
; File H:\Paul\switchemulator\Zelda TotK\MapEditorV4\OldVersion\MapEditor\Libraries\include\glm\detail\func_trigonometric.inl

; 13   : 		return degrees * static_cast<genType>(0.01745329251994329576923690768489);

	mulss	xmm0, DWORD PTR __real@3c8efa35
; File H:\Paul\switchemulator\Zelda TotK\MapEditorV4\OldVersion\MapEditor\Util.cpp

; 18   : }

	ret	0
?DegreesToRadians@Util@@YAMM@Z ENDP			; Util::DegreesToRadians
_TEXT	ENDS
; Function compile flags: /Ogtpy
; File H:\Paul\switchemulator\Zelda TotK\MapEditorV4\OldVersion\MapEditor\Util.cpp
; File C:\Program Files (x86)\Windows Kits\10\Include\10.0.22621.0\ucrt\corecrt_math.h
; File H:\Paul\switchemulator\Zelda TotK\MapEditorV4\OldVersion\MapEditor\Util.cpp
;	COMDAT ?CompareFloatsWithTolerance@Util@@YA_NMMM@Z
_TEXT	SEGMENT
a$ = 8
b$ = 16
Tolerance$ = 24
?CompareFloatsWithTolerance@Util@@YA_NMMM@Z PROC	; Util::CompareFloatsWithTolerance, COMDAT

; 157  : 	return std::fabs(a - b) <= Tolerance;

	subss	xmm0, xmm1
; File C:\Program Files (x86)\Windows Kits\10\Include\10.0.22621.0\ucrt\corecrt_math.h

; 680  :             return (float)fabs(_X);

	andps	xmm0, DWORD PTR __xmm@7fffffff7fffffff7fffffff7fffffff
; File H:\Paul\switchemulator\Zelda TotK\MapEditorV4\OldVersion\MapEditor\Util.cpp

; 157  : 	return std::fabs(a - b) <= Tolerance;

	comiss	xmm2, xmm0
	setae	al

; 158  : }

	ret	0
?CompareFloatsWithTolerance@Util@@YA_NMMM@Z ENDP	; Util::CompareFloatsWithTolerance
_TEXT	ENDS
; Function compile flags: /Ogtpy
; File H:\Paul\switchemulator\Zelda TotK\MapEditorV4\OldVersion\MapEditor\Util.cpp
; File C:\Program Files\Microsoft Visual Studio\2022\Community\VC\Tools\MSVC\14.37.32822\include\sstream
; File C:\Program Files\Microsoft Visual Studio\2022\Community\VC\Tools\MSVC\14.37.32822\include\xstring
; File H:\Paul\switchemulator\Zelda TotK\MapEditorV4\OldVersion\MapEditor\Util.cpp
;	COMDAT ??$StringToNumber@M@Util@@YAMV?$basic_string@DU?$char_traits@D@std@@V?$allocator@D@2@@std@@@Z
_TEXT	SEGMENT
Value$GSCopy$ = 32
Number$ = 40
StringStream$ = 48
__$ArrayPad$ = 288
Value$ = 336
??$StringToNumber@M@Util@@YAMV?$basic_string@DU?$char_traits@D@std@@V?$allocator@D@2@@std@@@Z PROC ; Util::StringToNumber<float>, COMDAT

; 81   : {

$LN20:
	push	rbx
	sub	rsp, 320				; 00000140H
	movaps	XMMWORD PTR [rsp+304], xmm6
	mov	rax, QWORD PTR __security_cookie
	xor	rax, rsp
	mov	QWORD PTR __$ArrayPad$[rsp], rax
	mov	rbx, rcx

; 80   : template<> float Util::StringToNumber(std::string Value)

	mov	QWORD PTR Value$GSCopy$[rsp], rcx
	xor	edx, edx
	mov	r8d, 240				; 000000f0H
	lea	rcx, QWORD PTR StringStream$[rsp]
	call	memset

; 82   : 	float Number;
; 83   : 	std::istringstream StringStream(Value);

	mov	rdx, rbx
	lea	rcx, QWORD PTR StringStream$[rsp]
	call	??0?$basic_istringstream@DU?$char_traits@D@std@@V?$allocator@D@2@@std@@QEAA@AEBV?$basic_string@DU?$char_traits@D@std@@V?$allocator@D@2@@1@H@Z ; std::basic_istringstream<char,std::char_traits<char>,std::allocator<char> >::basic_istringstream<char,std::char_traits<char>,std::allocator<char> >
	npad	1

; 84   : 	StringStream >> Number;

	lea	rdx, QWORD PTR Number$[rsp]
	lea	rcx, QWORD PTR StringStream$[rsp]
	call	QWORD PTR __imp_??5?$basic_istream@DU?$char_traits@D@std@@@std@@QEAAAEAV01@AEAM@Z

; 85   : 	return Number;

	movss	xmm6, DWORD PTR Number$[rsp]
; File C:\Program Files\Microsoft Visual Studio\2022\Community\VC\Tools\MSVC\14.37.32822\include\sstream

; 613  :     ~basic_istringstream() noexcept override {}

	mov	rax, QWORD PTR StringStream$[rsp]
	movsxd	rcx, DWORD PTR [rax+4]
	lea	rax, OFFSET FLAT:??_7?$basic_istringstream@DU?$char_traits@D@std@@V?$allocator@D@2@@std@@6B@
	mov	QWORD PTR StringStream$[rsp+rcx], rax
	mov	rax, QWORD PTR StringStream$[rsp]
	movsxd	rdx, DWORD PTR [rax+4]
	lea	r8d, DWORD PTR [rdx-144]
	mov	DWORD PTR StringStream$[rsp+rdx-4], r8d

; 109  :     ~basic_stringbuf() noexcept override {

	lea	rax, OFFSET FLAT:??_7?$basic_stringbuf@DU?$char_traits@D@std@@V?$allocator@D@2@@std@@6B@
	mov	QWORD PTR StringStream$[rsp+16], rax

; 110  :         _Tidy();

	lea	rcx, QWORD PTR StringStream$[rsp+16]
	call	?_Tidy@?$basic_stringbuf@DU?$char_traits@D@std@@V?$allocator@D@2@@std@@IEAAXXZ ; std::basic_stringbuf<char,std::char_traits<char>,std::allocator<char> >::_Tidy

; 111  :     }

	lea	rcx, QWORD PTR StringStream$[rsp+16]
	call	QWORD PTR __imp_??1?$basic_streambuf@DU?$char_traits@D@std@@@std@@UEAA@XZ

; 613  :     ~basic_istringstream() noexcept override {}

	lea	rcx, QWORD PTR StringStream$[rsp+24]
	call	QWORD PTR __imp_??1?$basic_istream@DU?$char_traits@D@std@@@std@@UEAA@XZ
	lea	rcx, QWORD PTR StringStream$[rsp+144]
	call	QWORD PTR __imp_??1?$basic_ios@DU?$char_traits@D@std@@@std@@UEAA@XZ
	npad	1
; File C:\Program Files\Microsoft Visual Studio\2022\Community\VC\Tools\MSVC\14.37.32822\include\xstring

; 3119 :         _Tidy_deallocate();

	mov	rcx, rbx
	call	?_Tidy_deallocate@?$basic_string@DU?$char_traits@D@std@@V?$allocator@D@2@@std@@AEAAXXZ ; std::basic_string<char,std::char_traits<char>,std::allocator<char> >::_Tidy_deallocate
; File H:\Paul\switchemulator\Zelda TotK\MapEditorV4\OldVersion\MapEditor\Util.cpp

; 85   : 	return Number;

	movaps	xmm0, xmm6

; 86   : }

	mov	rcx, QWORD PTR __$ArrayPad$[rsp]
	xor	rcx, rsp
	call	__security_check_cookie
	movaps	xmm6, XMMWORD PTR [rsp+304]
	add	rsp, 320				; 00000140H
	pop	rbx
	ret	0
??$StringToNumber@M@Util@@YAMV?$basic_string@DU?$char_traits@D@std@@V?$allocator@D@2@@std@@@Z ENDP ; Util::StringToNumber<float>
_TEXT	ENDS
; Function compile flags: /Ogtpy
;	COMDAT text$x
text$x	SEGMENT
Value$GSCopy$ = 32
Number$ = 40
StringStream$ = 48
__$ArrayPad$ = 288
Value$ = 336
?dtor$0@?0???$StringToNumber@M@Util@@YAMV?$basic_string@DU?$char_traits@D@std@@V?$allocator@D@2@@std@@@Z@4HA PROC ; `Util::StringToNumber<float>'::`1'::dtor$0
	mov	rcx, QWORD PTR Value$GSCopy$[rdx]
	jmp	??1?$basic_string@DU?$char_traits@D@std@@V?$allocator@D@2@@std@@QEAA@XZ ; std::basic_string<char,std::char_traits<char>,std::allocator<char> >::~basic_string<char,std::char_traits<char>,std::allocator<char> >
?dtor$0@?0???$StringToNumber@M@Util@@YAMV?$basic_string@DU?$char_traits@D@std@@V?$allocator@D@2@@std@@@Z@4HA ENDP ; `Util::StringToNumber<float>'::`1'::dtor$0
text$x	ENDS
; Function compile flags: /Ogtpy
;	COMDAT text$x
text$x	SEGMENT
Value$GSCopy$ = 32
Number$ = 40
StringStream$ = 48
__$ArrayPad$ = 288
Value$ = 336
?dtor$1@?0???$StringToNumber@M@Util@@YAMV?$basic_string@DU?$char_traits@D@std@@V?$allocator@D@2@@std@@@Z@4HA PROC ; `Util::StringToNumber<float>'::`1'::dtor$1
	lea	rcx, QWORD PTR StringStream$[rdx]
	jmp	??_D?$basic_istringstream@DU?$char_traits@D@std@@V?$allocator@D@2@@std@@QEAAXXZ
?dtor$1@?0???$StringToNumber@M@Util@@YAMV?$basic_string@DU?$char_traits@D@std@@V?$allocator@D@2@@std@@@Z@4HA ENDP ; `Util::StringToNumber<float>'::`1'::dtor$1
text$x	ENDS
; Function compile flags: /Ogtpy
; File H:\Paul\switchemulator\Zelda TotK\MapEditorV4\OldVersion\MapEditor\Util.cpp
; File C:\Program Files\Microsoft Visual Studio\2022\Community\VC\Tools\MSVC\14.37.32822\include\sstream
; File C:\Program Files\Microsoft Visual Studio\2022\Community\VC\Tools\MSVC\14.37.32822\include\xstring
; File H:\Paul\switchemulator\Zelda TotK\MapEditorV4\OldVersion\MapEditor\Util.cpp
;	COMDAT ??$StringToNumber@H@Util@@YAHV?$basic_string@DU?$char_traits@D@std@@V?$allocator@D@2@@std@@@Z
_TEXT	SEGMENT
Value$GSCopy$ = 32
Number$ = 40
StringStream$ = 48
__$ArrayPad$ = 288
Value$ = 320
??$StringToNumber@H@Util@@YAHV?$basic_string@DU?$char_traits@D@std@@V?$allocator@D@2@@std@@@Z PROC ; Util::StringToNumber<int>, COMDAT

; 65   : {

$LN20:
	mov	QWORD PTR [rsp+16], rbx
	push	rdi
	sub	rsp, 304				; 00000130H
	mov	rax, QWORD PTR __security_cookie
	xor	rax, rsp
	mov	QWORD PTR __$ArrayPad$[rsp], rax
	mov	rdi, rcx

; 64   : template<> int32_t Util::StringToNumber(std::string Value)

	mov	QWORD PTR Value$GSCopy$[rsp], rcx
	xor	edx, edx
	mov	r8d, 240				; 000000f0H
	lea	rcx, QWORD PTR StringStream$[rsp]
	call	memset

; 66   : 	int32_t Number;
; 67   : 	std::istringstream StringStream(Value);

	mov	rdx, rdi
	lea	rcx, QWORD PTR StringStream$[rsp]
	call	??0?$basic_istringstream@DU?$char_traits@D@std@@V?$allocator@D@2@@std@@QEAA@AEBV?$basic_string@DU?$char_traits@D@std@@V?$allocator@D@2@@1@H@Z ; std::basic_istringstream<char,std::char_traits<char>,std::allocator<char> >::basic_istringstream<char,std::char_traits<char>,std::allocator<char> >
	npad	1

; 68   : 	StringStream >> Number;

	lea	rdx, QWORD PTR Number$[rsp]
	lea	rcx, QWORD PTR StringStream$[rsp]
	call	QWORD PTR __imp_??5?$basic_istream@DU?$char_traits@D@std@@@std@@QEAAAEAV01@AEAH@Z

; 69   : 	return Number;

	mov	ebx, DWORD PTR Number$[rsp]
; File C:\Program Files\Microsoft Visual Studio\2022\Community\VC\Tools\MSVC\14.37.32822\include\sstream

; 613  :     ~basic_istringstream() noexcept override {}

	mov	rax, QWORD PTR StringStream$[rsp]
	movsxd	rcx, DWORD PTR [rax+4]
	lea	rax, OFFSET FLAT:??_7?$basic_istringstream@DU?$char_traits@D@std@@V?$allocator@D@2@@std@@6B@
	mov	QWORD PTR StringStream$[rsp+rcx], rax
	mov	rax, QWORD PTR StringStream$[rsp]
	movsxd	rdx, DWORD PTR [rax+4]
	lea	r8d, DWORD PTR [rdx-144]
	mov	DWORD PTR StringStream$[rsp+rdx-4], r8d

; 109  :     ~basic_stringbuf() noexcept override {

	lea	rax, OFFSET FLAT:??_7?$basic_stringbuf@DU?$char_traits@D@std@@V?$allocator@D@2@@std@@6B@
	mov	QWORD PTR StringStream$[rsp+16], rax

; 110  :         _Tidy();

	lea	rcx, QWORD PTR StringStream$[rsp+16]
	call	?_Tidy@?$basic_stringbuf@DU?$char_traits@D@std@@V?$allocator@D@2@@std@@IEAAXXZ ; std::basic_stringbuf<char,std::char_traits<char>,std::allocator<char> >::_Tidy

; 111  :     }

	lea	rcx, QWORD PTR StringStream$[rsp+16]
	call	QWORD PTR __imp_??1?$basic_streambuf@DU?$char_traits@D@std@@@std@@UEAA@XZ

; 613  :     ~basic_istringstream() noexcept override {}

	lea	rcx, QWORD PTR StringStream$[rsp+24]
	call	QWORD PTR __imp_??1?$basic_istream@DU?$char_traits@D@std@@@std@@UEAA@XZ
	lea	rcx, QWORD PTR StringStream$[rsp+144]
	call	QWORD PTR __imp_??1?$basic_ios@DU?$char_traits@D@std@@@std@@UEAA@XZ
	npad	1
; File C:\Program Files\Microsoft Visual Studio\2022\Community\VC\Tools\MSVC\14.37.32822\include\xstring

; 3119 :         _Tidy_deallocate();

	mov	rcx, rdi
	call	?_Tidy_deallocate@?$basic_string@DU?$char_traits@D@std@@V?$allocator@D@2@@std@@AEAAXXZ ; std::basic_string<char,std::char_traits<char>,std::allocator<char> >::_Tidy_deallocate
; File H:\Paul\switchemulator\Zelda TotK\MapEditorV4\OldVersion\MapEditor\Util.cpp

; 69   : 	return Number;

	mov	eax, ebx

; 70   : }

	mov	rcx, QWORD PTR __$ArrayPad$[rsp]
	xor	rcx, rsp
	call	__security_check_cookie
	mov	rbx, QWORD PTR [rsp+328]
	add	rsp, 304				; 00000130H
	pop	rdi
	ret	0
??$StringToNumber@H@Util@@YAHV?$basic_string@DU?$char_traits@D@std@@V?$allocator@D@2@@std@@@Z ENDP ; Util::StringToNumber<int>
_TEXT	ENDS
; Function compile flags: /Ogtpy
;	COMDAT text$x
text$x	SEGMENT
Value$GSCopy$ = 32
Number$ = 40
StringStream$ = 48
__$ArrayPad$ = 288
Value$ = 320
?dtor$0@?0???$StringToNumber@H@Util@@YAHV?$basic_string@DU?$char_traits@D@std@@V?$allocator@D@2@@std@@@Z@4HA PROC ; `Util::StringToNumber<int>'::`1'::dtor$0
	mov	rcx, QWORD PTR Value$GSCopy$[rdx]
	jmp	??1?$basic_string@DU?$char_traits@D@std@@V?$allocator@D@2@@std@@QEAA@XZ ; std::basic_string<char,std::char_traits<char>,std::allocator<char> >::~basic_string<char,std::char_traits<char>,std::allocator<char> >
?dtor$0@?0???$StringToNumber@H@Util@@YAHV?$basic_string@DU?$char_traits@D@std@@V?$allocator@D@2@@std@@@Z@4HA ENDP ; `Util::StringToNumber<int>'::`1'::dtor$0
text$x	ENDS
; Function compile flags: /Ogtpy
;	COMDAT text$x
text$x	SEGMENT
Value$GSCopy$ = 32
Number$ = 40
StringStream$ = 48
__$ArrayPad$ = 288
Value$ = 320
?dtor$1@?0???$StringToNumber@H@Util@@YAHV?$basic_string@DU?$char_traits@D@std@@V?$allocator@D@2@@std@@@Z@4HA PROC ; `Util::StringToNumber<int>'::`1'::dtor$1
	lea	rcx, QWORD PTR StringStream$[rdx]
	jmp	??_D?$basic_istringstream@DU?$char_traits@D@std@@V?$allocator@D@2@@std@@QEAAXXZ
?dtor$1@?0???$StringToNumber@H@Util@@YAHV?$basic_string@DU?$char_traits@D@std@@V?$allocator@D@2@@std@@@Z@4HA ENDP ; `Util::StringToNumber<int>'::`1'::dtor$1
text$x	ENDS
; Function compile flags: /Ogtpy
; File H:\Paul\switchemulator\Zelda TotK\MapEditorV4\OldVersion\MapEditor\Util.cpp
; File C:\Program Files\Microsoft Visual Studio\2022\Community\VC\Tools\MSVC\14.37.32822\include\sstream
; File C:\Program Files\Microsoft Visual Studio\2022\Community\VC\Tools\MSVC\14.37.32822\include\xstring
; File H:\Paul\switchemulator\Zelda TotK\MapEditorV4\OldVersion\MapEditor\Util.cpp
;	COMDAT ??$StringToNumber@_J@Util@@YA_JV?$basic_string@DU?$char_traits@D@std@@V?$allocator@D@2@@std@@@Z
_TEXT	SEGMENT
Value$GSCopy$ = 32
Number$ = 40
StringStream$ = 48
__$ArrayPad$ = 288
Value$ = 320
??$StringToNumber@_J@Util@@YA_JV?$basic_string@DU?$char_traits@D@std@@V?$allocator@D@2@@std@@@Z PROC ; Util::StringToNumber<__int64>, COMDAT

; 73   : {

$LN20:
	mov	QWORD PTR [rsp+16], rbx
	push	rdi
	sub	rsp, 304				; 00000130H
	mov	rax, QWORD PTR __security_cookie
	xor	rax, rsp
	mov	QWORD PTR __$ArrayPad$[rsp], rax
	mov	rdi, rcx

; 72   : template<> int64_t Util::StringToNumber(std::string Value)

	mov	QWORD PTR Value$GSCopy$[rsp], rcx
	xor	edx, edx
	mov	r8d, 240				; 000000f0H
	lea	rcx, QWORD PTR StringStream$[rsp]
	call	memset

; 74   : 	int64_t Number;
; 75   : 	std::istringstream StringStream(Value);

	mov	rdx, rdi
	lea	rcx, QWORD PTR StringStream$[rsp]
	call	??0?$basic_istringstream@DU?$char_traits@D@std@@V?$allocator@D@2@@std@@QEAA@AEBV?$basic_string@DU?$char_traits@D@std@@V?$allocator@D@2@@1@H@Z ; std::basic_istringstream<char,std::char_traits<char>,std::allocator<char> >::basic_istringstream<char,std::char_traits<char>,std::allocator<char> >
	npad	1

; 76   : 	StringStream >> Number;

	lea	rdx, QWORD PTR Number$[rsp]
	lea	rcx, QWORD PTR StringStream$[rsp]
	call	QWORD PTR __imp_??5?$basic_istream@DU?$char_traits@D@std@@@std@@QEAAAEAV01@AEA_J@Z

; 77   : 	return Number;

	mov	rbx, QWORD PTR Number$[rsp]
; File C:\Program Files\Microsoft Visual Studio\2022\Community\VC\Tools\MSVC\14.37.32822\include\sstream

; 613  :     ~basic_istringstream() noexcept override {}

	mov	rax, QWORD PTR StringStream$[rsp]
	movsxd	rcx, DWORD PTR [rax+4]
	lea	rax, OFFSET FLAT:??_7?$basic_istringstream@DU?$char_traits@D@std@@V?$allocator@D@2@@std@@6B@
	mov	QWORD PTR StringStream$[rsp+rcx], rax
	mov	rax, QWORD PTR StringStream$[rsp]
	movsxd	rdx, DWORD PTR [rax+4]
	lea	r8d, DWORD PTR [rdx-144]
	mov	DWORD PTR StringStream$[rsp+rdx-4], r8d

; 109  :     ~basic_stringbuf() noexcept override {

	lea	rax, OFFSET FLAT:??_7?$basic_stringbuf@DU?$char_traits@D@std@@V?$allocator@D@2@@std@@6B@
	mov	QWORD PTR StringStream$[rsp+16], rax

; 110  :         _Tidy();

	lea	rcx, QWORD PTR StringStream$[rsp+16]
	call	?_Tidy@?$basic_stringbuf@DU?$char_traits@D@std@@V?$allocator@D@2@@std@@IEAAXXZ ; std::basic_stringbuf<char,std::char_traits<char>,std::allocator<char> >::_Tidy

; 111  :     }

	lea	rcx, QWORD PTR StringStream$[rsp+16]
	call	QWORD PTR __imp_??1?$basic_streambuf@DU?$char_traits@D@std@@@std@@UEAA@XZ

; 613  :     ~basic_istringstream() noexcept override {}

	lea	rcx, QWORD PTR StringStream$[rsp+24]
	call	QWORD PTR __imp_??1?$basic_istream@DU?$char_traits@D@std@@@std@@UEAA@XZ
	lea	rcx, QWORD PTR StringStream$[rsp+144]
	call	QWORD PTR __imp_??1?$basic_ios@DU?$char_traits@D@std@@@std@@UEAA@XZ
	npad	1
; File C:\Program Files\Microsoft Visual Studio\2022\Community\VC\Tools\MSVC\14.37.32822\include\xstring

; 3119 :         _Tidy_deallocate();

	mov	rcx, rdi
	call	?_Tidy_deallocate@?$basic_string@DU?$char_traits@D@std@@V?$allocator@D@2@@std@@AEAAXXZ ; std::basic_string<char,std::char_traits<char>,std::allocator<char> >::_Tidy_deallocate
; File H:\Paul\switchemulator\Zelda TotK\MapEditorV4\OldVersion\MapEditor\Util.cpp

; 77   : 	return Number;

	mov	rax, rbx

; 78   : }

	mov	rcx, QWORD PTR __$ArrayPad$[rsp]
	xor	rcx, rsp
	call	__security_check_cookie
	mov	rbx, QWORD PTR [rsp+328]
	add	rsp, 304				; 00000130H
	pop	rdi
	ret	0
??$StringToNumber@_J@Util@@YA_JV?$basic_string@DU?$char_traits@D@std@@V?$allocator@D@2@@std@@@Z ENDP ; Util::StringToNumber<__int64>
_TEXT	ENDS
; Function compile flags: /Ogtpy
;	COMDAT text$x
text$x	SEGMENT
Value$GSCopy$ = 32
Number$ = 40
StringStream$ = 48
__$ArrayPad$ = 288
Value$ = 320
?dtor$0@?0???$StringToNumber@_J@Util@@YA_JV?$basic_string@DU?$char_traits@D@std@@V?$allocator@D@2@@std@@@Z@4HA PROC ; `Util::StringToNumber<__int64>'::`1'::dtor$0
	mov	rcx, QWORD PTR Value$GSCopy$[rdx]
	jmp	??1?$basic_string@DU?$char_traits@D@std@@V?$allocator@D@2@@std@@QEAA@XZ ; std::basic_string<char,std::char_traits<char>,std::allocator<char> >::~basic_string<char,std::char_traits<char>,std::allocator<char> >
?dtor$0@?0???$StringToNumber@_J@Util@@YA_JV?$basic_string@DU?$char_traits@D@std@@V?$allocator@D@2@@std@@@Z@4HA ENDP ; `Util::StringToNumber<__int64>'::`1'::dtor$0
text$x	ENDS
; Function compile flags: /Ogtpy
;	COMDAT text$x
text$x	SEGMENT
Value$GSCopy$ = 32
Number$ = 40
StringStream$ = 48
__$ArrayPad$ = 288
Value$ = 320
?dtor$1@?0???$StringToNumber@_J@Util@@YA_JV?$basic_string@DU?$char_traits@D@std@@V?$allocator@D@2@@std@@@Z@4HA PROC ; `Util::StringToNumber<__int64>'::`1'::dtor$1
	lea	rcx, QWORD PTR StringStream$[rdx]
	jmp	??_D?$basic_istringstream@DU?$char_traits@D@std@@V?$allocator@D@2@@std@@QEAAXXZ
?dtor$1@?0???$StringToNumber@_J@Util@@YA_JV?$basic_string@DU?$char_traits@D@std@@V?$allocator@D@2@@std@@@Z@4HA ENDP ; `Util::StringToNumber<__int64>'::`1'::dtor$1
text$x	ENDS
; Function compile flags: /Ogtpy
; File H:\Paul\switchemulator\Zelda TotK\MapEditorV4\OldVersion\MapEditor\Util.cpp
; File C:\Program Files\Microsoft Visual Studio\2022\Community\VC\Tools\MSVC\14.37.32822\include\sstream
; File C:\Program Files\Microsoft Visual Studio\2022\Community\VC\Tools\MSVC\14.37.32822\include\xstring
; File H:\Paul\switchemulator\Zelda TotK\MapEditorV4\OldVersion\MapEditor\Util.cpp
;	COMDAT ??$StringToNumber@I@Util@@YAIV?$basic_string@DU?$char_traits@D@std@@V?$allocator@D@2@@std@@@Z
_TEXT	SEGMENT
Value$GSCopy$ = 32
Number$ = 40
StringStream$ = 48
__$ArrayPad$ = 288
Value$ = 320
??$StringToNumber@I@Util@@YAIV?$basic_string@DU?$char_traits@D@std@@V?$allocator@D@2@@std@@@Z PROC ; Util::StringToNumber<unsigned int>, COMDAT

; 49   : {

$LN20:
	mov	QWORD PTR [rsp+16], rbx
	push	rdi
	sub	rsp, 304				; 00000130H
	mov	rax, QWORD PTR __security_cookie
	xor	rax, rsp
	mov	QWORD PTR __$ArrayPad$[rsp], rax
	mov	rdi, rcx

; 48   : template<> uint32_t Util::StringToNumber(std::string Value)

	mov	QWORD PTR Value$GSCopy$[rsp], rcx
	xor	edx, edx
	mov	r8d, 240				; 000000f0H
	lea	rcx, QWORD PTR StringStream$[rsp]
	call	memset

; 50   : 	uint32_t Number;
; 51   : 	std::istringstream StringStream(Value);

	mov	rdx, rdi
	lea	rcx, QWORD PTR StringStream$[rsp]
	call	??0?$basic_istringstream@DU?$char_traits@D@std@@V?$allocator@D@2@@std@@QEAA@AEBV?$basic_string@DU?$char_traits@D@std@@V?$allocator@D@2@@1@H@Z ; std::basic_istringstream<char,std::char_traits<char>,std::allocator<char> >::basic_istringstream<char,std::char_traits<char>,std::allocator<char> >
	npad	1

; 52   : 	StringStream >> Number;

	lea	rdx, QWORD PTR Number$[rsp]
	lea	rcx, QWORD PTR StringStream$[rsp]
	call	QWORD PTR __imp_??5?$basic_istream@DU?$char_traits@D@std@@@std@@QEAAAEAV01@AEAI@Z

; 53   : 	return Number;

	mov	ebx, DWORD PTR Number$[rsp]
; File C:\Program Files\Microsoft Visual Studio\2022\Community\VC\Tools\MSVC\14.37.32822\include\sstream

; 613  :     ~basic_istringstream() noexcept override {}

	mov	rax, QWORD PTR StringStream$[rsp]
	movsxd	rcx, DWORD PTR [rax+4]
	lea	rax, OFFSET FLAT:??_7?$basic_istringstream@DU?$char_traits@D@std@@V?$allocator@D@2@@std@@6B@
	mov	QWORD PTR StringStream$[rsp+rcx], rax
	mov	rax, QWORD PTR StringStream$[rsp]
	movsxd	rdx, DWORD PTR [rax+4]
	lea	r8d, DWORD PTR [rdx-144]
	mov	DWORD PTR StringStream$[rsp+rdx-4], r8d

; 109  :     ~basic_stringbuf() noexcept override {

	lea	rax, OFFSET FLAT:??_7?$basic_stringbuf@DU?$char_traits@D@std@@V?$allocator@D@2@@std@@6B@
	mov	QWORD PTR StringStream$[rsp+16], rax

; 110  :         _Tidy();

	lea	rcx, QWORD PTR StringStream$[rsp+16]
	call	?_Tidy@?$basic_stringbuf@DU?$char_traits@D@std@@V?$allocator@D@2@@std@@IEAAXXZ ; std::basic_stringbuf<char,std::char_traits<char>,std::allocator<char> >::_Tidy

; 111  :     }

	lea	rcx, QWORD PTR StringStream$[rsp+16]
	call	QWORD PTR __imp_??1?$basic_streambuf@DU?$char_traits@D@std@@@std@@UEAA@XZ

; 613  :     ~basic_istringstream() noexcept override {}

	lea	rcx, QWORD PTR StringStream$[rsp+24]
	call	QWORD PTR __imp_??1?$basic_istream@DU?$char_traits@D@std@@@std@@UEAA@XZ
	lea	rcx, QWORD PTR StringStream$[rsp+144]
	call	QWORD PTR __imp_??1?$basic_ios@DU?$char_traits@D@std@@@std@@UEAA@XZ
	npad	1
; File C:\Program Files\Microsoft Visual Studio\2022\Community\VC\Tools\MSVC\14.37.32822\include\xstring

; 3119 :         _Tidy_deallocate();

	mov	rcx, rdi
	call	?_Tidy_deallocate@?$basic_string@DU?$char_traits@D@std@@V?$allocator@D@2@@std@@AEAAXXZ ; std::basic_string<char,std::char_traits<char>,std::allocator<char> >::_Tidy_deallocate
; File H:\Paul\switchemulator\Zelda TotK\MapEditorV4\OldVersion\MapEditor\Util.cpp

; 53   : 	return Number;

	mov	eax, ebx

; 54   : }

	mov	rcx, QWORD PTR __$ArrayPad$[rsp]
	xor	rcx, rsp
	call	__security_check_cookie
	mov	rbx, QWORD PTR [rsp+328]
	add	rsp, 304				; 00000130H
	pop	rdi
	ret	0
??$StringToNumber@I@Util@@YAIV?$basic_string@DU?$char_traits@D@std@@V?$allocator@D@2@@std@@@Z ENDP ; Util::StringToNumber<unsigned int>
_TEXT	ENDS
; Function compile flags: /Ogtpy
;	COMDAT text$x
text$x	SEGMENT
Value$GSCopy$ = 32
Number$ = 40
StringStream$ = 48
__$ArrayPad$ = 288
Value$ = 320
?dtor$0@?0???$StringToNumber@I@Util@@YAIV?$basic_string@DU?$char_traits@D@std@@V?$allocator@D@2@@std@@@Z@4HA PROC ; `Util::StringToNumber<unsigned int>'::`1'::dtor$0
	mov	rcx, QWORD PTR Value$GSCopy$[rdx]
	jmp	??1?$basic_string@DU?$char_traits@D@std@@V?$allocator@D@2@@std@@QEAA@XZ ; std::basic_string<char,std::char_traits<char>,std::allocator<char> >::~basic_string<char,std::char_traits<char>,std::allocator<char> >
?dtor$0@?0???$StringToNumber@I@Util@@YAIV?$basic_string@DU?$char_traits@D@std@@V?$allocator@D@2@@std@@@Z@4HA ENDP ; `Util::StringToNumber<unsigned int>'::`1'::dtor$0
text$x	ENDS
; Function compile flags: /Ogtpy
;	COMDAT text$x
text$x	SEGMENT
Value$GSCopy$ = 32
Number$ = 40
StringStream$ = 48
__$ArrayPad$ = 288
Value$ = 320
?dtor$1@?0???$StringToNumber@I@Util@@YAIV?$basic_string@DU?$char_traits@D@std@@V?$allocator@D@2@@std@@@Z@4HA PROC ; `Util::StringToNumber<unsigned int>'::`1'::dtor$1
	lea	rcx, QWORD PTR StringStream$[rdx]
	jmp	??_D?$basic_istringstream@DU?$char_traits@D@std@@V?$allocator@D@2@@std@@QEAAXXZ
?dtor$1@?0???$StringToNumber@I@Util@@YAIV?$basic_string@DU?$char_traits@D@std@@V?$allocator@D@2@@std@@@Z@4HA ENDP ; `Util::StringToNumber<unsigned int>'::`1'::dtor$1
text$x	ENDS
; Function compile flags: /Ogtpy
; File H:\Paul\switchemulator\Zelda TotK\MapEditorV4\OldVersion\MapEditor\Util.cpp
; File C:\Program Files\Microsoft Visual Studio\2022\Community\VC\Tools\MSVC\14.37.32822\include\sstream
; File C:\Program Files\Microsoft Visual Studio\2022\Community\VC\Tools\MSVC\14.37.32822\include\xstring
; File H:\Paul\switchemulator\Zelda TotK\MapEditorV4\OldVersion\MapEditor\Util.cpp
;	COMDAT ??$StringToNumber@_K@Util@@YA_KV?$basic_string@DU?$char_traits@D@std@@V?$allocator@D@2@@std@@@Z
_TEXT	SEGMENT
Value$GSCopy$ = 32
Number$ = 40
StringStream$ = 48
__$ArrayPad$ = 288
Value$ = 320
??$StringToNumber@_K@Util@@YA_KV?$basic_string@DU?$char_traits@D@std@@V?$allocator@D@2@@std@@@Z PROC ; Util::StringToNumber<unsigned __int64>, COMDAT

; 57   : {

$LN20:
	mov	QWORD PTR [rsp+16], rbx
	push	rdi
	sub	rsp, 304				; 00000130H
	mov	rax, QWORD PTR __security_cookie
	xor	rax, rsp
	mov	QWORD PTR __$ArrayPad$[rsp], rax
	mov	rdi, rcx

; 56   : template<> uint64_t Util::StringToNumber(std::string Value)

	mov	QWORD PTR Value$GSCopy$[rsp], rcx
	xor	edx, edx
	mov	r8d, 240				; 000000f0H
	lea	rcx, QWORD PTR StringStream$[rsp]
	call	memset

; 58   : 	uint64_t Number;
; 59   : 	std::istringstream StringStream(Value);

	mov	rdx, rdi
	lea	rcx, QWORD PTR StringStream$[rsp]
	call	??0?$basic_istringstream@DU?$char_traits@D@std@@V?$allocator@D@2@@std@@QEAA@AEBV?$basic_string@DU?$char_traits@D@std@@V?$allocator@D@2@@1@H@Z ; std::basic_istringstream<char,std::char_traits<char>,std::allocator<char> >::basic_istringstream<char,std::char_traits<char>,std::allocator<char> >
	npad	1

; 60   : 	StringStream >> Number;

	lea	rdx, QWORD PTR Number$[rsp]
	lea	rcx, QWORD PTR StringStream$[rsp]
	call	QWORD PTR __imp_??5?$basic_istream@DU?$char_traits@D@std@@@std@@QEAAAEAV01@AEA_K@Z

; 61   : 	return Number;

	mov	rbx, QWORD PTR Number$[rsp]
; File C:\Program Files\Microsoft Visual Studio\2022\Community\VC\Tools\MSVC\14.37.32822\include\sstream

; 613  :     ~basic_istringstream() noexcept override {}

	mov	rax, QWORD PTR StringStream$[rsp]
	movsxd	rcx, DWORD PTR [rax+4]
	lea	rax, OFFSET FLAT:??_7?$basic_istringstream@DU?$char_traits@D@std@@V?$allocator@D@2@@std@@6B@
	mov	QWORD PTR StringStream$[rsp+rcx], rax
	mov	rax, QWORD PTR StringStream$[rsp]
	movsxd	rdx, DWORD PTR [rax+4]
	lea	r8d, DWORD PTR [rdx-144]
	mov	DWORD PTR StringStream$[rsp+rdx-4], r8d

; 109  :     ~basic_stringbuf() noexcept override {

	lea	rax, OFFSET FLAT:??_7?$basic_stringbuf@DU?$char_traits@D@std@@V?$allocator@D@2@@std@@6B@
	mov	QWORD PTR StringStream$[rsp+16], rax

; 110  :         _Tidy();

	lea	rcx, QWORD PTR StringStream$[rsp+16]
	call	?_Tidy@?$basic_stringbuf@DU?$char_traits@D@std@@V?$allocator@D@2@@std@@IEAAXXZ ; std::basic_stringbuf<char,std::char_traits<char>,std::allocator<char> >::_Tidy

; 111  :     }

	lea	rcx, QWORD PTR StringStream$[rsp+16]
	call	QWORD PTR __imp_??1?$basic_streambuf@DU?$char_traits@D@std@@@std@@UEAA@XZ

; 613  :     ~basic_istringstream() noexcept override {}

	lea	rcx, QWORD PTR StringStream$[rsp+24]
	call	QWORD PTR __imp_??1?$basic_istream@DU?$char_traits@D@std@@@std@@UEAA@XZ
	lea	rcx, QWORD PTR StringStream$[rsp+144]
	call	QWORD PTR __imp_??1?$basic_ios@DU?$char_traits@D@std@@@std@@UEAA@XZ
	npad	1
; File C:\Program Files\Microsoft Visual Studio\2022\Community\VC\Tools\MSVC\14.37.32822\include\xstring

; 3119 :         _Tidy_deallocate();

	mov	rcx, rdi
	call	?_Tidy_deallocate@?$basic_string@DU?$char_traits@D@std@@V?$allocator@D@2@@std@@AEAAXXZ ; std::basic_string<char,std::char_traits<char>,std::allocator<char> >::_Tidy_deallocate
; File H:\Paul\switchemulator\Zelda TotK\MapEditorV4\OldVersion\MapEditor\Util.cpp

; 61   : 	return Number;

	mov	rax, rbx

; 62   : }

	mov	rcx, QWORD PTR __$ArrayPad$[rsp]
	xor	rcx, rsp
	call	__security_check_cookie
	mov	rbx, QWORD PTR [rsp+328]
	add	rsp, 304				; 00000130H
	pop	rdi
	ret	0
??$StringToNumber@_K@Util@@YA_KV?$basic_string@DU?$char_traits@D@std@@V?$allocator@D@2@@std@@@Z ENDP ; Util::StringToNumber<unsigned __int64>
_TEXT	ENDS
; Function compile flags: /Ogtpy
;	COMDAT text$x
text$x	SEGMENT
Value$GSCopy$ = 32
Number$ = 40
StringStream$ = 48
__$ArrayPad$ = 288
Value$ = 320
?dtor$0@?0???$StringToNumber@_K@Util@@YA_KV?$basic_string@DU?$char_traits@D@std@@V?$allocator@D@2@@std@@@Z@4HA PROC ; `Util::StringToNumber<unsigned __int64>'::`1'::dtor$0
	mov	rcx, QWORD PTR Value$GSCopy$[rdx]
	jmp	??1?$basic_string@DU?$char_traits@D@std@@V?$allocator@D@2@@std@@QEAA@XZ ; std::basic_string<char,std::char_traits<char>,std::allocator<char> >::~basic_string<char,std::char_traits<char>,std::allocator<char> >
?dtor$0@?0???$StringToNumber@_K@Util@@YA_KV?$basic_string@DU?$char_traits@D@std@@V?$allocator@D@2@@std@@@Z@4HA ENDP ; `Util::StringToNumber<unsigned __int64>'::`1'::dtor$0
text$x	ENDS
; Function compile flags: /Ogtpy
;	COMDAT text$x
text$x	SEGMENT
Value$GSCopy$ = 32
Number$ = 40
StringStream$ = 48
__$ArrayPad$ = 288
Value$ = 320
?dtor$1@?0???$StringToNumber@_K@Util@@YA_KV?$basic_string@DU?$char_traits@D@std@@V?$allocator@D@2@@std@@@Z@4HA PROC ; `Util::StringToNumber<unsigned __int64>'::`1'::dtor$1
	lea	rcx, QWORD PTR StringStream$[rdx]
	jmp	??_D?$basic_istringstream@DU?$char_traits@D@std@@V?$allocator@D@2@@std@@QEAAXXZ
?dtor$1@?0???$StringToNumber@_K@Util@@YA_KV?$basic_string@DU?$char_traits@D@std@@V?$allocator@D@2@@std@@@Z@4HA ENDP ; `Util::StringToNumber<unsigned __int64>'::`1'::dtor$1
text$x	ENDS
; Function compile flags: /Ogtpy
; File H:\Paul\switchemulator\Zelda TotK\MapEditorV4\OldVersion\MapEditor\Util.cpp
; File H:\Paul\switchemulator\Zelda TotK\MapEditorV4\OldVersion\MapEditor\Libraries\include\glm\detail\func_trigonometric.inl
; File H:\Paul\switchemulator\Zelda TotK\MapEditorV4\OldVersion\MapEditor\Util.cpp
;	COMDAT ?RadiansToDegrees@Util@@YAMM@Z
_TEXT	SEGMENT
Radians$ = 8
?RadiansToDegrees@Util@@YAMM@Z PROC			; Util::RadiansToDegrees, COMDAT
; File H:\Paul\switchemulator\Zelda TotK\MapEditorV4\OldVersion\MapEditor\Libraries\include\glm\detail\func_trigonometric.inl

; 28   : 		return radians * static_cast<genType>(57.295779513082320876798154814105);

	mulss	xmm0, DWORD PTR __real@42652ee1
; File H:\Paul\switchemulator\Zelda TotK\MapEditorV4\OldVersion\MapEditor\Util.cpp

; 13   : }

	ret	0
?RadiansToDegrees@Util@@YAMM@Z ENDP			; Util::RadiansToDegrees
_TEXT	ENDS
; Function compile flags: /Ogtpy
; File H:\Paul\switchemulator\Zelda TotK\MapEditorV4\OldVersion\MapEditor\Util.cpp
; File C:\Program Files\Microsoft Visual Studio\2022\Community\VC\Tools\MSVC\14.37.32822\include\memory
; File C:\Program Files\Microsoft Visual Studio\2022\Community\VC\Tools\MSVC\14.37.32822\include\filesystem
; File C:\Program Files\Microsoft Visual Studio\2022\Community\VC\Tools\MSVC\14.37.32822\include\xstring
; File C:\Program Files\Microsoft Visual Studio\2022\Community\VC\Tools\MSVC\14.37.32822\include\memory
; File H:\Paul\switchemulator\Zelda TotK\MapEditorV4\OldVersion\MapEditor\Util.cpp
; File C:\Program Files\Microsoft Visual Studio\2022\Community\VC\Tools\MSVC\14.37.32822\include\filesystem
; File H:\Paul\switchemulator\Zelda TotK\MapEditorV4\OldVersion\MapEditor\Util.cpp
; File C:\Program Files\Microsoft Visual Studio\2022\Community\VC\Tools\MSVC\14.37.32822\include\xstring
; File C:\Program Files\Microsoft Visual Studio\2022\Community\VC\Tools\MSVC\14.37.32822\include\filesystem
; File C:\Program Files\Microsoft Visual Studio\2022\Community\VC\Tools\MSVC\14.37.32822\include\system_error
; File C:\Program Files\Microsoft Visual Studio\2022\Community\VC\Tools\MSVC\14.37.32822\include\filesystem
; File C:\Program Files\Microsoft Visual Studio\2022\Community\VC\Tools\MSVC\14.37.32822\include\xfilesystem_abi.h
; File C:\Program Files\Microsoft Visual Studio\2022\Community\VC\Tools\MSVC\14.37.32822\include\filesystem
; File C:\Program Files\Microsoft Visual Studio\2022\Community\VC\Tools\MSVC\14.37.32822\include\memory
; File C:\Program Files\Microsoft Visual Studio\2022\Community\VC\Tools\MSVC\14.37.32822\include\filesystem
; File C:\Program Files\Microsoft Visual Studio\2022\Community\VC\Tools\MSVC\14.37.32822\include\system_error
; File C:\Program Files\Microsoft Visual Studio\2022\Community\VC\Tools\MSVC\14.37.32822\include\filesystem
; File C:\Program Files\Microsoft Visual Studio\2022\Community\VC\Tools\MSVC\14.37.32822\include\memory
; File C:\Program Files\Microsoft Visual Studio\2022\Community\VC\Tools\MSVC\14.37.32822\include\filesystem
; File H:\Paul\switchemulator\Zelda TotK\MapEditorV4\OldVersion\MapEditor\Util.cpp
; File C:\Program Files\Microsoft Visual Studio\2022\Community\VC\Tools\MSVC\14.37.32822\include\xstring
; File C:\Program Files\Microsoft Visual Studio\2022\Community\VC\Tools\MSVC\14.37.32822\include\filesystem
; File C:\Program Files\Microsoft Visual Studio\2022\Community\VC\Tools\MSVC\14.37.32822\include\algorithm
; File C:\Program Files\Microsoft Visual Studio\2022\Community\VC\Tools\MSVC\14.37.32822\include\xfilesystem_abi.h
; File C:\Program Files\Microsoft Visual Studio\2022\Community\VC\Tools\MSVC\14.37.32822\include\algorithm
; File C:\Program Files\Microsoft Visual Studio\2022\Community\VC\Tools\MSVC\14.37.32822\include\filesystem
; File C:\Program Files\Microsoft Visual Studio\2022\Community\VC\Tools\MSVC\14.37.32822\include\xfilesystem_abi.h
; File C:\Program Files\Microsoft Visual Studio\2022\Community\VC\Tools\MSVC\14.37.32822\include\filesystem
; File C:\Program Files\Microsoft Visual Studio\2022\Community\VC\Tools\MSVC\14.37.32822\include\xstring
; File C:\Program Files\Microsoft Visual Studio\2022\Community\VC\Tools\MSVC\14.37.32822\include\filesystem
; File C:\Program Files\Microsoft Visual Studio\2022\Community\VC\Tools\MSVC\14.37.32822\include\xstring
; File C:\Program Files\Microsoft Visual Studio\2022\Community\VC\Tools\MSVC\14.37.32822\include\filesystem
; File C:\Program Files\Microsoft Visual Studio\2022\Community\VC\Tools\MSVC\14.37.32822\include\xstring
; File C:\Program Files\Microsoft Visual Studio\2022\Community\VC\Tools\MSVC\14.37.32822\include\chrono
; File C:\Program Files\Microsoft Visual Studio\2022\Community\VC\Tools\MSVC\14.37.32822\include\xstring
; File C:\Program Files\Microsoft Visual Studio\2022\Community\VC\Tools\MSVC\14.37.32822\include\chrono
; File C:\Program Files\Microsoft Visual Studio\2022\Community\VC\Tools\MSVC\14.37.32822\include\filesystem
; File C:\Program Files\Microsoft Visual Studio\2022\Community\VC\Tools\MSVC\14.37.32822\include\xstring
; File C:\Program Files\Microsoft Visual Studio\2022\Community\VC\Tools\MSVC\14.37.32822\include\filesystem
; File C:\Program Files\Microsoft Visual Studio\2022\Community\VC\Tools\MSVC\14.37.32822\include\xstring
; File C:\Program Files\Microsoft Visual Studio\2022\Community\VC\Tools\MSVC\14.37.32822\include\filesystem
; File C:\Program Files\Microsoft Visual Studio\2022\Community\VC\Tools\MSVC\14.37.32822\include\xstring
; File C:\Program Files\Microsoft Visual Studio\2022\Community\VC\Tools\MSVC\14.37.32822\include\filesystem
; File C:\Program Files\Microsoft Visual Studio\2022\Community\VC\Tools\MSVC\14.37.32822\include\chrono
; File C:\Program Files\Microsoft Visual Studio\2022\Community\VC\Tools\MSVC\14.37.32822\include\filesystem
; File C:\Program Files\Microsoft Visual Studio\2022\Community\VC\Tools\MSVC\14.37.32822\include\xstring
; File C:\Program Files\Microsoft Visual Studio\2022\Community\VC\Tools\MSVC\14.37.32822\include\filesystem
; File C:\Program Files\Microsoft Visual Studio\2022\Community\VC\Tools\MSVC\14.37.32822\include\chrono
; File C:\Program Files\Microsoft Visual Studio\2022\Community\VC\Tools\MSVC\14.37.32822\include\filesystem
; File C:\Program Files\Microsoft Visual Studio\2022\Community\VC\Tools\MSVC\14.37.32822\include\system_error
; File C:\Program Files\Microsoft Visual Studio\2022\Community\VC\Tools\MSVC\14.37.32822\include\filesystem
; File C:\Program Files\Microsoft Visual Studio\2022\Community\VC\Tools\MSVC\14.37.32822\include\system_error
; File C:\Program Files\Microsoft Visual Studio\2022\Community\VC\Tools\MSVC\14.37.32822\include\xstring
; File C:\Program Files\Microsoft Visual Studio\2022\Community\VC\Tools\MSVC\14.37.32822\include\filesystem
; File C:\Program Files\Microsoft Visual Studio\2022\Community\VC\Tools\MSVC\14.37.32822\include\xfilesystem_abi.h
; File C:\Program Files\Microsoft Visual Studio\2022\Community\VC\Tools\MSVC\14.37.32822\include\filesystem
; File C:\Program Files\Microsoft Visual Studio\2022\Community\VC\Tools\MSVC\14.37.32822\include\xfilesystem_abi.h
; File C:\Program Files\Microsoft Visual Studio\2022\Community\VC\Tools\MSVC\14.37.32822\include\system_error
; File C:\Program Files\Microsoft Visual Studio\2022\Community\VC\Tools\MSVC\14.37.32822\include\filesystem
; File C:\Program Files\Microsoft Visual Studio\2022\Community\VC\Tools\MSVC\14.37.32822\include\xstring
; File C:\Program Files\Microsoft Visual Studio\2022\Community\VC\Tools\MSVC\14.37.32822\include\filesystem
; File C:\Program Files\Microsoft Visual Studio\2022\Community\VC\Tools\MSVC\14.37.32822\include\system_error
; File C:\Program Files\Microsoft Visual Studio\2022\Community\VC\Tools\MSVC\14.37.32822\include\filesystem
; File C:\Program Files\Microsoft Visual Studio\2022\Community\VC\Tools\MSVC\14.37.32822\include\xstring
; File C:\Program Files\Microsoft Visual Studio\2022\Community\VC\Tools\MSVC\14.37.32822\include\xmemory
; File C:\Program Files\Microsoft Visual Studio\2022\Community\VC\Tools\MSVC\14.37.32822\include\xstring
; File C:\Program Files\Microsoft Visual Studio\2022\Community\VC\Tools\MSVC\14.37.32822\include\xmemory
; File C:\Program Files\Microsoft Visual Studio\2022\Community\VC\Tools\MSVC\14.37.32822\include\xstring
; File C:\Program Files\Microsoft Visual Studio\2022\Community\VC\Tools\MSVC\14.37.32822\include\xmemory
; File C:\Program Files\Microsoft Visual Studio\2022\Community\VC\Tools\MSVC\14.37.32822\include\xstring
; File H:\Paul\switchemulator\Zelda TotK\MapEditorV4\OldVersion\MapEditor\Util.cpp
; File C:\Program Files\Microsoft Visual Studio\2022\Community\VC\Tools\MSVC\14.37.32822\include\filesystem
; File C:\Program Files\Microsoft Visual Studio\2022\Community\VC\Tools\MSVC\14.37.32822\include\xmemory
; File C:\Program Files\Microsoft Visual Studio\2022\Community\VC\Tools\MSVC\14.37.32822\include\memory
; File H:\Paul\switchemulator\Zelda TotK\MapEditorV4\OldVersion\MapEditor\Util.cpp
; File C:\Program Files\Microsoft Visual Studio\2022\Community\VC\Tools\MSVC\14.37.32822\include\filesystem
; File C:\Program Files\Microsoft Visual Studio\2022\Community\VC\Tools\MSVC\14.37.32822\include\chrono
; File C:\Program Files\Microsoft Visual Studio\2022\Community\VC\Tools\MSVC\14.37.32822\include\filesystem
; File C:\Program Files\Microsoft Visual Studio\2022\Community\VC\Tools\MSVC\14.37.32822\include\xstring
; File H:\Paul\switchemulator\Zelda TotK\MapEditorV4\OldVersion\MapEditor\Util.cpp
;	COMDAT ?CopyDirectoryRecursively@Util@@YAXAEBV?$basic_string@DU?$char_traits@D@std@@V?$allocator@D@2@@std@@0@Z
_TEXT	SEGMENT
$T3 = 64
tv1364 = 72
tv1311 = 72
tv992 = 72
tv937 = 72
$T4 = 80
$T5 = 112
$T6 = 120
$T7 = 152
$T8 = 184
DestinationPath$GSCopy$1$ = 216
_Result$9 = 224
$T10 = 240
$T11 = 256
$T12 = 272
__$ReturnUdt$ = 288
$T13 = 296
$T14 = 328
_Ec$15 = 400
$S8$16 = 416
_Iter$17 = 432
<begin>$L0$18 = 448
_Ec$19 = 464
_From_dir$20 = 480
<end>$L0$21 = 544
_Stats$22 = 560
__$ArrayPad$ = 592
SourcePath$ = 672
DestinationPath$ = 680
?CopyDirectoryRecursively@Util@@YAXAEBV?$basic_string@DU?$char_traits@D@std@@V?$allocator@D@2@@std@@0@Z PROC ; Util::CopyDirectoryRecursively, COMDAT

; 89   : {

$LN761:
	mov	QWORD PTR [rsp+24], rbx
	push	rbp
	push	rsi
	push	rdi
	push	r12
	push	r13
	push	r14
	push	r15
	lea	rbp, QWORD PTR [rsp-352]
	sub	rsp, 608				; 00000260H
	mov	rax, QWORD PTR __security_cookie
	xor	rax, rsp
	mov	QWORD PTR __$ArrayPad$[rbp-256], rax
	mov	QWORD PTR DestinationPath$GSCopy$1$[rbp-256], rdx
	xor	r15d, r15d
	mov	r13d, r15d
	mov	DWORD PTR $T3[rsp], r15d

; 90   : 	for (const auto& Entry : std::filesystem::directory_iterator(SourcePath))

	mov	rdx, rcx
	lea	rcx, QWORD PTR $T13[rbp-256]
	call	??$?0V?$basic_string@DU?$char_traits@D@std@@V?$allocator@D@2@@std@@$0A@@path@filesystem@std@@QEAA@AEBV?$basic_string@DU?$char_traits@D@std@@V?$allocator@D@2@@2@W4format@012@@Z ; std::filesystem::path::path<std::basic_string<char,std::char_traits<char>,std::allocator<char> >,0>
	npad	1
	xorps	xmm0, xmm0
; File C:\Program Files\Microsoft Visual Studio\2022\Community\VC\Tools\MSVC\14.37.32822\include\memory

; 1470 :     element_type* _Ptr{nullptr};

	movdqa	XMMWORD PTR $S8$16[rbp-256], xmm0
; File C:\Program Files\Microsoft Visual Studio\2022\Community\VC\Tools\MSVC\14.37.32822\include\filesystem

; 2619 :             const auto _Error = _Dir_enum_impl::_Initialize_dir_enum(_Impl, _Path);

	lea	rdx, QWORD PTR $T13[rbp-256]
	lea	rcx, QWORD PTR $S8$16[rbp-256]
	call	??$_Initialize_dir_enum@U_Dir_enum_impl@filesystem@std@@@_Dir_enum_impl@filesystem@std@@SA?AW4__std_win_error@@AEAV?$shared_ptr@U_Dir_enum_impl@filesystem@std@@@2@AEBVpath@12@W4directory_options@12@@Z ; std::filesystem::_Dir_enum_impl::_Initialize_dir_enum<std::filesystem::_Dir_enum_impl>

; 2620 :             if (_Error != __std_win_error::_Success) {

	test	eax, eax
	jne	$LN759@CopyDirect
; File C:\Program Files\Microsoft Visual Studio\2022\Community\VC\Tools\MSVC\14.37.32822\include\xstring

; 3119 :         _Tidy_deallocate();

	lea	rcx, QWORD PTR $T13[rbp-256]
	call	?_Tidy_deallocate@?$basic_string@_WU?$char_traits@_W@std@@V?$allocator@_W@2@@std@@AEAAXXZ ; std::basic_string<wchar_t,std::char_traits<wchar_t>,std::allocator<wchar_t> >::_Tidy_deallocate
	xorps	xmm0, xmm0
	movups	XMMWORD PTR <begin>$L0$18[rbp-256], xmm0
; File C:\Program Files\Microsoft Visual Studio\2022\Community\VC\Tools\MSVC\14.37.32822\include\memory

; 1396 :         if (_Rep) {

	mov	rcx, QWORD PTR $S8$16[rbp-248]
	test	rcx, rcx
	je	SHORT $LN732@CopyDirect

; 1169 :         _MT_INCR(_Uses);

	lock inc DWORD PTR [rcx+8]
	mov	rcx, QWORD PTR $S8$16[rbp-248]
	mov	r13d, DWORD PTR $T3[rsp]
$LN732@CopyDirect:

; 1345 :         _Ptr = _Right._Ptr;

	movaps	xmm0, XMMWORD PTR $S8$16[rbp-256]
	movdqa	XMMWORD PTR <begin>$L0$18[rbp-256], xmm0

; 1396 :         if (_Rep) {

	test	rcx, rcx
	je	SHORT $LN670@CopyDirect

; 1169 :         _MT_INCR(_Uses);

	lock inc DWORD PTR [rcx+8]
	mov	rcx, QWORD PTR $S8$16[rbp-248]
	mov	r13d, DWORD PTR $T3[rsp]
$LN670@CopyDirect:
	xorps	xmm1, xmm1

; 1470 :     element_type* _Ptr{nullptr};

	movdqu	XMMWORD PTR <end>$L0$21[rbp-256], xmm1

; 1402 :         if (_Rep) {

	mov	esi, -1
	test	rcx, rcx
	je	SHORT $LN693@CopyDirect

; 1177 :         if (_MT_DECR(_Uses) == 0) {

	mov	eax, esi
	lock xadd DWORD PTR [rcx+8], eax
	cmp	eax, 1
	jne	SHORT $LN750@CopyDirect

; 1178 :             _Destroy();

	mov	rbx, QWORD PTR $S8$16[rbp-248]
	mov	rax, QWORD PTR [rbx]
	mov	rcx, rbx
	call	QWORD PTR [rax]

; 1184 :         if (_MT_DECR(_Weaks) == 0) {

	mov	eax, esi
	lock xadd DWORD PTR [rbx+12], eax
	cmp	eax, 1
	jne	SHORT $LN750@CopyDirect

; 1185 :             _Delete_this();

	mov	rcx, QWORD PTR $S8$16[rbp-248]
	mov	rax, QWORD PTR [rcx]
	call	QWORD PTR [rax+8]
$LN750@CopyDirect:
; File H:\Paul\switchemulator\Zelda TotK\MapEditorV4\OldVersion\MapEditor\Util.cpp

; 90   : 	for (const auto& Entry : std::filesystem::directory_iterator(SourcePath))

	mov	r13d, DWORD PTR $T3[rsp]
$LN693@CopyDirect:
	lea	rdi, OFFSET FLAT:?_Static@?1???$_Immortalize_memcpy_image@V_System_error_category@std@@@std@@YAAEBV_System_error_category@1@XZ@4V21@B ; `std::_Immortalize_memcpy_image<std::_System_error_category>'::`2'::_Static
	mov	r12, 9223372036854775806		; 7ffffffffffffffeH
	npad	15
$LL23@CopyDirect:
	mov	rbx, QWORD PTR <begin>$L0$18[rbp-256]
	test	rbx, rbx
	je	$LN3@CopyDirect
; File C:\Program Files\Microsoft Visual Studio\2022\Community\VC\Tools\MSVC\14.37.32822\include\filesystem

; 2381 :             const auto _Result = _Get_any_status(_Status_stats_flags);

	mov	r8d, 3
	lea	rdx, QWORD PTR _Result$9[rbp-256]
	mov	rcx, rbx
	call	?_Get_any_status@directory_entry@filesystem@std@@AEBA?AU_File_status_and_error@23@W4__std_fs_stats_flags@@@Z ; std::filesystem::directory_entry::_Get_any_status

; 2065 :             return _Error != __std_win_error::_Success && _Status.type() != file_type::not_found

	mov	rax, QWORD PTR _Result$9[rbp-256]
	mov	edx, DWORD PTR _Result$9[rbp-248]
	test	edx, edx
	je	SHORT $LN33@CopyDirect
	lea	ecx, DWORD PTR [rax-1]
	test	ecx, -9					; fffffff7H
	jne	$LN743@CopyDirect
$LN33@CopyDirect:
; File H:\Paul\switchemulator\Zelda TotK\MapEditorV4\OldVersion\MapEditor\Util.cpp

; 92   : 		if (Entry.is_directory() && !std::filesystem::is_empty(Entry))

	cmp	eax, 3
	jne	$LN2@CopyDirect
	add	rbx, 32					; 00000020H
	mov	QWORD PTR $T5[rsp], rbx
; File C:\Program Files\Microsoft Visual Studio\2022\Community\VC\Tools\MSVC\14.37.32822\include\xstring

; 2235 :         const value_type* _Result = _Bx._Buf;

	mov	rcx, rbx

; 2236 :         if (_Large_string_engaged()) {

	cmp	QWORD PTR [rbx+24], 8
	jb	SHORT $LN744@CopyDirect

; 2237 :             _Result = _Unfancy(_Bx._Ptr);

	mov	rcx, QWORD PTR [rbx]
$LN744@CopyDirect:
; File C:\Program Files\Microsoft Visual Studio\2022\Community\VC\Tools\MSVC\14.37.32822\include\filesystem

; 3543 :         const auto _Error = __std_fs_get_stats(_Path.c_str(), &_Stats, _Flags);

	mov	r9d, -1					; ffffffffH
	mov	r8d, 11
	lea	rdx, QWORD PTR _Stats$22[rbp-256]
	call	__std_fs_get_stats
; File C:\Program Files\Microsoft Visual Studio\2022\Community\VC\Tools\MSVC\14.37.32822\include\system_error

; 168  :     error_code(int _Val, const error_category& _Cat) noexcept : _Myval(_Val), _Mycat(&_Cat) {}

	mov	DWORD PTR $T10[rbp-256], eax
	mov	QWORD PTR $T10[rbp-248], rdi
; File C:\Program Files\Microsoft Visual Studio\2022\Community\VC\Tools\MSVC\14.37.32822\include\filesystem

; 3544 :         _Ec               = _Make_ec(_Error);

	movaps	xmm0, XMMWORD PTR $T10[rbp-256]
	movdqa	XMMWORD PTR _Ec$19[rbp-256], xmm0

; 3545 :         if (_Error != __std_win_error::_Success) {

	test	eax, eax
	je	SHORT $LN88@CopyDirect

; 3546 :             return false;

	xor	dil, dil
	jmp	$LN90@CopyDirect
$LN88@CopyDirect:
; File C:\Program Files\Microsoft Visual Studio\2022\Community\VC\Tools\MSVC\14.37.32822\include\xfilesystem_abi.h

; 82   : _BITMASK_OPS(_EMPTY_ARGUMENT, __std_fs_file_attr)

	test	DWORD PTR _Stats$22[rbp-240], 16
; File C:\Program Files\Microsoft Visual Studio\2022\Community\VC\Tools\MSVC\14.37.32822\include\filesystem

; 3549 :         if ((_Stats._Attributes & __std_fs_file_attr::_Directory) == __std_fs_file_attr{}) {

	jne	SHORT $LN89@CopyDirect

; 3550 :             return _Stats._File_size == 0;

	cmp	QWORD PTR _Stats$22[rbp-248], 0
	sete	dil
	jmp	$LN90@CopyDirect
$LN89@CopyDirect:
	xorps	xmm1, xmm1
; File C:\Program Files\Microsoft Visual Studio\2022\Community\VC\Tools\MSVC\14.37.32822\include\memory

; 1470 :     element_type* _Ptr{nullptr};

	movdqu	XMMWORD PTR _Iter$17[rbp-256], xmm1
; File C:\Program Files\Microsoft Visual Studio\2022\Community\VC\Tools\MSVC\14.37.32822\include\filesystem

; 2633 :             _Ec = _Make_ec(_Dir_enum_impl::_Initialize_dir_enum(_Impl, _Path));

	mov	rdx, rbx
	lea	rcx, QWORD PTR _Iter$17[rbp-256]
	call	??$_Initialize_dir_enum@U_Dir_enum_impl@filesystem@std@@@_Dir_enum_impl@filesystem@std@@SA?AW4__std_win_error@@AEAV?$shared_ptr@U_Dir_enum_impl@filesystem@std@@@2@AEBVpath@12@W4directory_options@12@@Z ; std::filesystem::_Dir_enum_impl::_Initialize_dir_enum<std::filesystem::_Dir_enum_impl>
; File C:\Program Files\Microsoft Visual Studio\2022\Community\VC\Tools\MSVC\14.37.32822\include\system_error

; 168  :     error_code(int _Val, const error_category& _Cat) noexcept : _Myval(_Val), _Mycat(&_Cat) {}

	mov	DWORD PTR $T11[rbp-256], eax
	mov	QWORD PTR $T11[rbp-248], rdi
; File C:\Program Files\Microsoft Visual Studio\2022\Community\VC\Tools\MSVC\14.37.32822\include\filesystem

; 2633 :             _Ec = _Make_ec(_Dir_enum_impl::_Initialize_dir_enum(_Impl, _Path));

	movaps	xmm0, XMMWORD PTR $T11[rbp-256]
	movdqa	XMMWORD PTR _Ec$19[rbp-256], xmm0

; 2634 :         }

	test	eax, eax

; 3553 :             return !_Ec && _Iter._At_end();

	jne	SHORT $LN92@CopyDirect
	cmp	QWORD PTR _Iter$17[rbp-256], 0
	jne	SHORT $LN92@CopyDirect
	mov	dil, 1
	jmp	SHORT $LN93@CopyDirect
$LN92@CopyDirect:
	xor	dil, dil
$LN93@CopyDirect:
; File C:\Program Files\Microsoft Visual Studio\2022\Community\VC\Tools\MSVC\14.37.32822\include\memory

; 1402 :         if (_Rep) {

	mov	rcx, QWORD PTR _Iter$17[rbp-248]
	test	rcx, rcx
	je	SHORT $LN141@CopyDirect

; 1177 :         if (_MT_DECR(_Uses) == 0) {

	mov	eax, esi
	lock xadd DWORD PTR [rcx+8], eax
	cmp	eax, 1
	jne	SHORT $LN751@CopyDirect

; 1178 :             _Destroy();

	mov	rbx, QWORD PTR _Iter$17[rbp-248]
	mov	rax, QWORD PTR [rbx]
	mov	rcx, rbx
	call	QWORD PTR [rax]

; 1184 :         if (_MT_DECR(_Weaks) == 0) {

	mov	eax, esi
	lock xadd DWORD PTR [rbx+12], eax
	cmp	eax, 1
	jne	SHORT $LN751@CopyDirect

; 1185 :             _Delete_this();

	mov	rcx, QWORD PTR _Iter$17[rbp-248]
	mov	rax, QWORD PTR [rcx]
	call	QWORD PTR [rax+8]
$LN751@CopyDirect:

; 1179 :             _Decwref();
; 1180 :         }
; 1181 :     }
; 1182 : 
; 1183 :     void _Decwref() noexcept { // decrement weak reference count
; 1184 :         if (_MT_DECR(_Weaks) == 0) {

	mov	r13d, DWORD PTR $T3[rsp]
$LN141@CopyDirect:
	mov	rbx, QWORD PTR $T5[rsp]
$LN90@CopyDirect:
; File C:\Program Files\Microsoft Visual Studio\2022\Community\VC\Tools\MSVC\14.37.32822\include\filesystem

; 3561 :         if (_Ec) {

	cmp	DWORD PTR _Ec$19[rbp-256], 0
	jne	$LN705@CopyDirect
; File H:\Paul\switchemulator\Zelda TotK\MapEditorV4\OldVersion\MapEditor\Util.cpp

; 92   : 		if (Entry.is_directory() && !std::filesystem::is_empty(Entry))

	test	dil, dil
	jne	$LN754@CopyDirect
; File C:\Program Files\Microsoft Visual Studio\2022\Community\VC\Tools\MSVC\14.37.32822\include\xstring

; 2235 :         const value_type* _Result = _Bx._Buf;

	mov	rcx, rbx

; 2236 :         if (_Large_string_engaged()) {

	cmp	QWORD PTR [rbx+24], 8
	jb	SHORT $LN154@CopyDirect

; 2237 :             _Result = _Unfancy(_Bx._Ptr);

	mov	rcx, QWORD PTR [rbx]
$LN154@CopyDirect:

; 4041 :         return basic_string_view<_Elem, _Traits>{_Mypair._Myval2._Myptr(), _Mypair._Myval2._Mysize};

	mov	rax, QWORD PTR [rbx+16]
; File C:\Program Files\Microsoft Visual Studio\2022\Community\VC\Tools\MSVC\14.37.32822\include\filesystem

; 497  :         const auto _Last     = _First + _Str.size();

	lea	rbx, QWORD PTR [rcx+rax*2]

; 498  :         const auto _Filename = _Find_filename(_First, _Last);

	mov	rsi, rbx

; 435  :         return _STD find_if_not(_Find_root_name_end(_First, _Last), _Last, _Is_slash);

	mov	rdx, rbx
	call	?_Find_root_name_end@filesystem@std@@YAPEB_WQEB_W0@Z ; std::filesystem::_Find_root_name_end
; File C:\Program Files\Microsoft Visual Studio\2022\Community\VC\Tools\MSVC\14.37.32822\include\algorithm

; 370  :     for (; _UFirst != _ULast; ++_UFirst) {

	cmp	rax, rbx
	je	SHORT $LN164@CopyDirect
$LL171@CopyDirect:

; 371  :         if (!_Pred(*_UFirst)) {

	movzx	ecx, WORD PTR [rax]
; File C:\Program Files\Microsoft Visual Studio\2022\Community\VC\Tools\MSVC\14.37.32822\include\xfilesystem_abi.h

; 384  :         return _Ch == L'\\' || _Ch == L'/';

	cmp	cx, 92					; 0000005cH
	je	SHORT $LN747@CopyDirect
	cmp	cx, 47					; 0000002fH
	jne	SHORT $LN748@CopyDirect
$LN747@CopyDirect:
; File C:\Program Files\Microsoft Visual Studio\2022\Community\VC\Tools\MSVC\14.37.32822\include\algorithm

; 370  :     for (; _UFirst != _ULast; ++_UFirst) {

	add	rax, 2
	cmp	rax, rbx
	jne	SHORT $LL171@CopyDirect
$LN748@CopyDirect:
; File C:\Program Files\Microsoft Visual Studio\2022\Community\VC\Tools\MSVC\14.37.32822\include\filesystem

; 487  :         while (_Relative_path != _Last && !_Is_slash(_Last[-1])) {

	cmp	rax, rbx
	je	SHORT $LN164@CopyDirect
	npad	12
$LL163@CopyDirect:
	lea	rdx, QWORD PTR [rsi-2]
	movzx	ecx, WORD PTR [rdx]
; File C:\Program Files\Microsoft Visual Studio\2022\Community\VC\Tools\MSVC\14.37.32822\include\xfilesystem_abi.h

; 384  :         return _Ch == L'\\' || _Ch == L'/';

	cmp	cx, 92					; 0000005cH
	je	SHORT $LN164@CopyDirect
	cmp	cx, 47					; 0000002fH
	je	SHORT $LN164@CopyDirect
; File C:\Program Files\Microsoft Visual Studio\2022\Community\VC\Tools\MSVC\14.37.32822\include\filesystem

; 488  :             --_Last;

	mov	rsi, rdx

; 487  :         while (_Relative_path != _Last && !_Is_slash(_Last[-1])) {

	cmp	rax, rdx
	jne	SHORT $LL163@CopyDirect
$LN164@CopyDirect:

; 499  :         return wstring_view(_Filename, static_cast<size_t>(_Last - _Filename));

	sub	rbx, rsi
	sar	rbx, 1
	xorps	xmm0, xmm0
; File C:\Program Files\Microsoft Visual Studio\2022\Community\VC\Tools\MSVC\14.37.32822\include\xstring

; 2284 :         _CONSTEXPR20 _Bxty() noexcept : _Buf() {} // user-provided, for fancy pointers

	movups	XMMWORD PTR $T6[rsp], xmm0

; 2293 :     size_type _Mysize = 0; // current length of string

	mov	QWORD PTR $T6[rbp-240], r15

; 2294 :     size_type _Myres  = 0; // current storage reserved for string

	mov	QWORD PTR $T6[rbp-232], r15
	cmp	rbx, r12

; 2620 :         if (_Count > max_size()) {

	ja	$LN706@CopyDirect

; 2622 :         }
; 2623 : 
; 2624 :         auto& _Al       = _Getal();
; 2625 :         auto&& _Alproxy = _GET_PROXY_ALLOCATOR(_Alty, _Al);
; 2626 :         _Container_proxy_ptr<_Alty> _Proxy(_Alproxy, _My_data);
; 2627 : 
; 2628 :         if (_Count < _BUF_SIZE) {

	mov	QWORD PTR $T6[rbp-232], 7
	cmp	rbx, 8
	jae	SHORT $LN213@CopyDirect

; 2629 :             _My_data._Mysize = _Count;

	mov	QWORD PTR $T6[rbp-240], rbx

; 66   :         _CSTD memcpy(_First1, _First2, _Count * sizeof(_Elem));

	add	rbx, rbx
	mov	r8, rbx
	mov	rdx, rsi
	lea	rcx, QWORD PTR $T6[rsp]
	call	memcpy

; 2637 :                 _Traits::assign(_My_data._Bx._Buf[_Count], _Elem());

	mov	WORD PTR $T6[rsp+rbx], r15w

; 2638 :             } else { // _Strat == _Construct_strategy::_From_string
; 2639 : #ifdef _INSERT_STRING_ANNOTATION
; 2640 :                 _Traits::copy(_My_data._Bx._Buf, _Arg, _Count + 1);
; 2641 : #else // ^^^ _INSERT_STRING_ANNOTATION / !_INSERT_STRING_ANNOTATION vvv
; 2642 :                 _Traits::copy(_My_data._Bx._Buf, _Arg, _BUF_SIZE);
; 2643 : #endif // !_INSERT_STRING_ANNOTATION
; 2644 :             }
; 2645 : 
; 2646 :             _Proxy._Release();
; 2647 :             return;

	jmp	SHORT $LN211@CopyDirect
$LN213@CopyDirect:

; 2648 :         }
; 2649 : 
; 2650 :         _My_data._Myres               = _BUF_SIZE - 1;

	mov	r14, rbx
	or	r14, 7

; 4714 :         const size_type _Masked = _Requested | _ALLOC_MASK;

	cmp	r14, r12

; 4715 :         if (_Masked > _Max) { // the mask overflows, settle for max_size()

	jbe	SHORT $LN224@CopyDirect

; 4716 :             return _Max;

	mov	r14, r12
	jmp	SHORT $LN223@CopyDirect
$LN224@CopyDirect:

; 4717 :         }
; 4718 : 
; 4719 :         if (_Old > _Max - _Old / 2) { // similarly, geometric overflows
; 4720 :             return _Max;
; 4721 :         }
; 4722 : 
; 4723 :         return (_STD max)(_Masked, _Old + _Old / 2);

	cmp	r14, 10
	mov	eax, 10
	cmovb	r14, rax
$LN223@CopyDirect:

; 2652 :         const pointer _New_ptr        = _Al.allocate(_New_capacity + 1); // throws

	lea	rdx, QWORD PTR [r14+1]
	call	?allocate@?$allocator@_W@std@@QEAAPEA_W_K@Z ; std::allocator<wchar_t>::allocate
	mov	rdi, rax

; 2653 :         _Construct_in_place(_My_data._Bx._Ptr, _New_ptr);

	mov	QWORD PTR $T6[rsp], rax

; 2654 : 
; 2655 :         _Start_element_lifetimes(_Unfancy(_New_ptr), _New_capacity + 1);
; 2656 : 
; 2657 :         _My_data._Mysize = _Count;

	mov	QWORD PTR $T6[rbp-240], rbx

; 2658 :         _My_data._Myres  = _New_capacity;

	mov	QWORD PTR $T6[rbp-232], r14

; 66   :         _CSTD memcpy(_First1, _First2, _Count * sizeof(_Elem));

	add	rbx, rbx
	mov	r8, rbx
	mov	rdx, rsi
	mov	rcx, rax
	call	memcpy

; 2664 :             _Traits::assign(_Unfancy(_New_ptr)[_Count], _Elem());

	mov	WORD PTR [rdi+rbx], r15w
$LN211@CopyDirect:
; File C:\Program Files\Microsoft Visual Studio\2022\Community\VC\Tools\MSVC\14.37.32822\include\filesystem

; 1109 :             return _Parse_filename(_Text);

	or	r13d, 7
; File C:\Program Files\Microsoft Visual Studio\2022\Community\VC\Tools\MSVC\14.37.32822\include\xstring

; 2235 :         const value_type* _Result = _Bx._Buf;

	lea	r15, QWORD PTR $T6[rsp]

; 2236 :         if (_Large_string_engaged()) {

	cmp	QWORD PTR $T6[rbp-232], 8
	cmovae	r15, QWORD PTR $T6[rsp]

; 1209 :         : _Mydata(_Cts), _Mysize(_Count) {

	mov	r14, QWORD PTR $T6[rbp-240]
; File C:\Program Files\Microsoft Visual Studio\2022\Community\VC\Tools\MSVC\14.37.32822\include\filesystem

; 152  :             return _Convert_wide_to_narrow<_Traits>(__std_fs_code_page(), _Input, _Al);

	call	__std_fs_code_page
	mov	r12d, eax
	xorps	xmm0, xmm0
; File C:\Program Files\Microsoft Visual Studio\2022\Community\VC\Tools\MSVC\14.37.32822\include\xstring

; 2284 :         _CONSTEXPR20 _Bxty() noexcept : _Buf() {} // user-provided, for fancy pointers

	movups	XMMWORD PTR $T4[rsp], xmm0

; 4821 :         _My_data._Mysize = 0;

	xor	eax, eax
	mov	QWORD PTR $T4[rsp+16], rax

; 4822 :         _My_data._Myres  = _BUF_SIZE - 1;

	mov	QWORD PTR $T4[rsp+24], 15

; 4823 :         _My_data._Activate_SSO_buffer();
; 4824 : 
; 4825 :         // the _Traits::assign is last so the codegen doesn't think the char write can alias this
; 4826 :         _Traits::assign(_My_data._Bx._Buf[0], _Elem());

	mov	BYTE PTR $T4[rsp], al
; File C:\Program Files\Microsoft Visual Studio\2022\Community\VC\Tools\MSVC\14.37.32822\include\chrono

; 80   :     return _Output;

	or	r13d, 64				; 00000040H
	mov	DWORD PTR $T3[rsp], r13d
	test	r14, r14

; 54   :     }
; 55   : 
; 56   :     return _Result._Len;
; 57   : }
; 58   : 
; 59   : template <class _Traits, class _Alloc>
; 60   : _NODISCARD basic_string<typename _Traits::char_type, _Traits, _Alloc> _Convert_wide_to_narrow(
; 61   :     const __std_code_page _Code_page, const wstring_view _Input, const _Alloc& _Al) {
; 62   :     basic_string<typename _Traits::char_type, _Traits, _Alloc> _Output(_Al);
; 63   : 
; 64   :     if (!_Input.empty()) {

	je	$LN328@CopyDirect

; 65   :         if (_Input.size() > static_cast<size_t>(INT_MAX)) {

	cmp	r14, 2147483647				; 7fffffffH
	ja	$LN707@CopyDirect

; 67   :         }
; 68   : 
; 69   :         const int _Len = _Check_convert_result(

	mov	DWORD PTR [rsp+32], eax
	xor	r9d, r9d
	mov	r8d, r14d
	mov	rdx, r15
	mov	ecx, r12d
	call	__std_fs_convert_wide_to_narrow
	mov	rbx, rax
	mov	QWORD PTR tv937[rsp], rax
	shr	rax, 32					; 00000020H
	test	eax, eax

; 52   :     if (_Result._Err != __std_win_error::_Success) {

	jne	$LN708@CopyDirect

; 72   :         _Output.resize(static_cast<size_t>(_Len));

	movsxd	rcx, ebx
; File C:\Program Files\Microsoft Visual Studio\2022\Community\VC\Tools\MSVC\14.37.32822\include\xstring

; 4140 :         if (_New_size <= _Old_size) {

	mov	rdx, QWORD PTR $T4[rsp+16]
	cmp	rcx, rdx
	ja	SHORT $LN287@CopyDirect

; 2226 :         value_type* _Result = _Bx._Buf;

	lea	rax, QWORD PTR $T4[rsp]

; 2227 :         if (_Large_string_engaged()) {

	cmp	QWORD PTR $T4[rsp+24], 16
	cmovae	rax, QWORD PTR $T4[rsp]

; 4815 :         _Traits::assign(_Mypair._Myval2._Myptr()[_Mypair._Myval2._Mysize = _New_size], _Elem());

	mov	QWORD PTR $T4[rsp+16], rcx
	mov	BYTE PTR [rax+rcx], 0

; 4142 :         } else {

	jmp	SHORT $LN297@CopyDirect
$LN287@CopyDirect:

; 4143 :             append(_New_size - _Old_size, _Ch);

	mov	rsi, rcx
	sub	rsi, rdx
	mov	r8, QWORD PTR $T4[rsp+24]
	mov	rax, r8
	sub	rax, rdx

; 3298 :         if (_Count <= _Mypair._Myval2._Myres - _Old_size) {

	cmp	rsi, rax
	ja	SHORT $LN298@CopyDirect

; 3299 :             _ASAN_STRING_MODIFY(*this, _Old_size, _Old_size + _Count);
; 3300 :             _Mypair._Myval2._Mysize = _Old_size + _Count;

	mov	QWORD PTR $T4[rsp+16], rcx

; 2226 :         value_type* _Result = _Bx._Buf;

	lea	rdi, QWORD PTR $T4[rsp]

; 2227 :         if (_Large_string_engaged()) {

	cmp	r8, 16
	cmovae	rdi, QWORD PTR $T4[rsp]

; 3302 :             _Traits::assign(_Old_ptr + _Old_size, _Count, _Ch);

	add	rdi, rdx

; 437  :         return static_cast<_Elem*>(_CSTD memset(_First, _Ch, _Count));

	mov	r8, rsi
	xor	edx, edx
	mov	rcx, rdi
	call	memset

; 3303 :             _Traits::assign(_Old_ptr[_Old_size + _Count], _Elem());

	mov	BYTE PTR [rdi+rsi], 0

; 3304 :             return *this;

	jmp	SHORT $LN297@CopyDirect
$LN298@CopyDirect:

; 3305 :         }
; 3306 : 
; 3307 :         return _Reallocate_grow_by(

	mov	r9, rsi
	mov	rdx, rsi
	lea	rcx, QWORD PTR $T4[rsp]
	call	??$_Reallocate_grow_by@V<lambda_1>@?1??append@?$basic_string@DU?$char_traits@D@std@@V?$allocator@D@2@@std@@QEAAAEAV34@_KD@Z@_KD@?$basic_string@DU?$char_traits@D@std@@V?$allocator@D@2@@std@@AEAAAEAV01@_KV<lambda_1>@?1??append@01@QEAAAEAV01@0D@Z@_KD@Z ; std::basic_string<char,std::char_traits<char>,std::allocator<char> >::_Reallocate_grow_by<`std::basic_string<char,std::char_traits<char>,std::allocator<char> >::append'::`2'::<lambda_1>,unsigned __int64,char>
$LN297@CopyDirect:

; 2226 :         value_type* _Result = _Bx._Buf;

	lea	r9, QWORD PTR $T4[rsp]

; 2227 :         if (_Large_string_engaged()) {

	cmp	QWORD PTR $T4[rsp+24], 16
	cmovae	r9, QWORD PTR $T4[rsp]
; File C:\Program Files\Microsoft Visual Studio\2022\Community\VC\Tools\MSVC\14.37.32822\include\chrono

; 76   :         (void) _Check_convert_result(__std_fs_convert_wide_to_narrow(

	mov	DWORD PTR [rsp+32], ebx
	mov	r8d, r14d
	mov	rdx, r15
	mov	ecx, r12d
	call	__std_fs_convert_wide_to_narrow
	mov	QWORD PTR tv992[rsp], rax
	shr	rax, 32					; 00000020H
	test	eax, eax

; 52   :     if (_Result._Err != __std_win_error::_Success) {

	jne	$LN709@CopyDirect
$LN328@CopyDirect:
; File C:\Program Files\Microsoft Visual Studio\2022\Community\VC\Tools\MSVC\14.37.32822\include\filesystem

; 152  :             return _Convert_wide_to_narrow<_Traits>(__std_fs_code_page(), _Input, _Al);

	and	r13d, -65				; ffffffffffffffbfH

; 934  :             return string<char>();

	or	r13d, 56				; 00000038H
; File C:\Program Files\Microsoft Visual Studio\2022\Community\VC\Tools\MSVC\14.37.32822\include\xstring

; 4938 :     const auto _Left_size  = _Left.size();

	mov	r15, QWORD PTR DestinationPath$GSCopy$1$[rbp-256]
	mov	rcx, QWORD PTR [r15+16]

; 4939 :     const auto _Right_size = _Convert_size<_Size_type>(_Traits::length(_Right));
; 4940 :     if (_Left.max_size() - _Left_size < _Right_size) {

	mov	rax, 9223372036854775807		; 7fffffffffffffffH
	sub	rax, rcx
	cmp	rax, 1
	jb	$LN710@CopyDirect

; 2235 :         const value_type* _Result = _Bx._Buf;

	mov	r9, r15

; 2236 :         if (_Large_string_engaged()) {

	cmp	QWORD PTR [r15+24], 16
	jb	SHORT $LN343@CopyDirect

; 2237 :             _Result = _Unfancy(_Bx._Ptr);

	mov	r9, QWORD PTR [r15]
$LN343@CopyDirect:

; 4944 :     return {_String_constructor_concat_tag{}, _Left, _Left.c_str(), _Left_size, _Right, _Right_size};

	mov	QWORD PTR [rsp+48], 1
	lea	rax, OFFSET FLAT:??_C@_01KMDKNFGN@?1@
	mov	QWORD PTR [rsp+40], rax
	mov	QWORD PTR [rsp+32], rcx
	lea	rcx, QWORD PTR $T14[rbp-256]
	call	??0?$basic_string@DU?$char_traits@D@std@@V?$allocator@D@2@@std@@QEAA@U_String_constructor_concat_tag@1@AEBV01@QEBD_K23@Z ; std::basic_string<char,std::char_traits<char>,std::allocator<char> >::basic_string<char,std::char_traits<char>,std::allocator<char> >
	bts	r13d, 7

; 4980 :     return {_String_constructor_concat_tag{}, _Left, _Right};

	lea	r9, QWORD PTR $T4[rsp]
	lea	r8, QWORD PTR $T14[rbp-256]
	lea	rcx, QWORD PTR $T8[rbp-256]
	call	??0?$basic_string@DU?$char_traits@D@std@@V?$allocator@D@2@@std@@QEAA@U_String_constructor_concat_tag@1@AEAV01@1@Z ; std::basic_string<char,std::char_traits<char>,std::allocator<char> >::basic_string<char,std::char_traits<char>,std::allocator<char> >
	bts	r13d, 8
; File C:\Program Files\Microsoft Visual Studio\2022\Community\VC\Tools\MSVC\14.37.32822\include\filesystem

; 649  :         path(const _Src& _Source, format = auto_format) : _Text(_Convert_Source_to_wide(_Source)) {

	lea	rax, QWORD PTR $T7[rbp-256]
	mov	QWORD PTR __$ReturnUdt$[rbp-256], rax

; 243  :         return basic_string_view<_EcharT>(_Source.data(), _Source.size()); // erase mismatching _Traits

	mov	rdi, QWORD PTR $T8[rbp-240]
; File C:\Program Files\Microsoft Visual Studio\2022\Community\VC\Tools\MSVC\14.37.32822\include\xstring

; 2235 :         const value_type* _Result = _Bx._Buf;

	lea	rsi, QWORD PTR $T8[rbp-256]

; 2236 :         if (_Large_string_engaged()) {

	cmp	QWORD PTR $T8[rbp-232], 16
	cmovae	rsi, QWORD PTR $T8[rbp-256]
; File C:\Program Files\Microsoft Visual Studio\2022\Community\VC\Tools\MSVC\14.37.32822\include\filesystem

; 199  :             return _Convert_narrow_to_wide(__std_fs_code_page(), _Input);

	call	__std_fs_code_page
	mov	r14d, eax
	xorps	xmm0, xmm0
; File C:\Program Files\Microsoft Visual Studio\2022\Community\VC\Tools\MSVC\14.37.32822\include\xstring

; 2284 :         _CONSTEXPR20 _Bxty() noexcept : _Buf() {} // user-provided, for fancy pointers

	movups	XMMWORD PTR $T7[rbp-256], xmm0

; 4821 :         _My_data._Mysize = 0;

	xor	r15d, r15d
	mov	QWORD PTR $T7[rbp-240], r15

; 4822 :         _My_data._Myres  = _BUF_SIZE - 1;

	mov	QWORD PTR $T7[rbp-232], 7

; 4823 :         _My_data._Activate_SSO_buffer();
; 4824 : 
; 4825 :         // the _Traits::assign is last so the codegen doesn't think the char write can alias this
; 4826 :         _Traits::assign(_My_data._Bx._Buf[0], _Elem());

	mov	WORD PTR $T7[rbp-256], r15w
; File C:\Program Files\Microsoft Visual Studio\2022\Community\VC\Tools\MSVC\14.37.32822\include\filesystem

; 58   :         return _Output;

	bts	r13d, 11
	mov	DWORD PTR $T3[rsp], r13d

; 44   :         if (!_Input.empty()) {

	test	rdi, rdi
	je	SHORT $LN406@CopyDirect

; 45   :             if (_Input.size() > static_cast<size_t>(INT_MAX)) {

	cmp	rdi, 2147483647				; 7fffffffH
	ja	$LN711@CopyDirect

; 47   :             }
; 48   : 
; 49   :             const int _Len = _Check_convert_result(__std_fs_convert_narrow_to_wide(

	mov	DWORD PTR [rsp+32], r15d
	xor	r9d, r9d
	mov	r8d, edi
	mov	rdx, rsi
	mov	ecx, eax
	call	__std_fs_convert_narrow_to_wide
	mov	rbx, rax
	mov	QWORD PTR tv1311[rsp], rax
	shr	rax, 32					; 00000020H
	test	eax, eax
; File C:\Program Files\Microsoft Visual Studio\2022\Community\VC\Tools\MSVC\14.37.32822\include\chrono

; 52   :     if (_Result._Err != __std_win_error::_Success) {

	jne	$LN712@CopyDirect
; File C:\Program Files\Microsoft Visual Studio\2022\Community\VC\Tools\MSVC\14.37.32822\include\filesystem

; 52   :             _Output.resize(static_cast<size_t>(_Len));

	movsxd	rdx, ebx
	lea	rcx, QWORD PTR $T7[rbp-256]
	call	?resize@?$basic_string@_WU?$char_traits@_W@std@@V?$allocator@_W@2@@std@@QEAAX_K_W@Z ; std::basic_string<wchar_t,std::char_traits<wchar_t>,std::allocator<wchar_t> >::resize
; File C:\Program Files\Microsoft Visual Studio\2022\Community\VC\Tools\MSVC\14.37.32822\include\xstring

; 2226 :         value_type* _Result = _Bx._Buf;

	lea	r9, QWORD PTR $T7[rbp-256]

; 2227 :         if (_Large_string_engaged()) {

	cmp	QWORD PTR $T7[rbp-232], 8
	cmovae	r9, QWORD PTR $T7[rbp-256]
; File C:\Program Files\Microsoft Visual Studio\2022\Community\VC\Tools\MSVC\14.37.32822\include\filesystem

; 54   :             (void) _Check_convert_result(__std_fs_convert_narrow_to_wide(

	mov	DWORD PTR [rsp+32], ebx
	mov	r8d, edi
	mov	rdx, rsi
	mov	ecx, r14d
	call	__std_fs_convert_narrow_to_wide
	mov	QWORD PTR tv1364[rsp], rax
	shr	rax, 32					; 00000020H
	test	eax, eax
; File C:\Program Files\Microsoft Visual Studio\2022\Community\VC\Tools\MSVC\14.37.32822\include\chrono

; 52   :     if (_Result._Err != __std_win_error::_Success) {

	jne	$LN713@CopyDirect
$LN406@CopyDirect:
; File C:\Program Files\Microsoft Visual Studio\2022\Community\VC\Tools\MSVC\14.37.32822\include\filesystem

; 199  :             return _Convert_narrow_to_wide(__std_fs_code_page(), _Input);

	btr	r13d, 11

; 283  :         return _Convert_stringoid_to_wide(_Stringoid_from_Source(_Source), _Tag);

	or	r13d, 1536				; 00000600H
	mov	DWORD PTR $T3[rsp], r13d
; File C:\Program Files\Microsoft Visual Studio\2022\Community\VC\Tools\MSVC\14.37.32822\include\system_error

; 166  :     error_code() noexcept : _Myval(0), _Mycat(&_STD system_category()) {} // construct non-error

	mov	QWORD PTR _Ec$15[rbp-256], r15
	lea	rdi, OFFSET FLAT:?_Static@?1???$_Immortalize_memcpy_image@V_System_error_category@std@@@std@@YAAEBV_System_error_category@1@XZ@4V21@B ; `std::_Immortalize_memcpy_image<std::_System_error_category>'::`2'::_Static
	mov	QWORD PTR _Ec$15[rbp-248], rdi
	xorps	xmm0, xmm0
; File C:\Program Files\Microsoft Visual Studio\2022\Community\VC\Tools\MSVC\14.37.32822\include\filesystem

; 2096 :         directory_entry(const filesystem::path& _Path_arg, error_code& _Ec) : _Cached_data{}, _Path(_Path_arg) {

	movups	XMMWORD PTR _From_dir$20[rbp-256], xmm0
	movups	XMMWORD PTR _From_dir$20[rbp-240], xmm0
	mov	rbx, QWORD PTR $T5[rsp]
	mov	rdx, rbx
	lea	rcx, QWORD PTR _From_dir$20[rbp-224]
	call	??0path@filesystem@std@@QEAA@AEBV012@@Z	; std::filesystem::path::path
; File C:\Program Files\Microsoft Visual Studio\2022\Community\VC\Tools\MSVC\14.37.32822\include\system_error

; 189  :         _Myval = 0;

	mov	DWORD PTR _Ec$15[rbp-256], r15d

; 190  :         _Mycat = &_STD system_category();

	mov	QWORD PTR _Ec$15[rbp-248], rdi
; File C:\Program Files\Microsoft Visual Studio\2022\Community\VC\Tools\MSVC\14.37.32822\include\xstring

; 2235 :         const value_type* _Result = _Bx._Buf;

	lea	rcx, QWORD PTR _From_dir$20[rbp-224]

; 2236 :         if (_Large_string_engaged()) {

	cmp	QWORD PTR _From_dir$20[rbp-200], 8
	cmovae	rcx, QWORD PTR _From_dir$20[rbp-224]
; File C:\Program Files\Microsoft Visual Studio\2022\Community\VC\Tools\MSVC\14.37.32822\include\filesystem

; 2463 :             const auto _Error = __std_fs_get_stats(_Path.c_str(), &_Stats, __std_fs_stats_flags::_All_data);

	mov	r9d, -1					; ffffffffH
	mov	r8d, 62					; 0000003eH
	lea	rdx, QWORD PTR _From_dir$20[rbp-256]
	call	__std_fs_get_stats
	mov	ecx, eax

; 2464 :             if (_Error == __std_win_error::_Success) {

	test	eax, eax
	jne	SHORT $LN432@CopyDirect
; File C:\Program Files\Microsoft Visual Studio\2022\Community\VC\Tools\MSVC\14.37.32822\include\xfilesystem_abi.h

; 82   : _BITMASK_OPS(_EMPTY_ARGUMENT, __std_fs_file_attr)

	test	DWORD PTR _From_dir$20[rbp-240], 1024	; 00000400H
; File C:\Program Files\Microsoft Visual Studio\2022\Community\VC\Tools\MSVC\14.37.32822\include\filesystem

; 2465 :                 if (_Bitmask_includes_any(_Stats._Attributes, __std_fs_file_attr::_Reparse_point)) {

	mov	eax, 62					; 0000003eH
	mov	ecx, 6
	cmovne	eax, ecx
	mov	DWORD PTR _From_dir$20[rbp-228], eax

; 2466 :                     _Stats._Available = __std_fs_stats_flags::_Attributes | __std_fs_stats_flags::_Reparse_tag;
; 2467 :                 } else {
; 2468 :                     _Stats._Available = __std_fs_stats_flags::_All_data;
; 2469 :                 }
; 2470 :             } else {

	jmp	SHORT $LN427@CopyDirect
$LN432@CopyDirect:

; 2471 :                 _Stats._Available = __std_fs_stats_flags::_None;

	mov	DWORD PTR _From_dir$20[rbp-228], r15d
; File C:\Program Files\Microsoft Visual Studio\2022\Community\VC\Tools\MSVC\14.37.32822\include\xfilesystem_abi.h

; 52   :     switch (_Error) {

	sub	eax, 2
	je	SHORT $LN427@CopyDirect
	sub	eax, 1
	je	SHORT $LN427@CopyDirect
	sub	eax, 50					; 00000032H
	je	SHORT $LN427@CopyDirect
	cmp	eax, 70					; 00000046H
	je	SHORT $LN427@CopyDirect
; File C:\Program Files\Microsoft Visual Studio\2022\Community\VC\Tools\MSVC\14.37.32822\include\system_error

; 168  :     error_code(int _Val, const error_category& _Cat) noexcept : _Myval(_Val), _Mycat(&_Cat) {}

	mov	DWORD PTR $T12[rbp-256], ecx
	mov	QWORD PTR $T12[rbp-248], rdi
; File C:\Program Files\Microsoft Visual Studio\2022\Community\VC\Tools\MSVC\14.37.32822\include\filesystem

; 2143 :                 _Ec = _Make_ec(_Error);

	movaps	xmm0, XMMWORD PTR $T12[rbp-256]
	movdqa	XMMWORD PTR _Ec$15[rbp-256], xmm0
$LN427@CopyDirect:

; 2098 :             if (_Ec) {

	mov	eax, DWORD PTR _Ec$15[rbp-256]
	test	eax, eax
	je	SHORT $LN470@CopyDirect
; File C:\Program Files\Microsoft Visual Studio\2022\Community\VC\Tools\MSVC\14.37.32822\include\xstring

; 2226 :         value_type* _Result = _Bx._Buf;

	lea	rax, QWORD PTR _From_dir$20[rbp-224]

; 2227 :         if (_Large_string_engaged()) {

	cmp	QWORD PTR _From_dir$20[rbp-200], 8
	cmovae	rax, QWORD PTR _From_dir$20[rbp-224]

; 4815 :         _Traits::assign(_Mypair._Myval2._Myptr()[_Mypair._Myval2._Mysize = _New_size], _Elem());

	mov	QWORD PTR _From_dir$20[rbp-208], r15
	mov	WORD PTR [rax], r15w
	mov	eax, DWORD PTR _Ec$15[rbp-256]
$LN470@CopyDirect:
; File C:\Program Files\Microsoft Visual Studio\2022\Community\VC\Tools\MSVC\14.37.32822\include\filesystem

; 4377 :         if (_Ec) { // report an error if exists(f) is false

	test	eax, eax
	jne	SHORT $LN757@CopyDirect

; 4378 :             return;
; 4379 :         }
; 4380 : 
; 4381 :         _Copy_impl(_From_dir, _To, _Options, _Ec);

	lea	r9, QWORD PTR _Ec$15[rbp-256]
	lea	r8d, QWORD PTR [rax+18]
	lea	rdx, QWORD PTR $T7[rbp-256]
	lea	rcx, QWORD PTR _From_dir$20[rbp-256]
	call	?_Copy_impl@filesystem@std@@YAXAEBVdirectory_entry@12@AEBVpath@12@W4copy_options@12@AEAVerror_code@2@@Z ; std::filesystem::_Copy_impl
	npad	1
$LN757@CopyDirect:
; File C:\Program Files\Microsoft Visual Studio\2022\Community\VC\Tools\MSVC\14.37.32822\include\system_error

; 208  :         return value() != 0;

	lea	rcx, QWORD PTR _From_dir$20[rbp-224]
	call	?_Tidy_deallocate@?$basic_string@_WU?$char_traits@_W@std@@V?$allocator@_W@2@@std@@AEAAXXZ ; std::basic_string<wchar_t,std::char_traits<wchar_t>,std::allocator<wchar_t> >::_Tidy_deallocate
; File C:\Program Files\Microsoft Visual Studio\2022\Community\VC\Tools\MSVC\14.37.32822\include\filesystem

; 4387 :         if (_Ec) {

	cmp	DWORD PTR _Ec$15[rbp-256], 0
	jne	$LN714@CopyDirect
; File C:\Program Files\Microsoft Visual Studio\2022\Community\VC\Tools\MSVC\14.37.32822\include\xstring

; 3119 :         _Tidy_deallocate();

	lea	rcx, QWORD PTR $T7[rbp-256]
	call	?_Tidy_deallocate@?$basic_string@_WU?$char_traits@_W@std@@V?$allocator@_W@2@@std@@AEAAXXZ ; std::basic_string<wchar_t,std::char_traits<wchar_t>,std::allocator<wchar_t> >::_Tidy_deallocate
	npad	1

; 4832 :         if (_My_data._Large_string_engaged()) {

	mov	rdx, QWORD PTR $T8[rbp-232]
	cmp	rdx, 16
	jb	SHORT $LN518@CopyDirect

; 4833 :             _ASAN_STRING_REMOVE(*this);
; 4834 :             const pointer _Ptr = _My_data._Bx._Ptr;
; 4835 :             auto& _Al          = _Getal();
; 4836 :             _Destroy_in_place(_My_data._Bx._Ptr);
; 4837 :             _My_data._Activate_SSO_buffer();
; 4838 :             _Al.deallocate(_Ptr, _My_data._Myres + 1);

	inc	rdx
; File C:\Program Files\Microsoft Visual Studio\2022\Community\VC\Tools\MSVC\14.37.32822\include\xmemory

; 969  :         _Deallocate<_New_alignof<_Ty>>(_Ptr, sizeof(_Ty) * _Count);

	mov	rcx, QWORD PTR $T8[rbp-256]
	mov	rax, rcx

; 261  :         if (_Bytes >= _Big_allocation_threshold) { // boost the alignment of big allocations to help autovectorization

	cmp	rdx, 4096				; 00001000H
	jb	SHORT $LN530@CopyDirect

; 157  :     _Bytes += _Non_user_size;

	add	rdx, 39					; 00000027H

; 158  : 
; 159  :     const uintptr_t* const _Ptr_user = static_cast<uintptr_t*>(_Ptr);
; 160  :     const uintptr_t _Ptr_container   = _Ptr_user[-1];

	mov	rcx, QWORD PTR [rcx-8]
	sub	rax, rcx

; 174  :     _STL_VERIFY(_Back_shift >= _Min_back_shift && _Back_shift <= _Non_user_size, "invalid argument");

	add	rax, -8
	cmp	rax, 31
	ja	$LN527@CopyDirect
$LN530@CopyDirect:

; 265  :         ::operator delete(_Ptr, _Bytes);

	call	??3@YAXPEAX_K@Z				; operator delete
$LN518@CopyDirect:
; File C:\Program Files\Microsoft Visual Studio\2022\Community\VC\Tools\MSVC\14.37.32822\include\xstring

; 4841 :         _My_data._Mysize = 0;

	mov	QWORD PTR $T8[rbp-240], r15

; 4842 :         _My_data._Myres  = _BUF_SIZE - 1;

	mov	QWORD PTR $T8[rbp-232], 15

; 4843 :         // the _Traits::assign is last so the codegen doesn't think the char write can alias this
; 4844 :         _Traits::assign(_My_data._Bx._Buf[0], _Elem());

	mov	BYTE PTR $T8[rbp-256], 0

; 4832 :         if (_My_data._Large_string_engaged()) {

	mov	rdx, QWORD PTR $T14[rbp-232]
	cmp	rdx, 16
	jb	SHORT $LN547@CopyDirect

; 4833 :             _ASAN_STRING_REMOVE(*this);
; 4834 :             const pointer _Ptr = _My_data._Bx._Ptr;
; 4835 :             auto& _Al          = _Getal();
; 4836 :             _Destroy_in_place(_My_data._Bx._Ptr);
; 4837 :             _My_data._Activate_SSO_buffer();
; 4838 :             _Al.deallocate(_Ptr, _My_data._Myres + 1);

	inc	rdx
; File C:\Program Files\Microsoft Visual Studio\2022\Community\VC\Tools\MSVC\14.37.32822\include\xmemory

; 969  :         _Deallocate<_New_alignof<_Ty>>(_Ptr, sizeof(_Ty) * _Count);

	mov	rcx, QWORD PTR $T14[rbp-256]
	mov	rax, rcx

; 261  :         if (_Bytes >= _Big_allocation_threshold) { // boost the alignment of big allocations to help autovectorization

	cmp	rdx, 4096				; 00001000H
	jb	SHORT $LN559@CopyDirect

; 157  :     _Bytes += _Non_user_size;

	add	rdx, 39					; 00000027H

; 158  : 
; 159  :     const uintptr_t* const _Ptr_user = static_cast<uintptr_t*>(_Ptr);
; 160  :     const uintptr_t _Ptr_container   = _Ptr_user[-1];

	mov	rcx, QWORD PTR [rcx-8]
	sub	rax, rcx

; 174  :     _STL_VERIFY(_Back_shift >= _Min_back_shift && _Back_shift <= _Non_user_size, "invalid argument");

	add	rax, -8
	cmp	rax, 31
	ja	$LN556@CopyDirect
$LN559@CopyDirect:

; 265  :         ::operator delete(_Ptr, _Bytes);

	call	??3@YAXPEAX_K@Z				; operator delete
	npad	1
$LN547@CopyDirect:
; File C:\Program Files\Microsoft Visual Studio\2022\Community\VC\Tools\MSVC\14.37.32822\include\xstring

; 4832 :         if (_My_data._Large_string_engaged()) {

	mov	rdx, QWORD PTR $T4[rsp+24]
	cmp	rdx, 16
	jb	SHORT $LN576@CopyDirect

; 4833 :             _ASAN_STRING_REMOVE(*this);
; 4834 :             const pointer _Ptr = _My_data._Bx._Ptr;
; 4835 :             auto& _Al          = _Getal();
; 4836 :             _Destroy_in_place(_My_data._Bx._Ptr);
; 4837 :             _My_data._Activate_SSO_buffer();
; 4838 :             _Al.deallocate(_Ptr, _My_data._Myres + 1);

	inc	rdx
; File C:\Program Files\Microsoft Visual Studio\2022\Community\VC\Tools\MSVC\14.37.32822\include\xmemory

; 969  :         _Deallocate<_New_alignof<_Ty>>(_Ptr, sizeof(_Ty) * _Count);

	mov	rcx, QWORD PTR $T4[rsp]
	mov	rax, rcx

; 261  :         if (_Bytes >= _Big_allocation_threshold) { // boost the alignment of big allocations to help autovectorization

	cmp	rdx, 4096				; 00001000H
	jb	SHORT $LN588@CopyDirect

; 157  :     _Bytes += _Non_user_size;

	add	rdx, 39					; 00000027H

; 158  : 
; 159  :     const uintptr_t* const _Ptr_user = static_cast<uintptr_t*>(_Ptr);
; 160  :     const uintptr_t _Ptr_container   = _Ptr_user[-1];

	mov	rcx, QWORD PTR [rcx-8]
	sub	rax, rcx

; 174  :     _STL_VERIFY(_Back_shift >= _Min_back_shift && _Back_shift <= _Non_user_size, "invalid argument");

	add	rax, -8
	cmp	rax, 31
	ja	SHORT $LN585@CopyDirect
$LN588@CopyDirect:

; 265  :         ::operator delete(_Ptr, _Bytes);

	call	??3@YAXPEAX_K@Z				; operator delete
$LN576@CopyDirect:
; File C:\Program Files\Microsoft Visual Studio\2022\Community\VC\Tools\MSVC\14.37.32822\include\xstring

; 4841 :         _My_data._Mysize = 0;

	mov	QWORD PTR $T4[rsp+16], r15

; 4842 :         _My_data._Myres  = _BUF_SIZE - 1;

	mov	QWORD PTR $T4[rsp+24], 15

; 4843 :         // the _Traits::assign is last so the codegen doesn't think the char write can alias this
; 4844 :         _Traits::assign(_My_data._Bx._Buf[0], _Elem());

	mov	BYTE PTR $T4[rsp], 0

; 3119 :         _Tidy_deallocate();

	lea	rcx, QWORD PTR $T6[rsp]
	call	?_Tidy_deallocate@?$basic_string@_WU?$char_traits@_W@std@@V?$allocator@_W@2@@std@@AEAAXXZ ; std::basic_string<wchar_t,std::char_traits<wchar_t>,std::allocator<wchar_t> >::_Tidy_deallocate
	mov	esi, -1
; File H:\Paul\switchemulator\Zelda TotK\MapEditorV4\OldVersion\MapEditor\Util.cpp

; 92   : 		if (Entry.is_directory() && !std::filesystem::is_empty(Entry))

	mov	r12, 9223372036854775806		; 7ffffffffffffffeH
	jmp	SHORT $LN2@CopyDirect
$LN754@CopyDirect:
	lea	rdi, OFFSET FLAT:?_Static@?1???$_Immortalize_memcpy_image@V_System_error_category@std@@@std@@YAAEBV_System_error_category@1@XZ@4V21@B ; `std::_Immortalize_memcpy_image<std::_System_error_category>'::`2'::_Static
$LN2@CopyDirect:
; File C:\Program Files\Microsoft Visual Studio\2022\Community\VC\Tools\MSVC\14.37.32822\include\filesystem

; 2656 :             const auto _Error = _Dir_enum_impl::_Advance_and_reset_if_no_more_files(_Impl);

	lea	rcx, QWORD PTR <begin>$L0$18[rbp-256]
	call	?_Advance_and_reset_if_no_more_files@_Dir_enum_impl@filesystem@std@@SA?AW4__std_win_error@@AEAV?$shared_ptr@U_Dir_enum_impl@filesystem@std@@@3@@Z ; std::filesystem::_Dir_enum_impl::_Advance_and_reset_if_no_more_files

; 2657 :             if (_Error != __std_win_error::_Success) {

	test	eax, eax
	jne	$LN704@CopyDirect
	jmp	$LL23@CopyDirect
$LN527@CopyDirect:
; File C:\Program Files\Microsoft Visual Studio\2022\Community\VC\Tools\MSVC\14.37.32822\include\xmemory

; 174  :     _STL_VERIFY(_Back_shift >= _Min_back_shift && _Back_shift <= _Non_user_size, "invalid argument");

	call	QWORD PTR __imp__invalid_parameter_noinfo_noreturn
	npad	1
$LN556@CopyDirect:
	call	QWORD PTR __imp__invalid_parameter_noinfo_noreturn
	npad	1
$LN585@CopyDirect:
	call	QWORD PTR __imp__invalid_parameter_noinfo_noreturn
	npad	1
$LN3@CopyDirect:
; File C:\Program Files\Microsoft Visual Studio\2022\Community\VC\Tools\MSVC\14.37.32822\include\memory

; 1402 :         if (_Rep) {

	mov	rcx, QWORD PTR <begin>$L0$18[rbp-248]
	test	rcx, rcx
	je	SHORT $LN64@CopyDirect

; 1177 :         if (_MT_DECR(_Uses) == 0) {

	mov	eax, esi
	lock xadd DWORD PTR [rcx+8], eax
	cmp	eax, 1
	jne	SHORT $LN64@CopyDirect

; 1178 :             _Destroy();

	mov	rbx, QWORD PTR <begin>$L0$18[rbp-248]
	mov	rax, QWORD PTR [rbx]
	mov	rcx, rbx
	call	QWORD PTR [rax]

; 1184 :         if (_MT_DECR(_Weaks) == 0) {

	mov	eax, esi
	lock xadd DWORD PTR [rbx+12], eax
	cmp	eax, 1
	jne	SHORT $LN64@CopyDirect

; 1185 :             _Delete_this();

	mov	rcx, QWORD PTR <begin>$L0$18[rbp-248]
	mov	rax, QWORD PTR [rcx]
	call	QWORD PTR [rax+8]
	npad	1
$LN64@CopyDirect:

; 1402 :         if (_Rep) {

	mov	rcx, QWORD PTR $S8$16[rbp-248]
	test	rcx, rcx
	je	SHORT $LN78@CopyDirect

; 1177 :         if (_MT_DECR(_Uses) == 0) {

	mov	eax, esi
	lock xadd DWORD PTR [rcx+8], eax
	cmp	eax, 1
	jne	SHORT $LN78@CopyDirect

; 1178 :             _Destroy();

	mov	rbx, QWORD PTR $S8$16[rbp-248]
	mov	rax, QWORD PTR [rbx]
	mov	rcx, rbx
	call	QWORD PTR [rax]

; 1184 :         if (_MT_DECR(_Weaks) == 0) {

	lock xadd DWORD PTR [rbx+12], esi
	cmp	esi, 1
	jne	SHORT $LN78@CopyDirect

; 1185 :             _Delete_this();

	mov	rcx, QWORD PTR $S8$16[rbp-248]
	mov	rax, QWORD PTR [rcx]
	call	QWORD PTR [rax+8]
$LN78@CopyDirect:
; File H:\Paul\switchemulator\Zelda TotK\MapEditorV4\OldVersion\MapEditor\Util.cpp

; 97   : }

	mov	rcx, QWORD PTR __$ArrayPad$[rbp-256]
	xor	rcx, rsp
	call	__security_check_cookie
	mov	rbx, QWORD PTR [rsp+688]
	add	rsp, 608				; 00000260H
	pop	r15
	pop	r14
	pop	r13
	pop	r12
	pop	rdi
	pop	rsi
	pop	rbp
	ret	0
$LN705@CopyDirect:
; File C:\Program Files\Microsoft Visual Studio\2022\Community\VC\Tools\MSVC\14.37.32822\include\filesystem

; 3562 :             _Throw_fs_error("is_empty", _Ec, _Path);

	mov	r8, rbx
	lea	rdx, QWORD PTR _Ec$19[rbp-256]
	lea	rcx, OFFSET FLAT:??_C@_08OBNFFMDJ@is_empty@
	call	?_Throw_fs_error@filesystem@std@@YAXPEBDAEBVerror_code@2@AEBVpath@12@@Z ; std::filesystem::_Throw_fs_error
	int	3
$LN704@CopyDirect:

; 2658 :                 _Throw_fs_error("directory_iterator::operator++", _Error);

	mov	edx, eax
	lea	rcx, OFFSET FLAT:??_C@_0BP@DPMCMHCK@directory_iterator?3?3operator?$CL?$CL@
	call	?_Throw_fs_error@filesystem@std@@YAXPEBDW4__std_win_error@@@Z ; std::filesystem::_Throw_fs_error
	npad	1
$LN759@CopyDirect:

; 2621 :                 _Throw_fs_error("directory_iterator::directory_iterator", _Error, _Path);

	lea	r8, QWORD PTR $T13[rbp-256]
	mov	edx, eax
	lea	rcx, OFFSET FLAT:??_C@_0CH@GANCNKKD@directory_iterator?3?3directory_i@
	call	?_Throw_fs_error@filesystem@std@@YAXPEBDW4__std_win_error@@AEBVpath@12@@Z ; std::filesystem::_Throw_fs_error
	npad	1
$LN743@CopyDirect:

; 2383 :                 _Throw_fs_error("directory_entry::status", _Result._Error, _Path);

	lea	r8, QWORD PTR [rbx+32]
	lea	rcx, OFFSET FLAT:??_C@_0BI@LBKDNGFK@directory_entry?3?3status@
	call	?_Throw_fs_error@filesystem@std@@YAXPEBDW4__std_win_error@@AEBVpath@12@@Z ; std::filesystem::_Throw_fs_error
	npad	1
$LN709@CopyDirect:
; File C:\Program Files\Microsoft Visual Studio\2022\Community\VC\Tools\MSVC\14.37.32822\include\chrono

; 53   :         _Throw_system_error_from_std_win_error(_Result._Err);

	mov	ecx, DWORD PTR tv992[rsp+4]
	call	?_Throw_system_error_from_std_win_error@std@@YAXW4__std_win_error@@@Z ; std::_Throw_system_error_from_std_win_error
	int	3
$LN708@CopyDirect:
	mov	ecx, DWORD PTR tv937[rsp+4]
	call	?_Throw_system_error_from_std_win_error@std@@YAXW4__std_win_error@@@Z ; std::_Throw_system_error_from_std_win_error
	int	3
$LN707@CopyDirect:

; 66   :             _Throw_system_error(errc::invalid_argument);

	call	?_Throw_system_error@std@@YAXW4errc@1@@Z ; std::_Throw_system_error
	npad	1
$LN713@CopyDirect:

; 53   :         _Throw_system_error_from_std_win_error(_Result._Err);

	mov	ecx, DWORD PTR tv1364[rsp+4]
	call	?_Throw_system_error_from_std_win_error@std@@YAXW4__std_win_error@@@Z ; std::_Throw_system_error_from_std_win_error
	int	3
$LN712@CopyDirect:
	mov	ecx, DWORD PTR tv1311[rsp+4]
	call	?_Throw_system_error_from_std_win_error@std@@YAXW4__std_win_error@@@Z ; std::_Throw_system_error_from_std_win_error
	int	3
$LN711@CopyDirect:
; File C:\Program Files\Microsoft Visual Studio\2022\Community\VC\Tools\MSVC\14.37.32822\include\filesystem

; 46   :                 _Throw_system_error(errc::invalid_argument);

	call	?_Throw_system_error@std@@YAXW4errc@1@@Z ; std::_Throw_system_error
	npad	1
$LN714@CopyDirect:

; 4388 :             _Throw_fs_error("copy", _Ec, _From, _To);

	lea	r9, QWORD PTR $T7[rbp-256]
	mov	r8, rbx
	lea	rdx, QWORD PTR _Ec$15[rbp-256]
	call	?_Throw_fs_error@filesystem@std@@YAXPEBDAEBVerror_code@2@AEBVpath@12@2@Z ; std::filesystem::_Throw_fs_error
	npad	1
$LN710@CopyDirect:
; File C:\Program Files\Microsoft Visual Studio\2022\Community\VC\Tools\MSVC\14.37.32822\include\xstring

; 4941 :         _Xlen_string();

	call	?_Xlen_string@std@@YAXXZ		; std::_Xlen_string
	npad	1
$LN706@CopyDirect:

; 2621 :             _Xlen_string(); // result too long

	call	?_Xlen_string@std@@YAXXZ		; std::_Xlen_string
	int	3
$LN755@CopyDirect:
?CopyDirectoryRecursively@Util@@YAXAEBV?$basic_string@DU?$char_traits@D@std@@V?$allocator@D@2@@std@@0@Z ENDP ; Util::CopyDirectoryRecursively
_TEXT	ENDS
; Function compile flags: /Ogtpy
;	COMDAT text$x
text$x	SEGMENT
$T3 = 64
tv1364 = 72
tv1311 = 72
tv992 = 72
tv937 = 72
$T4 = 80
$T5 = 112
$T6 = 120
$T7 = 152
$T8 = 184
DestinationPath$GSCopy$1$ = 216
_Result$9 = 224
$T10 = 240
$T11 = 256
$T12 = 272
__$ReturnUdt$ = 288
$T13 = 296
$T14 = 328
_Ec$15 = 400
$S8$16 = 416
_Iter$17 = 432
<begin>$L0$18 = 448
_Ec$19 = 464
_From_dir$20 = 480
<end>$L0$21 = 544
_Stats$22 = 560
__$ArrayPad$ = 592
SourcePath$ = 672
DestinationPath$ = 680
?dtor$0@?0??CopyDirectoryRecursively@Util@@YAXAEBV?$basic_string@DU?$char_traits@D@std@@V?$allocator@D@2@@std@@0@Z@4HA PROC ; `Util::CopyDirectoryRecursively'::`1'::dtor$0
	lea	rcx, QWORD PTR $T13[rdx]
	jmp	??1path@filesystem@std@@QEAA@XZ		; std::filesystem::path::~path
?dtor$0@?0??CopyDirectoryRecursively@Util@@YAXAEBV?$basic_string@DU?$char_traits@D@std@@V?$allocator@D@2@@std@@0@Z@4HA ENDP ; `Util::CopyDirectoryRecursively'::`1'::dtor$0
text$x	ENDS
; Function compile flags: /Ogtpy
;	COMDAT text$x
text$x	SEGMENT
$T3 = 64
tv1364 = 72
tv1311 = 72
tv992 = 72
tv937 = 72
$T4 = 80
$T5 = 112
$T6 = 120
$T7 = 152
$T8 = 184
DestinationPath$GSCopy$1$ = 216
_Result$9 = 224
$T10 = 240
$T11 = 256
$T12 = 272
__$ReturnUdt$ = 288
$T13 = 296
$T14 = 328
_Ec$15 = 400
$S8$16 = 416
_Iter$17 = 432
<begin>$L0$18 = 448
_Ec$19 = 464
_From_dir$20 = 480
<end>$L0$21 = 544
_Stats$22 = 560
__$ArrayPad$ = 592
SourcePath$ = 672
DestinationPath$ = 680
?dtor$54@?0??CopyDirectoryRecursively@Util@@YAXAEBV?$basic_string@DU?$char_traits@D@std@@V?$allocator@D@2@@std@@0@Z@4HA PROC ; `Util::CopyDirectoryRecursively'::`1'::dtor$54
	lea	rcx, QWORD PTR $S8$16[rdx]
	jmp	??1?$shared_ptr@U_Dir_enum_impl@filesystem@std@@@std@@QEAA@XZ ; std::shared_ptr<std::filesystem::_Dir_enum_impl>::~shared_ptr<std::filesystem::_Dir_enum_impl>
?dtor$54@?0??CopyDirectoryRecursively@Util@@YAXAEBV?$basic_string@DU?$char_traits@D@std@@V?$allocator@D@2@@std@@0@Z@4HA ENDP ; `Util::CopyDirectoryRecursively'::`1'::dtor$54
text$x	ENDS
; Function compile flags: /Ogtpy
;	COMDAT text$x
text$x	SEGMENT
$T3 = 64
tv1364 = 72
tv1311 = 72
tv992 = 72
tv937 = 72
$T4 = 80
$T5 = 112
$T6 = 120
$T7 = 152
$T8 = 184
DestinationPath$GSCopy$1$ = 216
_Result$9 = 224
$T10 = 240
$T11 = 256
$T12 = 272
__$ReturnUdt$ = 288
$T13 = 296
$T14 = 328
_Ec$15 = 400
$S8$16 = 416
_Iter$17 = 432
<begin>$L0$18 = 448
_Ec$19 = 464
_From_dir$20 = 480
<end>$L0$21 = 544
_Stats$22 = 560
__$ArrayPad$ = 592
SourcePath$ = 672
DestinationPath$ = 680
?dtor$1@?0??CopyDirectoryRecursively@Util@@YAXAEBV?$basic_string@DU?$char_traits@D@std@@V?$allocator@D@2@@std@@0@Z@4HA PROC ; `Util::CopyDirectoryRecursively'::`1'::dtor$1
	lea	rcx, QWORD PTR $S8$16[rdx]
	jmp	??1directory_iterator@filesystem@std@@QEAA@XZ ; std::filesystem::directory_iterator::~directory_iterator
?dtor$1@?0??CopyDirectoryRecursively@Util@@YAXAEBV?$basic_string@DU?$char_traits@D@std@@V?$allocator@D@2@@std@@0@Z@4HA ENDP ; `Util::CopyDirectoryRecursively'::`1'::dtor$1
text$x	ENDS
; Function compile flags: /Ogtpy
;	COMDAT text$x
text$x	SEGMENT
$T3 = 64
tv1364 = 72
tv1311 = 72
tv992 = 72
tv937 = 72
$T4 = 80
$T5 = 112
$T6 = 120
$T7 = 152
$T8 = 184
DestinationPath$GSCopy$1$ = 216
_Result$9 = 224
$T10 = 240
$T11 = 256
$T12 = 272
__$ReturnUdt$ = 288
$T13 = 296
$T14 = 328
_Ec$15 = 400
$S8$16 = 416
_Iter$17 = 432
<begin>$L0$18 = 448
_Ec$19 = 464
_From_dir$20 = 480
<end>$L0$21 = 544
_Stats$22 = 560
__$ArrayPad$ = 592
SourcePath$ = 672
DestinationPath$ = 680
?dtor$3@?0??CopyDirectoryRecursively@Util@@YAXAEBV?$basic_string@DU?$char_traits@D@std@@V?$allocator@D@2@@std@@0@Z@4HA PROC ; `Util::CopyDirectoryRecursively'::`1'::dtor$3
	lea	rcx, QWORD PTR <begin>$L0$18[rdx]
	jmp	??1directory_iterator@filesystem@std@@QEAA@XZ ; std::filesystem::directory_iterator::~directory_iterator
?dtor$3@?0??CopyDirectoryRecursively@Util@@YAXAEBV?$basic_string@DU?$char_traits@D@std@@V?$allocator@D@2@@std@@0@Z@4HA ENDP ; `Util::CopyDirectoryRecursively'::`1'::dtor$3
text$x	ENDS
; Function compile flags: /Ogtpy
;	COMDAT text$x
text$x	SEGMENT
$T3 = 64
tv1364 = 72
tv1311 = 72
tv992 = 72
tv937 = 72
$T4 = 80
$T5 = 112
$T6 = 120
$T7 = 152
$T8 = 184
DestinationPath$GSCopy$1$ = 216
_Result$9 = 224
$T10 = 240
$T11 = 256
$T12 = 272
__$ReturnUdt$ = 288
$T13 = 296
$T14 = 328
_Ec$15 = 400
$S8$16 = 416
_Iter$17 = 432
<begin>$L0$18 = 448
_Ec$19 = 464
_From_dir$20 = 480
<end>$L0$21 = 544
_Stats$22 = 560
__$ArrayPad$ = 592
SourcePath$ = 672
DestinationPath$ = 680
?dtor$5@?0??CopyDirectoryRecursively@Util@@YAXAEBV?$basic_string@DU?$char_traits@D@std@@V?$allocator@D@2@@std@@0@Z@4HA PROC ; `Util::CopyDirectoryRecursively'::`1'::dtor$5
	lea	rcx, QWORD PTR <end>$L0$21[rdx]
	jmp	??1directory_iterator@filesystem@std@@QEAA@XZ ; std::filesystem::directory_iterator::~directory_iterator
?dtor$5@?0??CopyDirectoryRecursively@Util@@YAXAEBV?$basic_string@DU?$char_traits@D@std@@V?$allocator@D@2@@std@@0@Z@4HA ENDP ; `Util::CopyDirectoryRecursively'::`1'::dtor$5
text$x	ENDS
; Function compile flags: /Ogtpy
;	COMDAT text$x
text$x	SEGMENT
$T3 = 64
tv1364 = 72
tv1311 = 72
tv992 = 72
tv937 = 72
$T4 = 80
$T5 = 112
$T6 = 120
$T7 = 152
$T8 = 184
DestinationPath$GSCopy$1$ = 216
_Result$9 = 224
$T10 = 240
$T11 = 256
$T12 = 272
__$ReturnUdt$ = 288
$T13 = 296
$T14 = 328
_Ec$15 = 400
$S8$16 = 416
_Iter$17 = 432
<begin>$L0$18 = 448
_Ec$19 = 464
_From_dir$20 = 480
<end>$L0$21 = 544
_Stats$22 = 560
__$ArrayPad$ = 592
SourcePath$ = 672
DestinationPath$ = 680
?dtor$15@?0??CopyDirectoryRecursively@Util@@YAXAEBV?$basic_string@DU?$char_traits@D@std@@V?$allocator@D@2@@std@@0@Z@4HA PROC ; `Util::CopyDirectoryRecursively'::`1'::dtor$15
	lea	rcx, QWORD PTR _Iter$17[rdx]
	jmp	??1?$shared_ptr@U_Dir_enum_impl@filesystem@std@@@std@@QEAA@XZ ; std::shared_ptr<std::filesystem::_Dir_enum_impl>::~shared_ptr<std::filesystem::_Dir_enum_impl>
?dtor$15@?0??CopyDirectoryRecursively@Util@@YAXAEBV?$basic_string@DU?$char_traits@D@std@@V?$allocator@D@2@@std@@0@Z@4HA ENDP ; `Util::CopyDirectoryRecursively'::`1'::dtor$15
text$x	ENDS
; Function compile flags: /Ogtpy
;	COMDAT text$x
text$x	SEGMENT
$T3 = 64
tv1364 = 72
tv1311 = 72
tv992 = 72
tv937 = 72
$T4 = 80
$T5 = 112
$T6 = 120
$T7 = 152
$T8 = 184
DestinationPath$GSCopy$1$ = 216
_Result$9 = 224
$T10 = 240
$T11 = 256
$T12 = 272
__$ReturnUdt$ = 288
$T13 = 296
$T14 = 328
_Ec$15 = 400
$S8$16 = 416
_Iter$17 = 432
<begin>$L0$18 = 448
_Ec$19 = 464
_From_dir$20 = 480
<end>$L0$21 = 544
_Stats$22 = 560
__$ArrayPad$ = 592
SourcePath$ = 672
DestinationPath$ = 680
?dtor$6@?0??CopyDirectoryRecursively@Util@@YAXAEBV?$basic_string@DU?$char_traits@D@std@@V?$allocator@D@2@@std@@0@Z@4HA PROC ; `Util::CopyDirectoryRecursively'::`1'::dtor$6
	lea	rcx, QWORD PTR $T6[rdx]
	jmp	??1path@filesystem@std@@QEAA@XZ		; std::filesystem::path::~path
?dtor$6@?0??CopyDirectoryRecursively@Util@@YAXAEBV?$basic_string@DU?$char_traits@D@std@@V?$allocator@D@2@@std@@0@Z@4HA ENDP ; `Util::CopyDirectoryRecursively'::`1'::dtor$6
text$x	ENDS
; Function compile flags: /Ogtpy
;	COMDAT text$x
text$x	SEGMENT
$T3 = 64
tv1364 = 72
tv1311 = 72
tv992 = 72
tv937 = 72
$T4 = 80
$T5 = 112
$T6 = 120
$T7 = 152
$T8 = 184
DestinationPath$GSCopy$1$ = 216
_Result$9 = 224
$T10 = 240
$T11 = 256
$T12 = 272
__$ReturnUdt$ = 288
$T13 = 296
$T14 = 328
_Ec$15 = 400
$S8$16 = 416
_Iter$17 = 432
<begin>$L0$18 = 448
_Ec$19 = 464
_From_dir$20 = 480
<end>$L0$21 = 544
_Stats$22 = 560
__$ArrayPad$ = 592
SourcePath$ = 672
DestinationPath$ = 680
?dtor$26@?0??CopyDirectoryRecursively@Util@@YAXAEBV?$basic_string@DU?$char_traits@D@std@@V?$allocator@D@2@@std@@0@Z@4HA PROC ; `Util::CopyDirectoryRecursively'::`1'::dtor$26
	push	rbp
	sub	rsp, 32					; 00000020H
	mov	rbp, rdx
	mov	eax, DWORD PTR $T3[rbp]
	and	eax, 64					; 00000040H
	test	eax, eax
	je	SHORT $LN266@dtor$26
	and	DWORD PTR $T3[rbp], -65			; ffffffffffffffbfH
	lea	rcx, QWORD PTR $T4[rbp]
	call	??1?$basic_string@DU?$char_traits@D@std@@V?$allocator@D@2@@std@@QEAA@XZ ; std::basic_string<char,std::char_traits<char>,std::allocator<char> >::~basic_string<char,std::char_traits<char>,std::allocator<char> >
$LN266@dtor$26:
	add	rsp, 32					; 00000020H
	pop	rbp
	ret	0
?dtor$26@?0??CopyDirectoryRecursively@Util@@YAXAEBV?$basic_string@DU?$char_traits@D@std@@V?$allocator@D@2@@std@@0@Z@4HA ENDP ; `Util::CopyDirectoryRecursively'::`1'::dtor$26
text$x	ENDS
; Function compile flags: /Ogtpy
;	COMDAT text$x
text$x	SEGMENT
$T3 = 64
tv1364 = 72
tv1311 = 72
tv992 = 72
tv937 = 72
$T4 = 80
$T5 = 112
$T6 = 120
$T7 = 152
$T8 = 184
DestinationPath$GSCopy$1$ = 216
_Result$9 = 224
$T10 = 240
$T11 = 256
$T12 = 272
__$ReturnUdt$ = 288
$T13 = 296
$T14 = 328
_Ec$15 = 400
$S8$16 = 416
_Iter$17 = 432
<begin>$L0$18 = 448
_Ec$19 = 464
_From_dir$20 = 480
<end>$L0$21 = 544
_Stats$22 = 560
__$ArrayPad$ = 592
SourcePath$ = 672
DestinationPath$ = 680
?dtor$7@?0??CopyDirectoryRecursively@Util@@YAXAEBV?$basic_string@DU?$char_traits@D@std@@V?$allocator@D@2@@std@@0@Z@4HA PROC ; `Util::CopyDirectoryRecursively'::`1'::dtor$7
	lea	rcx, QWORD PTR $T4[rdx]
	jmp	??1?$basic_string@DU?$char_traits@D@std@@V?$allocator@D@2@@std@@QEAA@XZ ; std::basic_string<char,std::char_traits<char>,std::allocator<char> >::~basic_string<char,std::char_traits<char>,std::allocator<char> >
?dtor$7@?0??CopyDirectoryRecursively@Util@@YAXAEBV?$basic_string@DU?$char_traits@D@std@@V?$allocator@D@2@@std@@0@Z@4HA ENDP ; `Util::CopyDirectoryRecursively'::`1'::dtor$7
text$x	ENDS
; Function compile flags: /Ogtpy
;	COMDAT text$x
text$x	SEGMENT
$T3 = 64
tv1364 = 72
tv1311 = 72
tv992 = 72
tv937 = 72
$T4 = 80
$T5 = 112
$T6 = 120
$T7 = 152
$T8 = 184
DestinationPath$GSCopy$1$ = 216
_Result$9 = 224
$T10 = 240
$T11 = 256
$T12 = 272
__$ReturnUdt$ = 288
$T13 = 296
$T14 = 328
_Ec$15 = 400
$S8$16 = 416
_Iter$17 = 432
<begin>$L0$18 = 448
_Ec$19 = 464
_From_dir$20 = 480
<end>$L0$21 = 544
_Stats$22 = 560
__$ArrayPad$ = 592
SourcePath$ = 672
DestinationPath$ = 680
?dtor$8@?0??CopyDirectoryRecursively@Util@@YAXAEBV?$basic_string@DU?$char_traits@D@std@@V?$allocator@D@2@@std@@0@Z@4HA PROC ; `Util::CopyDirectoryRecursively'::`1'::dtor$8
	lea	rcx, QWORD PTR $T14[rdx]
	jmp	??1?$basic_string@DU?$char_traits@D@std@@V?$allocator@D@2@@std@@QEAA@XZ ; std::basic_string<char,std::char_traits<char>,std::allocator<char> >::~basic_string<char,std::char_traits<char>,std::allocator<char> >
?dtor$8@?0??CopyDirectoryRecursively@Util@@YAXAEBV?$basic_string@DU?$char_traits@D@std@@V?$allocator@D@2@@std@@0@Z@4HA ENDP ; `Util::CopyDirectoryRecursively'::`1'::dtor$8
text$x	ENDS
; Function compile flags: /Ogtpy
;	COMDAT text$x
text$x	SEGMENT
$T3 = 64
tv1364 = 72
tv1311 = 72
tv992 = 72
tv937 = 72
$T4 = 80
$T5 = 112
$T6 = 120
$T7 = 152
$T8 = 184
DestinationPath$GSCopy$1$ = 216
_Result$9 = 224
$T10 = 240
$T11 = 256
$T12 = 272
__$ReturnUdt$ = 288
$T13 = 296
$T14 = 328
_Ec$15 = 400
$S8$16 = 416
_Iter$17 = 432
<begin>$L0$18 = 448
_Ec$19 = 464
_From_dir$20 = 480
<end>$L0$21 = 544
_Stats$22 = 560
__$ArrayPad$ = 592
SourcePath$ = 672
DestinationPath$ = 680
?dtor$9@?0??CopyDirectoryRecursively@Util@@YAXAEBV?$basic_string@DU?$char_traits@D@std@@V?$allocator@D@2@@std@@0@Z@4HA PROC ; `Util::CopyDirectoryRecursively'::`1'::dtor$9
	lea	rcx, QWORD PTR $T8[rdx]
	jmp	??1?$basic_string@DU?$char_traits@D@std@@V?$allocator@D@2@@std@@QEAA@XZ ; std::basic_string<char,std::char_traits<char>,std::allocator<char> >::~basic_string<char,std::char_traits<char>,std::allocator<char> >
?dtor$9@?0??CopyDirectoryRecursively@Util@@YAXAEBV?$basic_string@DU?$char_traits@D@std@@V?$allocator@D@2@@std@@0@Z@4HA ENDP ; `Util::CopyDirectoryRecursively'::`1'::dtor$9
text$x	ENDS
; Function compile flags: /Ogtpy
;	COMDAT text$x
text$x	SEGMENT
$T3 = 64
tv1364 = 72
tv1311 = 72
tv992 = 72
tv937 = 72
$T4 = 80
$T5 = 112
$T6 = 120
$T7 = 152
$T8 = 184
DestinationPath$GSCopy$1$ = 216
_Result$9 = 224
$T10 = 240
$T11 = 256
$T12 = 272
__$ReturnUdt$ = 288
$T13 = 296
$T14 = 328
_Ec$15 = 400
$S8$16 = 416
_Iter$17 = 432
<begin>$L0$18 = 448
_Ec$19 = 464
_From_dir$20 = 480
<end>$L0$21 = 544
_Stats$22 = 560
__$ArrayPad$ = 592
SourcePath$ = 672
DestinationPath$ = 680
?dtor$35@?0??CopyDirectoryRecursively@Util@@YAXAEBV?$basic_string@DU?$char_traits@D@std@@V?$allocator@D@2@@std@@0@Z@4HA PROC ; `Util::CopyDirectoryRecursively'::`1'::dtor$35
	push	rbp
	sub	rsp, 32					; 00000020H
	mov	rbp, rdx
	mov	eax, DWORD PTR $T3[rbp]
	and	eax, 2048				; 00000800H
	test	eax, eax
	je	SHORT $LN378@dtor$35
	and	DWORD PTR $T3[rbp], -2049		; fffffffffffff7ffH
	mov	rcx, QWORD PTR __$ReturnUdt$[rbp]
	call	??1?$basic_string@_WU?$char_traits@_W@std@@V?$allocator@_W@2@@std@@QEAA@XZ ; std::basic_string<wchar_t,std::char_traits<wchar_t>,std::allocator<wchar_t> >::~basic_string<wchar_t,std::char_traits<wchar_t>,std::allocator<wchar_t> >
$LN378@dtor$35:
	add	rsp, 32					; 00000020H
	pop	rbp
	ret	0
?dtor$35@?0??CopyDirectoryRecursively@Util@@YAXAEBV?$basic_string@DU?$char_traits@D@std@@V?$allocator@D@2@@std@@0@Z@4HA ENDP ; `Util::CopyDirectoryRecursively'::`1'::dtor$35
text$x	ENDS
; Function compile flags: /Ogtpy
;	COMDAT text$x
text$x	SEGMENT
$T3 = 64
tv1364 = 72
tv1311 = 72
tv992 = 72
tv937 = 72
$T4 = 80
$T5 = 112
$T6 = 120
$T7 = 152
$T8 = 184
DestinationPath$GSCopy$1$ = 216
_Result$9 = 224
$T10 = 240
$T11 = 256
$T12 = 272
__$ReturnUdt$ = 288
$T13 = 296
$T14 = 328
_Ec$15 = 400
$S8$16 = 416
_Iter$17 = 432
<begin>$L0$18 = 448
_Ec$19 = 464
_From_dir$20 = 480
<end>$L0$21 = 544
_Stats$22 = 560
__$ArrayPad$ = 592
SourcePath$ = 672
DestinationPath$ = 680
?dtor$10@?0??CopyDirectoryRecursively@Util@@YAXAEBV?$basic_string@DU?$char_traits@D@std@@V?$allocator@D@2@@std@@0@Z@4HA PROC ; `Util::CopyDirectoryRecursively'::`1'::dtor$10
	lea	rcx, QWORD PTR $T7[rdx]
	jmp	??1path@filesystem@std@@QEAA@XZ		; std::filesystem::path::~path
?dtor$10@?0??CopyDirectoryRecursively@Util@@YAXAEBV?$basic_string@DU?$char_traits@D@std@@V?$allocator@D@2@@std@@0@Z@4HA ENDP ; `Util::CopyDirectoryRecursively'::`1'::dtor$10
text$x	ENDS
; Function compile flags: /Ogtpy
;	COMDAT text$x
text$x	SEGMENT
$T3 = 64
tv1364 = 72
tv1311 = 72
tv992 = 72
tv937 = 72
$T4 = 80
$T5 = 112
$T6 = 120
$T7 = 152
$T8 = 184
DestinationPath$GSCopy$1$ = 216
_Result$9 = 224
$T10 = 240
$T11 = 256
$T12 = 272
__$ReturnUdt$ = 288
$T13 = 296
$T14 = 328
_Ec$15 = 400
$S8$16 = 416
_Iter$17 = 432
<begin>$L0$18 = 448
_Ec$19 = 464
_From_dir$20 = 480
<end>$L0$21 = 544
_Stats$22 = 560
__$ArrayPad$ = 592
SourcePath$ = 672
DestinationPath$ = 680
?dtor$39@?0??CopyDirectoryRecursively@Util@@YAXAEBV?$basic_string@DU?$char_traits@D@std@@V?$allocator@D@2@@std@@0@Z@4HA PROC ; `Util::CopyDirectoryRecursively'::`1'::dtor$39
	lea	rcx, QWORD PTR _From_dir$20[rdx]
	jmp	??1directory_entry@filesystem@std@@QEAA@XZ ; std::filesystem::directory_entry::~directory_entry
?dtor$39@?0??CopyDirectoryRecursively@Util@@YAXAEBV?$basic_string@DU?$char_traits@D@std@@V?$allocator@D@2@@std@@0@Z@4HA ENDP ; `Util::CopyDirectoryRecursively'::`1'::dtor$39
text$x	ENDS
; Function compile flags: /Ogtpy
; File H:\Paul\switchemulator\Zelda TotK\MapEditorV4\OldVersion\MapEditor\Util.cpp
; File C:\Program Files\Microsoft Visual Studio\2022\Community\VC\Tools\MSVC\14.37.32822\include\xstring
; File H:\Paul\switchemulator\Zelda TotK\MapEditorV4\OldVersion\MapEditor\Util.cpp
; File C:\Program Files\Microsoft Visual Studio\2022\Community\VC\Tools\MSVC\14.37.32822\include\xstring
; File H:\Paul\switchemulator\Zelda TotK\MapEditorV4\OldVersion\MapEditor\Util.cpp
; File C:\Program Files\Microsoft Visual Studio\2022\Community\VC\Tools\MSVC\14.37.32822\include\xstring
; File C:\Program Files\Microsoft Visual Studio\2022\Community\VC\Tools\MSVC\14.37.32822\include\xutility
; File H:\Paul\switchemulator\Zelda TotK\MapEditorV4\OldVersion\MapEditor\Util.cpp
; File C:\Program Files\Microsoft Visual Studio\2022\Community\VC\Tools\MSVC\14.37.32822\include\xutility
; File C:\Program Files\Microsoft Visual Studio\2022\Community\VC\Tools\MSVC\14.37.32822\include\xstring
; File H:\Paul\switchemulator\Zelda TotK\MapEditorV4\OldVersion\MapEditor\Util.cpp
; File C:\Program Files\Microsoft Visual Studio\2022\Community\VC\Tools\MSVC\14.37.32822\include\xstring
; File H:\Paul\switchemulator\Zelda TotK\MapEditorV4\OldVersion\MapEditor\Util.cpp
;	COMDAT ?IsNumber@Util@@YA_NV?$basic_string@DU?$char_traits@D@std@@V?$allocator@D@2@@std@@@Z
_TEXT	SEGMENT
Number$ = 48
?IsNumber@Util@@YA_NV?$basic_string@DU?$char_traits@D@std@@V?$allocator@D@2@@std@@@Z PROC ; Util::IsNumber, COMDAT

; 161  : {

$LN72:
	mov	QWORD PTR [rsp+24], rbx
	push	rdi
	sub	rsp, 32					; 00000020H
	mov	rdi, rcx
; File C:\Program Files\Microsoft Visual Studio\2022\Community\VC\Tools\MSVC\14.37.32822\include\xstring

; 4228 :         return _Mypair._Myval2._Mysize == 0;

	mov	rcx, QWORD PTR [rcx+16]
	test	rcx, rcx
; File H:\Paul\switchemulator\Zelda TotK\MapEditorV4\OldVersion\MapEditor\Util.cpp

; 162  : 	return !Number.empty() && std::find_if(Number.begin(),

	je	SHORT $LN3@IsNumber
; File C:\Program Files\Microsoft Visual Studio\2022\Community\VC\Tools\MSVC\14.37.32822\include\xstring

; 2244 :         return _BUF_SIZE <= _Myres;

	cmp	QWORD PTR [rdi+24], 16
; File H:\Paul\switchemulator\Zelda TotK\MapEditorV4\OldVersion\MapEditor\Util.cpp

; 162  : 	return !Number.empty() && std::find_if(Number.begin(),

	mov	QWORD PTR [rsp+56], rsi
; File C:\Program Files\Microsoft Visual Studio\2022\Community\VC\Tools\MSVC\14.37.32822\include\xstring

; 2227 :         if (_Large_string_engaged()) {

	jb	SHORT $LN60@IsNumber

; 2228 :             _Result = _Unfancy(_Bx._Ptr);

	mov	rsi, QWORD PTR [rdi]
	mov	rbx, rsi
	add	rsi, rcx
	jmp	SHORT $LN58@IsNumber
$LN60@IsNumber:
	mov	rbx, rdi
	lea	rsi, QWORD PTR [rcx+rdi]
$LN58@IsNumber:
; File C:\Program Files\Microsoft Visual Studio\2022\Community\VC\Tools\MSVC\14.37.32822\include\xutility

; 6315 :     for (; _UFirst != _ULast; ++_UFirst) {

	cmp	rbx, rsi
	je	SHORT $LN63@IsNumber
	npad	7
$LL32@IsNumber:
; File H:\Paul\switchemulator\Zelda TotK\MapEditorV4\OldVersion\MapEditor\Util.cpp

; 163  : 		Number.end(), [](unsigned char c) { return !std::isdigit(c); }) == Number.end();

	movzx	ecx, BYTE PTR [rbx]
	call	QWORD PTR __imp_isdigit
	test	eax, eax
; File C:\Program Files\Microsoft Visual Studio\2022\Community\VC\Tools\MSVC\14.37.32822\include\xutility

; 6316 :         if (_Pred(*_UFirst)) {

	je	SHORT $LN63@IsNumber

; 6315 :     for (; _UFirst != _ULast; ++_UFirst) {

	inc	rbx
	cmp	rbx, rsi
	jne	SHORT $LL32@IsNumber
$LN63@IsNumber:
; File C:\Program Files\Microsoft Visual Studio\2022\Community\VC\Tools\MSVC\14.37.32822\include\xstring

; 2244 :         return _BUF_SIZE <= _Myres;

	cmp	QWORD PTR [rdi+24], 16

; 2226 :         value_type* _Result = _Bx._Buf;

	mov	rcx, rdi
	mov	rsi, QWORD PTR [rsp+56]

; 2227 :         if (_Large_string_engaged()) {

	jb	SHORT $LN40@IsNumber

; 2228 :             _Result = _Unfancy(_Bx._Ptr);

	mov	rcx, QWORD PTR [rdi]
$LN40@IsNumber:

; 3925 :         return iterator(

	add	rcx, QWORD PTR [rdi+16]

; 1982 :         return _Ptr == _Right._Ptr;

	cmp	rbx, rcx
; File H:\Paul\switchemulator\Zelda TotK\MapEditorV4\OldVersion\MapEditor\Util.cpp

; 162  : 	return !Number.empty() && std::find_if(Number.begin(),

	jne	SHORT $LN3@IsNumber
	mov	bl, 1
	jmp	SHORT $LN4@IsNumber
$LN3@IsNumber:
	xor	bl, bl
$LN4@IsNumber:
; File C:\Program Files\Microsoft Visual Studio\2022\Community\VC\Tools\MSVC\14.37.32822\include\xstring

; 3119 :         _Tidy_deallocate();

	mov	rcx, rdi
	call	?_Tidy_deallocate@?$basic_string@DU?$char_traits@D@std@@V?$allocator@D@2@@std@@AEAAXXZ ; std::basic_string<char,std::char_traits<char>,std::allocator<char> >::_Tidy_deallocate
; File H:\Paul\switchemulator\Zelda TotK\MapEditorV4\OldVersion\MapEditor\Util.cpp

; 162  : 	return !Number.empty() && std::find_if(Number.begin(),

	movzx	eax, bl

; 164  : }

	mov	rbx, QWORD PTR [rsp+64]
	add	rsp, 32					; 00000020H
	pop	rdi
	ret	0
?IsNumber@Util@@YA_NV?$basic_string@DU?$char_traits@D@std@@V?$allocator@D@2@@std@@@Z ENDP ; Util::IsNumber
_TEXT	ENDS
; Function compile flags: /Ogtpy
; File H:\Paul\switchemulator\Zelda TotK\MapEditorV4\OldVersion\MapEditor\Util.cpp
; File C:\Program Files\Microsoft Visual Studio\2022\Community\VC\Tools\MSVC\14.37.32822\include\xstring
; File C:\Program Files\Microsoft Visual Studio\2022\Community\VC\Tools\MSVC\14.37.32822\include\algorithm
; File C:\Program Files\Microsoft Visual Studio\2022\Community\VC\Tools\MSVC\14.37.32822\include\xstring
; File H:\Paul\switchemulator\Zelda TotK\MapEditorV4\OldVersion\MapEditor\Util.cpp
; File C:\Program Files\Microsoft Visual Studio\2022\Community\VC\Tools\MSVC\14.37.32822\include\xstring
; File H:\Paul\switchemulator\Zelda TotK\MapEditorV4\OldVersion\MapEditor\Util.cpp
;	COMDAT ?StringToLowerCase@Util@@YA?AV?$basic_string@DU?$char_traits@D@std@@V?$allocator@D@2@@std@@V23@@Z
_TEXT	SEGMENT
__$ReturnUdt$GSCopy$ = 40
Text$GSCopy$ = 40
__$ArrayPad$ = 48
__$ReturnUdt$ = 112
Text$ = 120
?StringToLowerCase@Util@@YA?AV?$basic_string@DU?$char_traits@D@std@@V?$allocator@D@2@@std@@V23@@Z PROC ; Util::StringToLowerCase, COMDAT

; 100  : {

$LN95:
	mov	QWORD PTR [rsp+24], rbx
	push	rbp
	push	rsi
	push	rdi
	push	r14
	push	r15
	sub	rsp, 64					; 00000040H
	mov	rax, QWORD PTR __security_cookie
	xor	rax, rsp
	mov	QWORD PTR __$ArrayPad$[rsp], rax
	mov	rdi, rdx
	mov	r14, rcx
	mov	QWORD PTR __$ReturnUdt$GSCopy$[rsp], rcx
	mov	QWORD PTR Text$GSCopy$[rsp], rdx
	xor	r15d, r15d
; File C:\Program Files\Microsoft Visual Studio\2022\Community\VC\Tools\MSVC\14.37.32822\include\xstring

; 2227 :         if (_Large_string_engaged()) {

	cmp	QWORD PTR [rdx+24], 16
	jb	SHORT $LN89@StringToLo

; 2228 :             _Result = _Unfancy(_Bx._Ptr);

	mov	rsi, QWORD PTR [rdx]
	mov	rbp, rsi
	add	rbp, QWORD PTR [rdx+16]
	mov	rbx, rsi
	jmp	SHORT $LN31@StringToLo
$LN89@StringToLo:
	mov	rbp, QWORD PTR [rdx+16]
	add	rbp, rdi
	mov	rbx, rdi
	mov	rsi, rdi
$LN31@StringToLo:
; File C:\Program Files\Microsoft Visual Studio\2022\Community\VC\Tools\MSVC\14.37.32822\include\algorithm

; 3445 :     for (; _UFirst != _ULast; ++_UFirst, (void) ++_UDest) {

	cmp	rbx, rbp
	je	SHORT $LN41@StringToLo
	sub	rsi, rbx
	npad	3
$LL42@StringToLo:

; 3446 :         *_UDest = _Func(*_UFirst);

	movsx	ecx, BYTE PTR [rbx]
	call	QWORD PTR __imp_tolower
	mov	BYTE PTR [rsi+rbx], al

; 3445 :     for (; _UFirst != _ULast; ++_UFirst, (void) ++_UDest) {

	inc	rbx
	cmp	rbx, rbp
	jne	SHORT $LL42@StringToLo
$LN41@StringToLo:
	xorps	xmm0, xmm0
; File C:\Program Files\Microsoft Visual Studio\2022\Community\VC\Tools\MSVC\14.37.32822\include\xstring

; 2284 :         _CONSTEXPR20 _Bxty() noexcept : _Buf() {} // user-provided, for fancy pointers

	movups	XMMWORD PTR [r14], xmm0

; 2293 :     size_type _Mysize = 0; // current length of string

	mov	QWORD PTR [r14+16], r15

; 2294 :     size_type _Myres  = 0; // current storage reserved for string

	mov	QWORD PTR [r14+24], r15

; 2999 :         _CSTD memcpy(_My_data_mem, _Right_data_mem, _Memcpy_val_size);

	movups	xmm0, XMMWORD PTR [rdi]
	movups	XMMWORD PTR [r14], xmm0
	movups	xmm1, XMMWORD PTR [rdi+16]
	movups	XMMWORD PTR [r14+16], xmm1
; File H:\Paul\switchemulator\Zelda TotK\MapEditorV4\OldVersion\MapEditor\Util.cpp

; 102  : 	return Text;

	mov	QWORD PTR [rdi+16], r15
	mov	QWORD PTR [rdi+24], 15
	mov	BYTE PTR [rdi], 0
; File C:\Program Files\Microsoft Visual Studio\2022\Community\VC\Tools\MSVC\14.37.32822\include\xstring

; 3119 :         _Tidy_deallocate();

	mov	rcx, rdi
	call	?_Tidy_deallocate@?$basic_string@DU?$char_traits@D@std@@V?$allocator@D@2@@std@@AEAAXXZ ; std::basic_string<char,std::char_traits<char>,std::allocator<char> >::_Tidy_deallocate
; File H:\Paul\switchemulator\Zelda TotK\MapEditorV4\OldVersion\MapEditor\Util.cpp

; 102  : 	return Text;

	mov	rax, r14

; 103  : }

	mov	rcx, QWORD PTR __$ArrayPad$[rsp]
	xor	rcx, rsp
	call	__security_check_cookie
	mov	rbx, QWORD PTR [rsp+128]
	add	rsp, 64					; 00000040H
	pop	r15
	pop	r14
	pop	rdi
	pop	rsi
	pop	rbp
	ret	0
?StringToLowerCase@Util@@YA?AV?$basic_string@DU?$char_traits@D@std@@V?$allocator@D@2@@std@@V23@@Z ENDP ; Util::StringToLowerCase
_TEXT	ENDS
; Function compile flags: /Ogtpy
;	COMDAT text$x
text$x	SEGMENT
__$ReturnUdt$GSCopy$ = 40
Text$GSCopy$ = 40
__$ArrayPad$ = 48
__$ReturnUdt$ = 112
Text$ = 120
?dtor$0@?0??StringToLowerCase@Util@@YA?AV?$basic_string@DU?$char_traits@D@std@@V?$allocator@D@2@@std@@V23@@Z@4HA PROC ; `Util::StringToLowerCase'::`1'::dtor$0
	mov	rcx, QWORD PTR Text$GSCopy$[rdx]
	jmp	??1?$basic_string@DU?$char_traits@D@std@@V?$allocator@D@2@@std@@QEAA@XZ ; std::basic_string<char,std::char_traits<char>,std::allocator<char> >::~basic_string<char,std::char_traits<char>,std::allocator<char> >
?dtor$0@?0??StringToLowerCase@Util@@YA?AV?$basic_string@DU?$char_traits@D@std@@V?$allocator@D@2@@std@@V23@@Z@4HA ENDP ; `Util::StringToLowerCase'::`1'::dtor$0
text$x	ENDS
; Function compile flags: /Ogtpy
; File H:\Paul\switchemulator\Zelda TotK\MapEditorV4\OldVersion\MapEditor\Util.cpp
; File C:\Program Files\Microsoft Visual Studio\2022\Community\VC\Tools\MSVC\14.37.32822\include\xstring
; File C:\Program Files\Microsoft Visual Studio\2022\Community\VC\Tools\MSVC\14.37.32822\include\filesystem
; File C:\Program Files\Microsoft Visual Studio\2022\Community\VC\Tools\MSVC\14.37.32822\include\xstring
; File H:\Paul\switchemulator\Zelda TotK\MapEditorV4\OldVersion\MapEditor\Util.cpp
; File C:\Program Files\Microsoft Visual Studio\2022\Community\VC\Tools\MSVC\14.37.32822\include\filesystem
; File H:\Paul\switchemulator\Zelda TotK\MapEditorV4\OldVersion\MapEditor\Util.cpp
;	COMDAT ?RemoveFile@Util@@YAXAEBV?$basic_string@DU?$char_traits@D@std@@V?$allocator@D@2@@std@@@Z
_TEXT	SEGMENT
$T1 = 32
Path$ = 80
?RemoveFile@Util@@YAXAEBV?$basic_string@DU?$char_traits@D@std@@V?$allocator@D@2@@std@@@Z PROC ; Util::RemoveFile, COMDAT

; 27   : {

$LN27:
	sub	rsp, 72					; 00000048H

; 28   : 	std::filesystem::remove(Path);

	mov	rdx, rcx
	lea	rcx, QWORD PTR $T1[rsp]
	call	??$?0V?$basic_string@DU?$char_traits@D@std@@V?$allocator@D@2@@std@@$0A@@path@filesystem@std@@QEAA@AEBV?$basic_string@DU?$char_traits@D@std@@V?$allocator@D@2@@2@W4format@012@@Z ; std::filesystem::path::path<std::basic_string<char,std::char_traits<char>,std::allocator<char> >,0>
	npad	1
; File C:\Program Files\Microsoft Visual Studio\2022\Community\VC\Tools\MSVC\14.37.32822\include\xstring

; 2235 :         const value_type* _Result = _Bx._Buf;

	lea	rcx, QWORD PTR $T1[rsp]

; 2236 :         if (_Large_string_engaged()) {

	cmp	QWORD PTR $T1[rsp+24], 8
	cmovae	rcx, QWORD PTR $T1[rsp]
; File C:\Program Files\Microsoft Visual Studio\2022\Community\VC\Tools\MSVC\14.37.32822\include\filesystem

; 3623 :         const auto _Result = __std_fs_remove(_Target.c_str());

	call	__std_fs_remove
	mov	rdx, rax
	shr	rax, 32					; 00000020H
	test	eax, eax

; 3624 :         if (_Result._Error != __std_win_error::_Success) {

	jne	SHORT $LN25@RemoveFile
; File C:\Program Files\Microsoft Visual Studio\2022\Community\VC\Tools\MSVC\14.37.32822\include\xstring

; 3119 :         _Tidy_deallocate();

	lea	rcx, QWORD PTR $T1[rsp]
	call	?_Tidy_deallocate@?$basic_string@_WU?$char_traits@_W@std@@V?$allocator@_W@2@@std@@AEAAXXZ ; std::basic_string<wchar_t,std::char_traits<wchar_t>,std::allocator<wchar_t> >::_Tidy_deallocate
; File H:\Paul\switchemulator\Zelda TotK\MapEditorV4\OldVersion\MapEditor\Util.cpp

; 29   : }

	add	rsp, 72					; 00000048H
	ret	0
$LN25@RemoveFile:
; File C:\Program Files\Microsoft Visual Studio\2022\Community\VC\Tools\MSVC\14.37.32822\include\filesystem

; 3625 :             _Throw_fs_error("remove", _Result._Error, _Target);

	shr	rdx, 32					; 00000020H
	lea	r8, QWORD PTR $T1[rsp]
	lea	rcx, OFFSET FLAT:??_C@_06LEMKAMD@remove@
	call	?_Throw_fs_error@filesystem@std@@YAXPEBDW4__std_win_error@@AEBVpath@12@@Z ; std::filesystem::_Throw_fs_error
	int	3
$LN23@RemoveFile:
?RemoveFile@Util@@YAXAEBV?$basic_string@DU?$char_traits@D@std@@V?$allocator@D@2@@std@@@Z ENDP ; Util::RemoveFile
_TEXT	ENDS
; Function compile flags: /Ogtpy
;	COMDAT text$x
text$x	SEGMENT
$T1 = 32
Path$ = 80
?dtor$0@?0??RemoveFile@Util@@YAXAEBV?$basic_string@DU?$char_traits@D@std@@V?$allocator@D@2@@std@@@Z@4HA PROC ; `Util::RemoveFile'::`1'::dtor$0
	lea	rcx, QWORD PTR $T1[rdx]
	jmp	??1path@filesystem@std@@QEAA@XZ		; std::filesystem::path::~path
?dtor$0@?0??RemoveFile@Util@@YAXAEBV?$basic_string@DU?$char_traits@D@std@@V?$allocator@D@2@@std@@@Z@4HA ENDP ; `Util::RemoveFile'::`1'::dtor$0
text$x	ENDS
; Function compile flags: /Ogtpy
; File H:\Paul\switchemulator\Zelda TotK\MapEditorV4\OldVersion\MapEditor\Util.cpp
; File C:\Program Files\Microsoft Visual Studio\2022\Community\VC\Tools\MSVC\14.37.32822\include\xstring
; File C:\Program Files\Microsoft Visual Studio\2022\Community\VC\Tools\MSVC\14.37.32822\include\filesystem
; File C:\Program Files\Microsoft Visual Studio\2022\Community\VC\Tools\MSVC\14.37.32822\include\xstring
; File H:\Paul\switchemulator\Zelda TotK\MapEditorV4\OldVersion\MapEditor\Util.cpp
; File C:\Program Files\Microsoft Visual Studio\2022\Community\VC\Tools\MSVC\14.37.32822\include\filesystem
; File H:\Paul\switchemulator\Zelda TotK\MapEditorV4\OldVersion\MapEditor\Util.cpp
;	COMDAT ?CopyFileToDest@Util@@YAXAEBV?$basic_string@DU?$char_traits@D@std@@V?$allocator@D@2@@std@@0@Z
_TEXT	SEGMENT
$T1 = 32
$T2 = 64
Source$ = 112
Dest$ = 120
?CopyFileToDest@Util@@YAXAEBV?$basic_string@DU?$char_traits@D@std@@V?$allocator@D@2@@std@@0@Z PROC ; Util::CopyFileToDest, COMDAT

; 37   : {

$LN46:
	push	rbx
	sub	rsp, 96					; 00000060H
	mov	rbx, rcx

; 38   : 	std::filesystem::copy_file(Source, Dest);

	lea	rcx, QWORD PTR $T2[rsp]
	call	??$?0V?$basic_string@DU?$char_traits@D@std@@V?$allocator@D@2@@std@@$0A@@path@filesystem@std@@QEAA@AEBV?$basic_string@DU?$char_traits@D@std@@V?$allocator@D@2@@2@W4format@012@@Z ; std::filesystem::path::path<std::basic_string<char,std::char_traits<char>,std::allocator<char> >,0>
	npad	1
	mov	rdx, rbx
	lea	rcx, QWORD PTR $T1[rsp]
	call	??$?0V?$basic_string@DU?$char_traits@D@std@@V?$allocator@D@2@@std@@$0A@@path@filesystem@std@@QEAA@AEBV?$basic_string@DU?$char_traits@D@std@@V?$allocator@D@2@@2@W4format@012@@Z ; std::filesystem::path::path<std::basic_string<char,std::char_traits<char>,std::allocator<char> >,0>
	npad	1
; File C:\Program Files\Microsoft Visual Studio\2022\Community\VC\Tools\MSVC\14.37.32822\include\xstring

; 2235 :         const value_type* _Result = _Bx._Buf;

	lea	rdx, QWORD PTR $T2[rsp]

; 2236 :         if (_Large_string_engaged()) {

	cmp	QWORD PTR $T2[rsp+24], 8
	cmovae	rdx, QWORD PTR $T2[rsp]

; 2235 :         const value_type* _Result = _Bx._Buf;

	lea	rcx, QWORD PTR $T1[rsp]

; 2236 :         if (_Large_string_engaged()) {

	cmp	QWORD PTR $T1[rsp+24], 8
	cmovae	rcx, QWORD PTR $T1[rsp]
; File C:\Program Files\Microsoft Visual Studio\2022\Community\VC\Tools\MSVC\14.37.32822\include\filesystem

; 3369 :             __std_fs_copy_file(_From.c_str(), _To.c_str(), static_cast<__std_fs_copy_options>(_Options));

	xor	r8d, r8d
	call	__std_fs_copy_file
	mov	rdx, rax
	shr	rax, 32					; 00000020H
	test	eax, eax

; 3370 :         if (_Result._Error != __std_win_error::_Success) {

	jne	SHORT $LN44@CopyFileTo
; File C:\Program Files\Microsoft Visual Studio\2022\Community\VC\Tools\MSVC\14.37.32822\include\xstring

; 3119 :         _Tidy_deallocate();

	lea	rcx, QWORD PTR $T1[rsp]
	call	?_Tidy_deallocate@?$basic_string@_WU?$char_traits@_W@std@@V?$allocator@_W@2@@std@@AEAAXXZ ; std::basic_string<wchar_t,std::char_traits<wchar_t>,std::allocator<wchar_t> >::_Tidy_deallocate
	npad	1
	lea	rcx, QWORD PTR $T2[rsp]
	call	?_Tidy_deallocate@?$basic_string@_WU?$char_traits@_W@std@@V?$allocator@_W@2@@std@@AEAAXXZ ; std::basic_string<wchar_t,std::char_traits<wchar_t>,std::allocator<wchar_t> >::_Tidy_deallocate
; File H:\Paul\switchemulator\Zelda TotK\MapEditorV4\OldVersion\MapEditor\Util.cpp

; 39   : }

	add	rsp, 96					; 00000060H
	pop	rbx
	ret	0
$LN44@CopyFileTo:
; File C:\Program Files\Microsoft Visual Studio\2022\Community\VC\Tools\MSVC\14.37.32822\include\filesystem

; 3371 :             _Throw_fs_error("copy_file", _Result._Error, _From, _To);

	shr	rdx, 32					; 00000020H
	lea	r9, QWORD PTR $T2[rsp]
	lea	r8, QWORD PTR $T1[rsp]
	call	?_Throw_fs_error@filesystem@std@@YAXPEBDW4__std_win_error@@AEBVpath@12@2@Z ; std::filesystem::_Throw_fs_error
	int	3
$LN42@CopyFileTo:
?CopyFileToDest@Util@@YAXAEBV?$basic_string@DU?$char_traits@D@std@@V?$allocator@D@2@@std@@0@Z ENDP ; Util::CopyFileToDest
_TEXT	ENDS
; Function compile flags: /Ogtpy
;	COMDAT text$x
text$x	SEGMENT
$T1 = 32
$T2 = 64
Source$ = 112
Dest$ = 120
?dtor$0@?0??CopyFileToDest@Util@@YAXAEBV?$basic_string@DU?$char_traits@D@std@@V?$allocator@D@2@@std@@0@Z@4HA PROC ; `Util::CopyFileToDest'::`1'::dtor$0
	lea	rcx, QWORD PTR $T2[rdx]
	jmp	??1path@filesystem@std@@QEAA@XZ		; std::filesystem::path::~path
?dtor$0@?0??CopyFileToDest@Util@@YAXAEBV?$basic_string@DU?$char_traits@D@std@@V?$allocator@D@2@@std@@0@Z@4HA ENDP ; `Util::CopyFileToDest'::`1'::dtor$0
text$x	ENDS
; Function compile flags: /Ogtpy
;	COMDAT text$x
text$x	SEGMENT
$T1 = 32
$T2 = 64
Source$ = 112
Dest$ = 120
?dtor$1@?0??CopyFileToDest@Util@@YAXAEBV?$basic_string@DU?$char_traits@D@std@@V?$allocator@D@2@@std@@0@Z@4HA PROC ; `Util::CopyFileToDest'::`1'::dtor$1
	lea	rcx, QWORD PTR $T1[rdx]
	jmp	??1path@filesystem@std@@QEAA@XZ		; std::filesystem::path::~path
?dtor$1@?0??CopyFileToDest@Util@@YAXAEBV?$basic_string@DU?$char_traits@D@std@@V?$allocator@D@2@@std@@0@Z@4HA ENDP ; `Util::CopyFileToDest'::`1'::dtor$1
text$x	ENDS
; Function compile flags: /Ogtpy
; File H:\Paul\switchemulator\Zelda TotK\MapEditorV4\OldVersion\MapEditor\Util.cpp
; File C:\Program Files\Microsoft Visual Studio\2022\Community\VC\Tools\MSVC\14.37.32822\include\xstring
; File C:\Program Files\Microsoft Visual Studio\2022\Community\VC\Tools\MSVC\14.37.32822\include\fstream
; File H:\Paul\switchemulator\Zelda TotK\MapEditorV4\OldVersion\MapEditor\Util.cpp
; File C:\Program Files\Microsoft Visual Studio\2022\Community\VC\Tools\MSVC\14.37.32822\include\iosfwd
; File H:\Paul\switchemulator\Zelda TotK\MapEditorV4\OldVersion\MapEditor\Util.cpp
; File C:\Program Files\Microsoft Visual Studio\2022\Community\VC\Tools\MSVC\14.37.32822\include\iosfwd
; File H:\Paul\switchemulator\Zelda TotK\MapEditorV4\OldVersion\MapEditor\Util.cpp
; File C:\Program Files\Microsoft Visual Studio\2022\Community\VC\Tools\MSVC\14.37.32822\include\fstream
; File C:\Program Files\Microsoft Visual Studio\2022\Community\VC\Tools\MSVC\14.37.32822\include\xstring
; File H:\Paul\switchemulator\Zelda TotK\MapEditorV4\OldVersion\MapEditor\Util.cpp
; File C:\Program Files\Microsoft Visual Studio\2022\Community\VC\Tools\MSVC\14.37.32822\include\xstring
; File H:\Paul\switchemulator\Zelda TotK\MapEditorV4\OldVersion\MapEditor\Util.cpp
; File C:\Program Files\Microsoft Visual Studio\2022\Community\VC\Tools\MSVC\14.37.32822\include\fstream
; File C:\Program Files\Microsoft Visual Studio\2022\Community\VC\Tools\MSVC\14.37.32822\include\xstring
; File H:\Paul\switchemulator\Zelda TotK\MapEditorV4\OldVersion\MapEditor\Util.cpp
; File C:\Program Files\Microsoft Visual Studio\2022\Community\VC\Tools\MSVC\14.37.32822\include\xstring
; File H:\Paul\switchemulator\Zelda TotK\MapEditorV4\OldVersion\MapEditor\Util.cpp
;	COMDAT ?ReadFile@Util@@YA?AV?$vector@EV?$allocator@E@std@@@std@@V?$basic_string@DU?$char_traits@D@std@@V?$allocator@D@2@@3@@Z
_TEXT	SEGMENT
$T1 = 64
__$ReturnUdt$GSCopy$ = 72
$T2 = 80
$T3 = 96
Path$GSCopy$ = 128
File$ = 144
