; Listing generated by Microsoft (R) Optimizing Compiler Version 19.37.32822.0 

include listing.inc

INCLUDELIB OLDNAMES

PUBLIC	?Delete@VAO@@QEAAXXZ				; VAO::Delete
PUBLIC	?Unbind@VAO@@QEAAXXZ				; VAO::Unbind
PUBLIC	?Bind@VAO@@QEAAXXZ				; VAO::Bind
PUBLIC	?LinkAttrib@VAO@@QEAAXAEAVVBO@@III_JPEAX@Z	; VAO::LinkAttrib
PUBLIC	??0VAO@@QEAA@_N@Z				; VAO::VAO
;	COMDAT pdata
pdata	SEGMENT
$pdata$?LinkAttrib@VAO@@QEAAXAEAVVBO@@III_JPEAX@Z DD imagerel $LN8
	DD	imagerel $LN8+98
	DD	imagerel $unwind$?LinkAttrib@VAO@@QEAAXAEAVVBO@@III_JPEAX@Z
pdata	ENDS
;	COMDAT pdata
pdata	SEGMENT
$pdata$??0VAO@@QEAA@_N@Z DD imagerel $LN5
	DD	imagerel $LN5+32
	DD	imagerel $unwind$??0VAO@@QEAA@_N@Z
;	COMDAT xdata
xdata	SEGMENT
$unwind$??0VAO@@QEAA@_N@Z DD 020601H
	DD	030023206H
xdata	ENDS
;	COMDAT xdata
xdata	SEGMENT
$unwind$?LinkAttrib@VAO@@QEAAXAEAVVBO@@III_JPEAX@Z DD 040a01H
	DD	08340aH
	DD	07006520aH
; Function compile flags: /Ogtpy
; File H:\Paul\switchemulator\Zelda TotK\MapEditorV4\OldVersion\MapEditor\VAO.cpp
;	COMDAT ??0VAO@@QEAA@_N@Z
_TEXT	SEGMENT
this$ = 48
Initialize$dead$ = 56
??0VAO@@QEAA@_N@Z PROC					; VAO::VAO, COMDAT

; 5    : {

$LN5:
	push	rbx
	sub	rsp, 32					; 00000020H
	mov	rbx, rcx

; 6    : 	if (Initialize) glGenVertexArrays(1, &ID);

	mov	rdx, rcx
	mov	ecx, 1
	call	QWORD PTR glad_glGenVertexArrays

; 7    : }

	mov	rax, rbx
	add	rsp, 32					; 00000020H
	pop	rbx
	ret	0
??0VAO@@QEAA@_N@Z ENDP					; VAO::VAO
_TEXT	ENDS
; Function compile flags: /Ogtpy
; File H:\Paul\switchemulator\Zelda TotK\MapEditorV4\OldVersion\MapEditor\VAO.cpp
; File H:\Paul\switchemulator\Zelda TotK\MapEditorV4\OldVersion\MapEditor\VBO.cpp
; File H:\Paul\switchemulator\Zelda TotK\MapEditorV4\OldVersion\MapEditor\VAO.cpp
; File H:\Paul\switchemulator\Zelda TotK\MapEditorV4\OldVersion\MapEditor\VBO.cpp
; File H:\Paul\switchemulator\Zelda TotK\MapEditorV4\OldVersion\MapEditor\VAO.cpp
; File H:\Paul\switchemulator\Zelda TotK\MapEditorV4\OldVersion\MapEditor\VBO.cpp
; File H:\Paul\switchemulator\Zelda TotK\MapEditorV4\OldVersion\MapEditor\VAO.cpp
; File H:\Paul\switchemulator\Zelda TotK\MapEditorV4\OldVersion\MapEditor\VBO.cpp
; File H:\Paul\switchemulator\Zelda TotK\MapEditorV4\OldVersion\MapEditor\VAO.cpp
;	COMDAT ?LinkAttrib@VAO@@QEAAXAEAVVBO@@III_JPEAX@Z
_TEXT	SEGMENT
this$dead$ = 64
VBO$ = 72
layout$ = 80
numComponents$ = 88
type$dead$ = 96
stride$ = 104
offset$ = 112
?LinkAttrib@VAO@@QEAAXAEAVVBO@@III_JPEAX@Z PROC		; VAO::LinkAttrib, COMDAT

; 11   : {

$LN8:
	mov	QWORD PTR [rsp+8], rbx
	push	rdi
	sub	rsp, 48					; 00000030H
; File H:\Paul\switchemulator\Zelda TotK\MapEditorV4\OldVersion\MapEditor\VBO.cpp

; 21   : 	glBindBuffer(GL_ARRAY_BUFFER, ID);

	mov	edx, DWORD PTR [rdx]
	mov	ecx, 34962				; 00008892H
; File H:\Paul\switchemulator\Zelda TotK\MapEditorV4\OldVersion\MapEditor\VAO.cpp

; 11   : {

	mov	ebx, r9d
	mov	edi, r8d
; File H:\Paul\switchemulator\Zelda TotK\MapEditorV4\OldVersion\MapEditor\VBO.cpp

; 21   : 	glBindBuffer(GL_ARRAY_BUFFER, ID);

	call	QWORD PTR glad_glBindBuffer
; File H:\Paul\switchemulator\Zelda TotK\MapEditorV4\OldVersion\MapEditor\VAO.cpp

; 13   : 	glVertexAttribPointer(layout, numComponents, type, GL_FALSE, stride, offset);

	mov	rax, QWORD PTR offset$[rsp]
	xor	r9d, r9d
	mov	QWORD PTR [rsp+40], rax
	mov	r8d, 5126				; 00001406H
	mov	eax, DWORD PTR stride$[rsp]
	mov	edx, ebx
	mov	ecx, edi
	mov	DWORD PTR [rsp+32], eax
	call	QWORD PTR glad_glVertexAttribPointer

; 14   : 	glEnableVertexAttribArray(layout);

	mov	ecx, edi
	call	QWORD PTR glad_glEnableVertexAttribArray
; File H:\Paul\switchemulator\Zelda TotK\MapEditorV4\OldVersion\MapEditor\VBO.cpp

; 27   : 	glBindBuffer(GL_ARRAY_BUFFER, 0);

	xor	edx, edx
	mov	ecx, 34962				; 00008892H
; File H:\Paul\switchemulator\Zelda TotK\MapEditorV4\OldVersion\MapEditor\VAO.cpp

; 16   : }

	mov	rbx, QWORD PTR [rsp+64]
	add	rsp, 48					; 00000030H
	pop	rdi
; File H:\Paul\switchemulator\Zelda TotK\MapEditorV4\OldVersion\MapEditor\VBO.cpp

; 27   : 	glBindBuffer(GL_ARRAY_BUFFER, 0);

	rex_jmp	QWORD PTR glad_glBindBuffer
?LinkAttrib@VAO@@QEAAXAEAVVBO@@III_JPEAX@Z ENDP		; VAO::LinkAttrib
_TEXT	ENDS
; Function compile flags: /Ogtpy
; File H:\Paul\switchemulator\Zelda TotK\MapEditorV4\OldVersion\MapEditor\VAO.cpp
;	COMDAT ?Bind@VAO@@QEAAXXZ
_TEXT	SEGMENT
this$ = 8
?Bind@VAO@@QEAAXXZ PROC					; VAO::Bind, COMDAT

; 21   : 	glBindVertexArray(ID);

	mov	ecx, DWORD PTR [rcx]
	rex_jmp	QWORD PTR glad_glBindVertexArray
?Bind@VAO@@QEAAXXZ ENDP					; VAO::Bind
_TEXT	ENDS
; Function compile flags: /Ogtpy
; File H:\Paul\switchemulator\Zelda TotK\MapEditorV4\OldVersion\MapEditor\VAO.cpp
;	COMDAT ?Unbind@VAO@@QEAAXXZ
_TEXT	SEGMENT
this$dead$ = 8
?Unbind@VAO@@QEAAXXZ PROC				; VAO::Unbind, COMDAT

; 27   : 	glBindVertexArray(0);

	xor	ecx, ecx
	rex_jmp	QWORD PTR glad_glBindVertexArray
?Unbind@VAO@@QEAAXXZ ENDP				; VAO::Unbind
_TEXT	ENDS
; Function compile flags: /Ogtpy
; File H:\Paul\switchemulator\Zelda TotK\MapEditorV4\OldVersion\MapEditor\VAO.cpp
;	COMDAT ?Delete@VAO@@QEAAXXZ
_TEXT	SEGMENT
this$ = 8
?Delete@VAO@@QEAAXXZ PROC				; VAO::Delete, COMDAT

; 33   : 	glDeleteVertexArrays(1, &ID);

	mov	rdx, rcx
	mov	ecx, 1
	rex_jmp	QWORD PTR glad_glDeleteVertexArrays
?Delete@VAO@@QEAAXXZ ENDP				; VAO::Delete
_TEXT	ENDS
END
